;
; File generated by cc65 v 2.15 - Git f7cdfbf
;
	.fopt		compiler,"cc65 v 2.15 - Git f7cdfbf"
	.setcpu		"6502"
	.smart		on
	.autoimport	on
	.case		on
	.debuginfo	off
	.importzp	sp, sreg, regsave, regbank
	.importzp	tmp1, tmp2, tmp3, tmp4, ptr1, ptr2, ptr3, ptr4
	.macpack	longbranch
	.forceimport	__STARTUP__
	.import		_pal_bg
	.import		_pal_spr
	.import		_pal_col
	.import		_pal_bright
	.import		_ppu_wait_nmi
	.import		_ppu_off
	.import		_ppu_on_all
	.import		_ppu_system
	.import		_oam_size
	.import		_oam_spr
	.import		_oam_meta_spr
	.import		_oam_hide_rest
	.import		_famitone_init
	.import		_music_play
	.import		_music_stop
	.import		_music_pause
	.import		_sfx_play
	.import		_pad_poll
	.import		_scroll
	.import		_split
	.import		_bank_spr
	.import		_bank_bg
	.import		_rand8
	.import		_set_vram_update
	.import		_vram_adr
	.import		_vram_put
	.import		_vram_fill
	.import		_vram_unrle
	.import		_delay
	.import		_tkrom_bankswitch
	.export		_rda
	.export		_rdb
	.export		_rdc
	.export		_rdd
	.export		_rde
	.export		_rdct
	.export		_rdt
	.export		_rdx
	.export		_rdy
	.export		_rdpant
	.export		_ccit
	.export		_rds
	.export		_gpit
	.export		_gpjt
	.export		_gpint
	.export		_gp_gen
	.export		_gp_aux
	.export		_gp_ul
	.export		_gp_addr
	.export		_oam_index
	.export		_pad0
	.export		_pad
	.export		_pad_this_frame
	.export		_half_life
	.export		_frame_counter
	.export		_col_idx
	.export		_col_idx_latest
	.export		_col_ptr
	.export		_map_ptr
	.export		_state_ctr
	.export		_col_v_offset
	.export		_cam_pos
	.export		_cam_pos_mod
	.export		_cam_pos_pant
	.export		_cx1
	.export		_cx2
	.export		_cy1
	.export		_cy2
	.export		_cxaux
	.export		_cyaux
	.export		_at1
	.export		_at2
	.export		_scr_buffer_ptr
	.export		_en_scr_buffer_ptr
	.export		_scr_v_offset
	.export		_n_pant
	.export		_prx
	.export		_pry
	.export		_px
	.export		_py
	.export		_pvx
	.export		_pvy
	.export		_pvmax
	.export		_pgotten
	.export		_pfacing
	.export		_psprid
	.export		_ppossee
	.export		_psignal
	.export		_pj
	.export		_pjb
	.export		_pctj
	.export		_pfr
	.export		_pflickers
	.export		_ppodewwwr
	.export		_pgtmx
	.export		_pgtmy
	.export		_px_world
	.export		_cam_pant
	.export		_cam_pant_old
	.export		_c_enems_t
	.export		_c_enems_yx1
	.export		_c_enems_yx2
	.export		_c_enems_mn
	.export		_enidx
	.export		_en_just_loaded
	.export		_en_iter
	.export		_en_t
	.export		_en_x1
	.export		_en_y1
	.export		_en_x2
	.export		_en_y2
	.export		_en_x
	.export		_en_y
	.export		_en_state
	.export		_en_s
	.export		_en_p
	.export		_en_mx
	.export		_en_my
	.export		_sprx
	.export		_spry
	.export		_sprid
	.export		_en_cx
	.export		_en_cy
	.export		_endx
	.export		_c_hotspots_yx
	.export		_c_hotspots_t
	.export		_ticks
	.export		_halfticks
	.export		_ntsc
	.export		_game_time
	.export		_ticker
	.export		_scr_buffer
	.export		_fader
	.export		_paused
	.export		_flush
	.export		_reset
	.export		_clear
	.export		_cutscene_do
	.export		_panic_exit
	.export		_soft_reenter
	.export		_pal_cycle
	.export		_c_pal_bg
	.export		_c_pal_fg
	.export		_scroll_state
	.export		_section_x0
	.export		_section_x1
	.export		_cam_pos_old
	.export		_bgo_on
	.export		_bgo_x
	.export		_bgo_y
	.export		_bgo_pant
	.export		_bgo_s
	.export		_bgo_ctr
	.export		_bgo_col_idx
	.export		_bgo_total
	.export		_bgo_type
	.export		_stage
	.export		_level
	.export		_base_pant
	.export		_section
	.export		_game_res
	.export		_fskip_ctr
	.export		_first_time
	.export		_keep_playing
	.export		_hrt
	.export		_hrx
	.export		_hry
	.export		_hrp
	.export		_h_modify_this
	.export		_safe_prx
	.export		_safe_pry
	.export		_safe_n_pant
	.export		_safe_level
	.export		_plife
	.export		_pcharges
	.export		_pinv
	.export		_oplife
	.export		_opcharges
	.export		_pcontinues
	.export		_pcrx
	.export		_pcry
	.export		_music_on
	.export		_no_ct
	.export		_tt_ct
	.export		_use_ct
	.export		_guay_ct
	.export		_fr_ct
	.export		_c_pal_back
	.export		_ct_flash
	.export		_gs_flags
	.export		_gs_this_flag
	.export		_cutscene
	.export		_bitmasks
	.export		_behs
	.export		_bankswitch_prg_a
	.export		_bankswitch_prg_b
	.export		_hitit
	.export		_map_0
	.export		_main_ts_tmaps_0
	.export		_main_ts_tmaps_1
	.export		_main_ts_tmaps_2
	.export		_main_ts_tmaps_3
	.export		_main_ts_pals
	.export		_attr_lookup_0_0
	.export		_attr_lookup_0_1
	.export		_attr_lookup_0_2
	.export		_attr_lookup_0_3
	.import		_music_ROM02
	.export		_title_rle
	.export		_plate1_rle
	.export		_plate2_rle
	.export		_hud_rle
	.export		_map_rle
	.export		_ending_rle
	.export		_enems_t_0
	.export		_enems_yx1_0
	.export		_enems_yx2_0
	.export		_enems_mn_0
	.export		_hotspots_t_0
	.export		_hotspots_yx_0
	.export		_sspl_00_a
	.export		_sspl_00_b
	.export		_sspl_01_a
	.export		_sspl_01_b
	.export		_sspl_02_a
	.export		_sspl_02_b
	.export		_sspl_03_a
	.export		_sspl_03_b
	.export		_sspl_04_a
	.export		_sspl_04_b
	.export		_sspl_05_a
	.export		_sspl_05_b
	.export		_sspl_06_a
	.export		_sspl_06_b
	.export		_sspl_07_a
	.export		_sspl_07_b
	.export		_sspl_08_a
	.export		_sspl_08_b
	.export		_sspl_09_a
	.export		_sspl_09_b
	.export		_sspl_0A_a
	.export		_sspl_0A_b
	.export		_sspl_0B_a
	.export		_sspl_0B_b
	.export		_sspl_0C_a
	.export		_sspl_0C_b
	.export		_sspl_0D_a
	.export		_sspl_0D_b
	.export		_sspl_0E_a
	.export		_sspl_0E_b
	.export		_sspl_0F_a
	.export		_sspl_0F_b
	.export		_sspld_00
	.export		_sspld_01
	.export		_sspld_02
	.export		_sspld_03
	.export		_sspld_04
	.export		_sspld_05
	.export		_sspld_06
	.export		_sspld_07
	.export		_ssena_00_a
	.export		_ssena_00_b
	.export		_ssena_01_a
	.export		_ssena_01_b
	.export		_ssena_02_a
	.export		_ssena_02_b
	.export		_ssena_03_a
	.export		_ssena_03_b
	.export		_ssena_04_a
	.export		_ssena_04_b
	.export		_ssena_05_a
	.export		_ssena_05_b
	.export		_ssena_06_a
	.export		_ssena_06_b
	.export		_ssenx_a
	.export		_ssenx_b
	.export		_ssenb_00
	.export		_ssenb_01
	.export		_ssenb_02
	.export		_ssenb_03
	.export		_ssenb_04
	.export		_ssenb_05
	.export		_ssenc_00
	.export		_ssenc_01
	.export		_ssenc_02
	.export		_ssenc_03
	.export		_ssenc_04
	.export		_ssenc_05
	.export		_ssit_00
	.export		_ssit_01
	.export		_ssit_02
	.export		_ssit_03
	.export		_ssit_04
	.export		_ssit_05
	.export		_ssit_06
	.export		_ssit_07
	.export		_spr_pl
	.export		_spr_en
	.export		_spr_it
	.export		_spr_empty
	.export		_mypal_game_bg0
	.export		_mypal_game_bg1
	.export		_mypal_game_bg2
	.export		_mypal_game_bg3
	.export		_mypal_game_fg0
	.export		_mypal_game_fg1
	.export		_mypal_light_bg
	.export		_mypal_light_fg
	.export		_mypal_ending
	.export		_mypal_reds
	.export		_sections_0
	.export		_sections_1
	.export		_sections_2
	.export		_sections_3
	.export		_sections
	.export		_pezon_incs
	.export		_fanty_incs
	.export		_fanty_retreat_incs
	.export		_chac_chac_tiles_0
	.export		_chac_chac_tiles_1
	.export		_chac_chac_tiles_2
	.export		_bg_object_times
	.export		_column_tiles_0
	.export		_column_tiles_1
	.export		_column_tiles_2
	.export		_main_gate_tiles_0
	.export		_main_gate_tiles_1
	.export		_main_gate_tiles_2
	.export		_nt_tile_offsets_y
	.export		_tt_anim
	.export		_c_pal_bgs
	.export		_str_cuts0_00
	.export		_str_cuts0_01
	.export		_str_cuts0_02
	.export		_str_cuts0_03
	.export		_str_cuts0_index
	.export		_split_and_wait
	.export		_fade_out_split
	.export		_fade_in_split
	.export		_delay_split
	.export		_fade_out
	.export		_fade_in
	.export		_cls
	.export		_p_t2
	.export		_p_s
	.export		_fx_flash
	.export		_update_buffered_tile
	.export		_bg_object_init
	.export		_bg_object_draw_this
	.export		_bg_object_do
	.export		_camera_do
	.export		_hotspots_init
	.export		_hotspots_restore_carried_object
	.export		_hotspots_load
	.export		_hotspots_do
	.export		_hud_and_split_setup
	.export		_hud_do
	.export		_palfx_do
	.export		_palfx_init
	.export		_player_reset_movement
	.export		_player_register_safe_spot
	.export		_player_restore_safe_spot
	.export		_player_init
	.export		_player_collision_vertical
	.export		_player_collision_horizontal
	.export		_player_move
	.export		_player_render
	.export		_enems_load
	.export		_enems_do
	.export		_scroll_bg_object_create
	.export		_scroll_paint_chunk
	.export		_scroll_to
	.export		_scroll_draw_one_chunk_completely
	.export		_scroll_draw_screen
	.export		_enter_screen
	.export		_exit_cleanly
	.export		_wait_time_or_input
	.export		_do_screen
	.export		_screen_title
	.export		_screen_game_over
	.export		_flush_buffer
	.export		_cutscene_show
	.export		_game_init
	.export		_game_strip_setup
	.export		_game_stuff_preload
	.export		_game_loop
	.export		_game_title
	.export		_game_over
	.export		_game_ending
	.export		_game_intro
	.export		_minimap_do
	.export		_main

.segment	"DATA"

.segment	"ZEROPAGE"
.segment	"BSS"

.segment	"RODATA"

.segment	"CODE"
_bitmasks:
	.byte	$FC
	.byte	$F3
	.byte	$CF
	.byte	$3F
_behs:
	.byte	$00
	.byte	$08
	.byte	$08
	.byte	$08
	.byte	$08
	.byte	$08
	.byte	$08
	.byte	$08
	.byte	$08
	.byte	$00
	.byte	$00
	.byte	$00
	.byte	$00
	.byte	$00
	.byte	$00
	.byte	$00
	.byte	$00
	.byte	$00
	.byte	$00
	.byte	$00
	.byte	$08
	.byte	$00
	.byte	$00
	.byte	$00
	.byte	$08
	.byte	$08
	.byte	$08
	.byte	$08
	.byte	$08
	.byte	$08
	.byte	$08
	.byte	$08
	.byte	$08
	.byte	$01
	.byte	$08
	.byte	$00
	.byte	$04
	.byte	$08
	.byte	$08
	.byte	$00
	.byte	$00
	.byte	$00
	.byte	$00
	.byte	$00
	.byte	$00
	.byte	$00
	.byte	$00
	.byte	$00
	.byte	$00
	.byte	$00
	.byte	$02
	.byte	$02
	.byte	$02
	.byte	$02
	.byte	$00
	.byte	$08
	.byte	$00
	.byte	$00
	.byte	$04
	.byte	$00
	.byte	$08
	.byte	$08
	.byte	$00
	.byte	$00
	.byte	$01
	.byte	$08
	.byte	$00
	.byte	$08
	.byte	$08
	.byte	$08
	.byte	$08
	.byte	$08
	.byte	$00
	.byte	$00
	.byte	$00
	.byte	$00
	.byte	$00
	.byte	$00
	.byte	$00
	.byte	$00
	.byte	$08
	.byte	$08
	.byte	$08
	.byte	$08
	.byte	$00
	.byte	$00
	.byte	$00
	.byte	$00
	.byte	$00
	.byte	$00
	.byte	$00
	.byte	$00
	.byte	$00
	.byte	$00
	.byte	$00
	.byte	$08
.segment	"ROM0001"
_map_0:
	.byte	$08
	.byte	$20
	.byte	$08
	.byte	$00
	.byte	$20
	.byte	$00
	.byte	$20
	.byte	$00
	.byte	$25
	.byte	$00
	.byte	$08
	.byte	$00
	.byte	$25
	.byte	$00
	.byte	$20
	.byte	$00
	.byte	$08
	.byte	$00
	.byte	$25
	.byte	$00
	.byte	$3D
	.byte	$00
	.byte	$08
	.byte	$3C
	.byte	$08
	.byte	$3C
	.byte	$00
	.byte	$00
	.byte	$2C
	.byte	$2C
	.byte	$2C
	.byte	$2C
	.byte	$2C
	.byte	$2C
	.byte	$2C
	.byte	$2C
	.byte	$2C
	.byte	$20
	.byte	$2C
	.byte	$3F
	.byte	$2C
	.byte	$2C
	.byte	$2C
	.byte	$2C
	.byte	$2F
	.byte	$27
	.byte	$3D
	.byte	$08
	.byte	$3D
	.byte	$08
	.byte	$00
	.byte	$00
	.byte	$2C
	.byte	$2C
	.byte	$2C
	.byte	$2C
	.byte	$2C
	.byte	$05
	.byte	$2F
	.byte	$07
	.byte	$3C
	.byte	$3D
	.byte	$00
	.byte	$00
	.byte	$2C
	.byte	$2C
	.byte	$2C
	.byte	$2C
	.byte	$2C
	.byte	$2C
	.byte	$08
	.byte	$3C
	.byte	$08
	.byte	$25
	.byte	$00
	.byte	$00
	.byte	$2C
	.byte	$2D
	.byte	$2C
	.byte	$2C
	.byte	$27
	.byte	$2C
	.byte	$22
	.byte	$22
	.byte	$3C
	.byte	$3D
	.byte	$25
	.byte	$00
	.byte	$30
	.byte	$2C
	.byte	$36
	.byte	$2C
	.byte	$36
	.byte	$2C
	.byte	$3D
	.byte	$08
	.byte	$20
	.byte	$08
	.byte	$00
	.byte	$00
	.byte	$2C
	.byte	$2E
	.byte	$2C
	.byte	$2C
	.byte	$2C
	.byte	$2C
	.byte	$1B
	.byte	$22
	.byte	$20
	.byte	$20
	.byte	$00
	.byte	$00
	.byte	$2C
	.byte	$2C
	.byte	$2C
	.byte	$2C
	.byte	$2C
	.byte	$2C
	.byte	$2C
	.byte	$2C
	.byte	$25
	.byte	$20
	.byte	$00
	.byte	$00
	.byte	$2C
	.byte	$2C
	.byte	$2C
	.byte	$2C
	.byte	$2C
	.byte	$05
	.byte	$22
	.byte	$07
	.byte	$20
	.byte	$3C
	.byte	$00
	.byte	$05
	.byte	$2C
	.byte	$14
	.byte	$2C
	.byte	$2C
	.byte	$2C
	.byte	$2C
	.byte	$2C
	.byte	$3C
	.byte	$3C
	.byte	$3D
	.byte	$00
	.byte	$00
	.byte	$2C
	.byte	$2C
	.byte	$2C
	.byte	$2C
	.byte	$27
	.byte	$2C
	.byte	$2F
	.byte	$27
	.byte	$3D
	.byte	$20
	.byte	$00
	.byte	$00
	.byte	$42
	.byte	$2C
	.byte	$2C
	.byte	$2C
	.byte	$2C
	.byte	$2C
	.byte	$3D
	.byte	$20
	.byte	$20
	.byte	$08
	.byte	$00
	.byte	$00
	.byte	$2C
	.byte	$2C
	.byte	$2C
	.byte	$2C
	.byte	$2C
	.byte	$2C
	.byte	$2C
	.byte	$2C
	.byte	$08
	.byte	$3C
	.byte	$00
	.byte	$00
	.byte	$2C
	.byte	$2C
	.byte	$2C
	.byte	$2C
	.byte	$2F
	.byte	$27
	.byte	$3C
	.byte	$3D
	.byte	$3C
	.byte	$3D
	.byte	$00
	.byte	$00
	.byte	$2C
	.byte	$2C
	.byte	$2C
	.byte	$2C
	.byte	$2C
	.byte	$2C
	.byte	$2C
	.byte	$2C
	.byte	$3D
	.byte	$20
	.byte	$00
	.byte	$00
	.byte	$2C
	.byte	$3F
	.byte	$2C
	.byte	$05
	.byte	$2C
	.byte	$07
	.byte	$20
	.byte	$18
	.byte	$08
	.byte	$3C
	.byte	$00
	.byte	$08
	.byte	$2C
	.byte	$20
	.byte	$2C
	.byte	$25
	.byte	$2C
	.byte	$20
	.byte	$2C
	.byte	$08
	.byte	$25
	.byte	$20
	.byte	$00
	.byte	$29
	.byte	$00
	.byte	$00
	.byte	$3F
	.byte	$00
	.byte	$22
	.byte	$37
	.byte	$18
	.byte	$03
	.byte	$3D
	.byte	$3C
	.byte	$3C
	.byte	$3D
	.byte	$2B
	.byte	$2B
	.byte	$23
	.byte	$23
	.byte	$00
	.byte	$00
	.byte	$00
	.byte	$00
	.byte	$00
	.byte	$29
	.byte	$00
	.byte	$00
	.byte	$00
	.byte	$00
	.byte	$00
	.byte	$05
	.byte	$22
	.byte	$07
	.byte	$03
	.byte	$18
	.byte	$3D
	.byte	$4F
	.byte	$3E
	.byte	$3E
	.byte	$2B
	.byte	$2B
	.byte	$23
	.byte	$23
	.byte	$00
	.byte	$00
	.byte	$2A
	.byte	$00
	.byte	$00
	.byte	$00
	.byte	$00
	.byte	$29
	.byte	$00
	.byte	$00
	.byte	$28
	.byte	$00
	.byte	$00
	.byte	$3A
	.byte	$03
	.byte	$00
	.byte	$4F
	.byte	$4F
	.byte	$3E
	.byte	$3E
	.byte	$2B
	.byte	$2B
	.byte	$23
	.byte	$23
	.byte	$00
	.byte	$29
	.byte	$00
	.byte	$00
	.byte	$28
	.byte	$00
	.byte	$00
	.byte	$00
	.byte	$00
	.byte	$00
	.byte	$00
	.byte	$00
	.byte	$00
	.byte	$00
	.byte	$00
	.byte	$00
	.byte	$4F
	.byte	$4F
	.byte	$3E
	.byte	$3E
	.byte	$2B
	.byte	$2B
	.byte	$23
	.byte	$23
	.byte	$00
	.byte	$00
	.byte	$2A
	.byte	$00
	.byte	$00
	.byte	$00
	.byte	$28
	.byte	$00
	.byte	$00
	.byte	$00
	.byte	$28
	.byte	$00
	.byte	$2A
	.byte	$00
	.byte	$28
	.byte	$00
	.byte	$4F
	.byte	$4F
	.byte	$3E
	.byte	$3E
	.byte	$2B
	.byte	$2B
	.byte	$23
	.byte	$23
	.byte	$00
	.byte	$00
	.byte	$00
	.byte	$00
	.byte	$00
	.byte	$29
	.byte	$00
	.byte	$00
	.byte	$00
	.byte	$00
	.byte	$3A
	.byte	$00
	.byte	$00
	.byte	$00
	.byte	$00
	.byte	$00
	.byte	$4F
	.byte	$4F
	.byte	$3E
	.byte	$3E
	.byte	$2B
	.byte	$2B
	.byte	$23
	.byte	$23
	.byte	$00
	.byte	$00
	.byte	$28
	.byte	$29
	.byte	$2A
	.byte	$00
	.byte	$28
	.byte	$29
	.byte	$00
	.byte	$00
	.byte	$00
	.byte	$00
	.byte	$00
	.byte	$00
	.byte	$28
	.byte	$18
	.byte	$4F
	.byte	$41
	.byte	$3E
	.byte	$01
	.byte	$2B
	.byte	$02
	.byte	$23
	.byte	$3C
	.byte	$00
	.byte	$20
	.byte	$2A
	.byte	$3C
	.byte	$28
	.byte	$3C
	.byte	$2A
	.byte	$08
	.byte	$00
	.byte	$3C
	.byte	$2A
	.byte	$3F
	.byte	$00
	.byte	$2C
	.byte	$18
	.byte	$18
	.byte	$01
	.byte	$41
	.byte	$44
	.byte	$02
	.byte	$3C
	.byte	$3D
	.byte	$3D
	.byte	$25
	.byte	$08
	.byte	$00
	.byte	$3D
	.byte	$00
	.byte	$3D
	.byte	$00
	.byte	$20
	.byte	$00
	.byte	$3D
	.byte	$00
	.byte	$00
	.byte	$00
	.byte	$2C
	.byte	$2C
	.byte	$03
	.byte	$00
	.byte	$41
	.byte	$01
	.byte	$44
	.byte	$02
	.byte	$08
	.byte	$3C
	.byte	$00
	.byte	$00
	.byte	$00
	.byte	$2C
	.byte	$2C
	.byte	$2C
	.byte	$2C
	.byte	$2D
	.byte	$2C
	.byte	$2C
	.byte	$2C
	.byte	$2C
	.byte	$2C
	.byte	$2D
	.byte	$2C
	.byte	$2C
	.byte	$2C
	.byte	$2C
	.byte	$41
	.byte	$41
	.byte	$02
	.byte	$41
	.byte	$3D
	.byte	$3C
	.byte	$00
	.byte	$00
	.byte	$2C
	.byte	$2C
	.byte	$2C
	.byte	$2C
	.byte	$2C
	.byte	$2C
	.byte	$2C
	.byte	$2E
	.byte	$2C
	.byte	$2C
	.byte	$2C
	.byte	$2C
	.byte	$2C
	.byte	$22
	.byte	$2C
	.byte	$3F
	.byte	$41
	.byte	$41
	.byte	$02
	.byte	$41
	.byte	$3D
	.byte	$20
	.byte	$00
	.byte	$00
	.byte	$2C
	.byte	$2C
	.byte	$2C
	.byte	$2C
	.byte	$2C
	.byte	$2C
	.byte	$2C
	.byte	$2E
	.byte	$2C
	.byte	$2D
	.byte	$2C
	.byte	$2C
	.byte	$27
	.byte	$2C
	.byte	$42
	.byte	$2C
	.byte	$01
	.byte	$41
	.byte	$44
	.byte	$41
	.byte	$3C
	.byte	$3D
	.byte	$08
	.byte	$3C
	.byte	$3F
	.byte	$20
	.byte	$2C
	.byte	$3C
	.byte	$2C
	.byte	$25
	.byte	$2C
	.byte	$3C
	.byte	$2C
	.byte	$3C
	.byte	$2C
	.byte	$3F
	.byte	$2C
	.byte	$2C
	.byte	$2C
	.byte	$2C
	.byte	$41
	.byte	$4F
	.byte	$01
	.byte	$3E
	.byte	$02
	.byte	$2B
	.byte	$3D
	.byte	$23
	.byte	$08
	.byte	$00
	.byte	$3D
	.byte	$00
	.byte	$08
	.byte	$00
	.byte	$3D
	.byte	$00
	.byte	$3D
	.byte	$00
	.byte	$00
	.byte	$00
	.byte	$3F
	.byte	$00
	.byte	$03
	.byte	$03
	.byte	$4F
	.byte	$4F
	.byte	$3E
	.byte	$3E
	.byte	$2B
	.byte	$2B
	.byte	$23
	.byte	$23
	.byte	$00
	.byte	$00
	.byte	$00
	.byte	$00
	.byte	$2A
	.byte	$00
	.byte	$00
	.byte	$29
	.byte	$00
	.byte	$00
	.byte	$00
	.byte	$04
	.byte	$00
	.byte	$00
	.byte	$03
	.byte	$00
	.byte	$4F
	.byte	$4F
	.byte	$3E
	.byte	$3E
	.byte	$2B
	.byte	$2B
	.byte	$23
	.byte	$23
	.byte	$00
	.byte	$00
	.byte	$2A
	.byte	$00
	.byte	$28
	.byte	$00
	.byte	$2A
	.byte	$00
	.byte	$28
	.byte	$29
	.byte	$04
	.byte	$26
	.byte	$28
	.byte	$29
	.byte	$00
	.byte	$00
	.byte	$4F
	.byte	$4F
	.byte	$3E
	.byte	$3E
	.byte	$2B
	.byte	$2B
	.byte	$23
	.byte	$23
	.byte	$00
	.byte	$00
	.byte	$00
	.byte	$3A
	.byte	$2A
	.byte	$00
	.byte	$00
	.byte	$00
	.byte	$00
	.byte	$00
	.byte	$00
	.byte	$29
	.byte	$00
	.byte	$00
	.byte	$00
	.byte	$29
	.byte	$4F
	.byte	$4F
	.byte	$3E
	.byte	$3E
	.byte	$2B
	.byte	$2B
	.byte	$23
	.byte	$23
	.byte	$00
	.byte	$00
	.byte	$00
	.byte	$00
	.byte	$28
	.byte	$29
	.byte	$00
	.byte	$3A
	.byte	$28
	.byte	$00
	.byte	$00
	.byte	$00
	.byte	$00
	.byte	$00
	.byte	$2A
	.byte	$00
	.byte	$4F
	.byte	$4F
	.byte	$3E
	.byte	$3E
	.byte	$2B
	.byte	$2B
	.byte	$23
	.byte	$23
	.byte	$00
	.byte	$00
	.byte	$00
	.byte	$00
	.byte	$00
	.byte	$00
	.byte	$28
	.byte	$29
	.byte	$00
	.byte	$00
	.byte	$28
	.byte	$04
	.byte	$00
	.byte	$00
	.byte	$28
	.byte	$29
	.byte	$4F
	.byte	$4F
	.byte	$3E
	.byte	$3E
	.byte	$2B
	.byte	$2B
	.byte	$23
	.byte	$23
	.byte	$00
	.byte	$00
	.byte	$00
	.byte	$00
	.byte	$00
	.byte	$00
	.byte	$00
	.byte	$00
	.byte	$28
	.byte	$00
	.byte	$00
	.byte	$00
	.byte	$00
	.byte	$00
	.byte	$00
	.byte	$00
	.byte	$4F
	.byte	$4F
	.byte	$3E
	.byte	$3E
	.byte	$2B
	.byte	$2B
	.byte	$23
	.byte	$23
	.byte	$00
	.byte	$00
	.byte	$00
	.byte	$00
	.byte	$2A
	.byte	$00
	.byte	$00
	.byte	$00
	.byte	$00
	.byte	$00
	.byte	$28
	.byte	$00
	.byte	$00
	.byte	$26
	.byte	$00
	.byte	$00
	.byte	$4F
	.byte	$4F
	.byte	$3E
	.byte	$3E
	.byte	$2B
	.byte	$2B
	.byte	$23
	.byte	$23
	.byte	$00
	.byte	$00
	.byte	$00
	.byte	$00
	.byte	$00
	.byte	$00
	.byte	$00
	.byte	$00
	.byte	$28
	.byte	$29
	.byte	$00
	.byte	$00
	.byte	$28
	.byte	$00
	.byte	$00
	.byte	$00
	.byte	$4F
	.byte	$4F
	.byte	$3E
	.byte	$3E
	.byte	$2B
	.byte	$2B
	.byte	$23
	.byte	$23
	.byte	$2A
	.byte	$00
	.byte	$00
	.byte	$29
	.byte	$00
	.byte	$03
	.byte	$28
	.byte	$29
	.byte	$00
	.byte	$00
	.byte	$00
	.byte	$29
	.byte	$00
	.byte	$00
	.byte	$00
	.byte	$00
	.byte	$4F
	.byte	$4F
	.byte	$3E
	.byte	$3E
	.byte	$2B
	.byte	$2B
	.byte	$23
	.byte	$23
	.byte	$28
	.byte	$29
	.byte	$2A
	.byte	$00
	.byte	$18
	.byte	$00
	.byte	$2A
	.byte	$00
	.byte	$00
	.byte	$29
	.byte	$2A
	.byte	$00
	.byte	$00
	.byte	$29
	.byte	$2A
	.byte	$00
	.byte	$4F
	.byte	$4F
	.byte	$3E
	.byte	$3E
	.byte	$2B
	.byte	$2B
	.byte	$23
	.byte	$23
	.byte	$00
	.byte	$00
	.byte	$28
	.byte	$00
	.byte	$00
	.byte	$00
	.byte	$28
	.byte	$00
	.byte	$2A
	.byte	$00
	.byte	$28
	.byte	$00
	.byte	$00
	.byte	$00
	.byte	$00
	.byte	$00
	.byte	$4F
	.byte	$4F
	.byte	$3E
	.byte	$3E
	.byte	$2B
	.byte	$2B
	.byte	$23
	.byte	$23
	.byte	$28
	.byte	$00
	.byte	$2A
	.byte	$00
	.byte	$00
	.byte	$29
	.byte	$2A
	.byte	$00
	.byte	$00
	.byte	$29
	.byte	$00
	.byte	$00
	.byte	$28
	.byte	$00
	.byte	$00
	.byte	$00
	.byte	$4F
	.byte	$4F
	.byte	$3E
	.byte	$3E
	.byte	$2B
	.byte	$2B
	.byte	$03
	.byte	$23
	.byte	$01
	.byte	$00
	.byte	$01
	.byte	$29
	.byte	$01
	.byte	$00
	.byte	$41
	.byte	$3A
	.byte	$01
	.byte	$00
	.byte	$01
	.byte	$00
	.byte	$41
	.byte	$00
	.byte	$41
	.byte	$00
	.byte	$4F
	.byte	$4F
	.byte	$3E
	.byte	$3E
	.byte	$2B
	.byte	$2B
	.byte	$23
	.byte	$23
	.byte	$00
	.byte	$29
	.byte	$00
	.byte	$3A
	.byte	$28
	.byte	$00
	.byte	$2A
	.byte	$00
	.byte	$00
	.byte	$00
	.byte	$2A
	.byte	$00
	.byte	$00
	.byte	$3A
	.byte	$00
	.byte	$00
	.byte	$4F
	.byte	$4F
	.byte	$3E
	.byte	$3E
	.byte	$2B
	.byte	$2B
	.byte	$23
	.byte	$23
	.byte	$00
	.byte	$00
	.byte	$28
	.byte	$00
	.byte	$2A
	.byte	$00
	.byte	$28
	.byte	$00
	.byte	$00
	.byte	$00
	.byte	$00
	.byte	$00
	.byte	$00
	.byte	$00
	.byte	$00
	.byte	$00
	.byte	$4F
	.byte	$4F
	.byte	$3E
	.byte	$3E
	.byte	$2B
	.byte	$2B
	.byte	$23
	.byte	$23
	.byte	$00
	.byte	$29
	.byte	$2A
	.byte	$00
	.byte	$00
	.byte	$00
	.byte	$00
	.byte	$00
	.byte	$00
	.byte	$00
	.byte	$2A
	.byte	$00
	.byte	$28
	.byte	$00
	.byte	$2A
	.byte	$00
	.byte	$4F
	.byte	$4F
	.byte	$3E
	.byte	$3E
	.byte	$2B
	.byte	$2B
	.byte	$23
	.byte	$23
	.byte	$00
	.byte	$00
	.byte	$00
	.byte	$00
	.byte	$2A
	.byte	$00
	.byte	$00
	.byte	$00
	.byte	$00
	.byte	$00
	.byte	$43
	.byte	$13
	.byte	$07
	.byte	$00
	.byte	$18
	.byte	$18
	.byte	$4F
	.byte	$4F
	.byte	$3E
	.byte	$3E
	.byte	$2B
	.byte	$2B
	.byte	$23
	.byte	$23
	.byte	$00
	.byte	$29
	.byte	$00
	.byte	$00
	.byte	$00
	.byte	$00
	.byte	$00
	.byte	$00
	.byte	$11
	.byte	$12
	.byte	$15
	.byte	$54
	.byte	$00
	.byte	$55
	.byte	$18
	.byte	$18
	.byte	$4F
	.byte	$4F
	.byte	$3E
	.byte	$3E
	.byte	$2B
	.byte	$2B
	.byte	$23
	.byte	$23
	.byte	$00
	.byte	$00
	.byte	$00
	.byte	$3A
	.byte	$00
	.byte	$00
	.byte	$00
	.byte	$00
	.byte	$00
	.byte	$00
	.byte	$15
	.byte	$29
	.byte	$00
	.byte	$12
	.byte	$18
	.byte	$00
	.byte	$4F
	.byte	$4F
	.byte	$3E
	.byte	$3E
	.byte	$2B
	.byte	$2B
	.byte	$23
	.byte	$23
	.byte	$00
	.byte	$00
	.byte	$2A
	.byte	$00
	.byte	$28
	.byte	$29
	.byte	$18
	.byte	$00
	.byte	$01
	.byte	$00
	.byte	$01
	.byte	$3A
	.byte	$01
	.byte	$29
	.byte	$01
	.byte	$00
	.byte	$4F
	.byte	$4F
	.byte	$3E
	.byte	$3E
	.byte	$2B
	.byte	$2B
	.byte	$23
	.byte	$23
	.byte	$00
	.byte	$00
	.byte	$28
	.byte	$00
	.byte	$2A
	.byte	$00
	.byte	$28
	.byte	$29
	.byte	$00
	.byte	$00
	.byte	$00
	.byte	$29
	.byte	$00
	.byte	$00
	.byte	$28
	.byte	$00
	.byte	$4F
	.byte	$4F
	.byte	$3E
	.byte	$3E
	.byte	$2B
	.byte	$2B
	.byte	$23
	.byte	$23
	.byte	$00
	.byte	$00
	.byte	$2A
	.byte	$00
	.byte	$00
	.byte	$29
	.byte	$2A
	.byte	$00
	.byte	$00
	.byte	$29
	.byte	$00
	.byte	$00
	.byte	$00
	.byte	$11
	.byte	$11
	.byte	$15
	.byte	$4F
	.byte	$4F
	.byte	$3E
	.byte	$3E
	.byte	$2B
	.byte	$2B
	.byte	$23
	.byte	$23
	.byte	$00
	.byte	$00
	.byte	$00
	.byte	$29
	.byte	$00
	.byte	$00
	.byte	$00
	.byte	$29
	.byte	$2A
	.byte	$00
	.byte	$00
	.byte	$3A
	.byte	$12
	.byte	$11
	.byte	$03
	.byte	$15
	.byte	$4F
	.byte	$4F
	.byte	$3E
	.byte	$3E
	.byte	$2B
	.byte	$2B
	.byte	$23
	.byte	$23
	.byte	$28
	.byte	$00
	.byte	$00
	.byte	$00
	.byte	$00
	.byte	$29
	.byte	$2A
	.byte	$00
	.byte	$00
	.byte	$00
	.byte	$11
	.byte	$12
	.byte	$15
	.byte	$00
	.byte	$18
	.byte	$00
	.byte	$4F
	.byte	$4F
	.byte	$3E
	.byte	$3E
	.byte	$2B
	.byte	$2B
	.byte	$23
	.byte	$23
	.byte	$2A
	.byte	$00
	.byte	$00
	.byte	$18
	.byte	$2A
	.byte	$01
	.byte	$00
	.byte	$41
	.byte	$00
	.byte	$01
	.byte	$11
	.byte	$02
	.byte	$15
	.byte	$13
	.byte	$00
	.byte	$00
	.byte	$4F
	.byte	$4F
	.byte	$3E
	.byte	$3E
	.byte	$2B
	.byte	$2B
	.byte	$23
	.byte	$23
	.byte	$00
	.byte	$00
	.byte	$18
	.byte	$03
	.byte	$01
	.byte	$41
	.byte	$41
	.byte	$41
	.byte	$41
	.byte	$44
	.byte	$01
	.byte	$00
	.byte	$41
	.byte	$29
	.byte	$02
	.byte	$00
	.byte	$4F
	.byte	$4F
	.byte	$3E
	.byte	$3E
	.byte	$2B
	.byte	$2B
	.byte	$23
	.byte	$23
	.byte	$00
	.byte	$00
	.byte	$03
	.byte	$00
	.byte	$02
	.byte	$00
	.byte	$00
	.byte	$00
	.byte	$00
	.byte	$00
	.byte	$28
	.byte	$00
	.byte	$00
	.byte	$00
	.byte	$00
	.byte	$00
	.byte	$4F
	.byte	$4F
	.byte	$3E
	.byte	$3E
	.byte	$2B
	.byte	$2B
	.byte	$23
	.byte	$23
	.byte	$00
	.byte	$00
	.byte	$00
	.byte	$00
	.byte	$00
	.byte	$29
	.byte	$2A
	.byte	$00
	.byte	$00
	.byte	$29
	.byte	$00
	.byte	$00
	.byte	$00
	.byte	$00
	.byte	$00
	.byte	$00
	.byte	$4F
	.byte	$4F
	.byte	$3E
	.byte	$3E
	.byte	$2B
	.byte	$2B
	.byte	$23
	.byte	$23
	.byte	$2A
	.byte	$00
	.byte	$28
	.byte	$29
	.byte	$00
	.byte	$00
	.byte	$00
	.byte	$00
	.byte	$00
	.byte	$00
	.byte	$00
	.byte	$00
	.byte	$2A
	.byte	$00
	.byte	$00
	.byte	$00
	.byte	$4F
	.byte	$4F
	.byte	$3E
	.byte	$3E
	.byte	$2B
	.byte	$2B
	.byte	$23
	.byte	$23
	.byte	$00
	.byte	$29
	.byte	$00
	.byte	$18
	.byte	$00
	.byte	$02
	.byte	$2A
	.byte	$00
	.byte	$00
	.byte	$00
	.byte	$00
	.byte	$00
	.byte	$00
	.byte	$00
	.byte	$2A
	.byte	$00
	.byte	$4F
	.byte	$4F
	.byte	$3E
	.byte	$3E
	.byte	$2B
	.byte	$2B
	.byte	$23
	.byte	$23
	.byte	$00
	.byte	$00
	.byte	$00
	.byte	$29
	.byte	$00
	.byte	$00
	.byte	$03
	.byte	$00
	.byte	$41
	.byte	$00
	.byte	$02
	.byte	$29
	.byte	$00
	.byte	$00
	.byte	$28
	.byte	$18
	.byte	$4F
	.byte	$4F
	.byte	$3E
	.byte	$3E
	.byte	$2B
	.byte	$2B
	.byte	$23
	.byte	$23
	.byte	$28
	.byte	$29
	.byte	$2A
	.byte	$00
	.byte	$28
	.byte	$00
	.byte	$00
	.byte	$00
	.byte	$00
	.byte	$29
	.byte	$3A
	.byte	$00
	.byte	$00
	.byte	$00
	.byte	$03
	.byte	$18
	.byte	$4F
	.byte	$4F
	.byte	$3E
	.byte	$3E
	.byte	$2B
	.byte	$2B
	.byte	$23
	.byte	$23
	.byte	$2A
	.byte	$00
	.byte	$28
	.byte	$29
	.byte	$00
	.byte	$00
	.byte	$00
	.byte	$29
	.byte	$2A
	.byte	$00
	.byte	$00
	.byte	$29
	.byte	$00
	.byte	$00
	.byte	$03
	.byte	$03
	.byte	$4F
	.byte	$4F
	.byte	$3E
	.byte	$3E
	.byte	$2B
	.byte	$2B
	.byte	$23
	.byte	$23
	.byte	$00
	.byte	$29
	.byte	$00
	.byte	$00
	.byte	$00
	.byte	$29
	.byte	$2A
	.byte	$00
	.byte	$28
	.byte	$00
	.byte	$2A
	.byte	$00
	.byte	$00
	.byte	$03
	.byte	$03
	.byte	$02
	.byte	$4F
	.byte	$4F
	.byte	$3E
	.byte	$3E
	.byte	$2B
	.byte	$2B
	.byte	$23
	.byte	$23
	.byte	$00
	.byte	$00
	.byte	$00
	.byte	$00
	.byte	$2A
	.byte	$00
	.byte	$28
	.byte	$00
	.byte	$2A
	.byte	$00
	.byte	$00
	.byte	$00
	.byte	$00
	.byte	$00
	.byte	$00
	.byte	$00
	.byte	$4F
	.byte	$4F
	.byte	$3E
	.byte	$3E
	.byte	$2B
	.byte	$2B
	.byte	$23
	.byte	$23
	.byte	$28
	.byte	$00
	.byte	$00
	.byte	$00
	.byte	$28
	.byte	$00
	.byte	$2A
	.byte	$00
	.byte	$00
	.byte	$29
	.byte	$00
	.byte	$00
	.byte	$18
	.byte	$00
	.byte	$01
	.byte	$00
	.byte	$4F
	.byte	$4F
	.byte	$3E
	.byte	$3E
	.byte	$2B
	.byte	$2B
	.byte	$23
	.byte	$23
	.byte	$00
	.byte	$00
	.byte	$03
	.byte	$29
	.byte	$44
	.byte	$00
	.byte	$00
	.byte	$29
	.byte	$00
	.byte	$00
	.byte	$00
	.byte	$18
	.byte	$2A
	.byte	$01
	.byte	$00
	.byte	$01
	.byte	$4F
	.byte	$4F
	.byte	$3E
	.byte	$3E
	.byte	$2B
	.byte	$2B
	.byte	$23
	.byte	$18
	.byte	$00
	.byte	$01
	.byte	$2A
	.byte	$41
	.byte	$28
	.byte	$41
	.byte	$03
	.byte	$01
	.byte	$41
	.byte	$02
	.byte	$01
	.byte	$00
	.byte	$44
	.byte	$29
	.byte	$00
	.byte	$00
	.byte	$4F
	.byte	$4F
	.byte	$3E
	.byte	$3E
	.byte	$2B
	.byte	$2B
	.byte	$23
	.byte	$23
	.byte	$00
	.byte	$00
	.byte	$00
	.byte	$00
	.byte	$00
	.byte	$00
	.byte	$03
	.byte	$29
	.byte	$01
	.byte	$00
	.byte	$02
	.byte	$18
	.byte	$00
	.byte	$02
	.byte	$28
	.byte	$00
	.byte	$4F
	.byte	$4F
	.byte	$3E
	.byte	$3E
	.byte	$2B
	.byte	$2B
	.byte	$23
	.byte	$23
	.byte	$00
	.byte	$00
	.byte	$00
	.byte	$3A
	.byte	$00
	.byte	$29
	.byte	$00
	.byte	$00
	.byte	$28
	.byte	$00
	.byte	$00
	.byte	$00
	.byte	$18
	.byte	$03
	.byte	$41
	.byte	$01
	.byte	$4F
	.byte	$4F
	.byte	$3E
	.byte	$3E
	.byte	$2B
	.byte	$2B
	.byte	$23
	.byte	$23
	.byte	$00
	.byte	$00
	.byte	$28
	.byte	$00
	.byte	$00
	.byte	$00
	.byte	$00
	.byte	$00
	.byte	$00
	.byte	$00
	.byte	$00
	.byte	$29
	.byte	$18
	.byte	$18
	.byte	$01
	.byte	$41
	.byte	$4F
	.byte	$4F
	.byte	$3E
	.byte	$3E
	.byte	$2B
	.byte	$2B
	.byte	$23
	.byte	$23
	.byte	$00
	.byte	$29
	.byte	$00
	.byte	$00
	.byte	$00
	.byte	$00
	.byte	$00
	.byte	$00
	.byte	$28
	.byte	$00
	.byte	$2A
	.byte	$00
	.byte	$03
	.byte	$29
	.byte	$41
	.byte	$00
	.byte	$4F
	.byte	$4F
	.byte	$3E
	.byte	$3E
	.byte	$2B
	.byte	$2B
	.byte	$23
	.byte	$23
	.byte	$00
	.byte	$00
	.byte	$00
	.byte	$00
	.byte	$2A
	.byte	$00
	.byte	$00
	.byte	$00
	.byte	$43
	.byte	$00
	.byte	$07
	.byte	$03
	.byte	$08
	.byte	$08
	.byte	$00
	.byte	$01
	.byte	$4F
	.byte	$4F
	.byte	$3E
	.byte	$3E
	.byte	$2B
	.byte	$2B
	.byte	$23
	.byte	$23
	.byte	$00
	.byte	$00
	.byte	$00
	.byte	$00
	.byte	$00
	.byte	$00
	.byte	$00
	.byte	$00
	.byte	$28
	.byte	$00
	.byte	$00
	.byte	$00
	.byte	$28
	.byte	$00
	.byte	$2A
	.byte	$00
	.byte	$4F
	.byte	$4F
	.byte	$3E
	.byte	$3E
	.byte	$2B
	.byte	$2B
	.byte	$23
	.byte	$23
	.byte	$00
	.byte	$00
	.byte	$00
	.byte	$00
	.byte	$00
	.byte	$00
	.byte	$00
	.byte	$00
	.byte	$2A
	.byte	$00
	.byte	$00
	.byte	$29
	.byte	$00
	.byte	$00
	.byte	$28
	.byte	$29
	.byte	$4F
	.byte	$4F
	.byte	$3E
	.byte	$3E
	.byte	$2B
	.byte	$2B
	.byte	$23
	.byte	$23
	.byte	$00
	.byte	$00
	.byte	$00
	.byte	$00
	.byte	$28
	.byte	$29
	.byte	$00
	.byte	$00
	.byte	$03
	.byte	$00
	.byte	$41
	.byte	$00
	.byte	$44
	.byte	$00
	.byte	$2A
	.byte	$00
	.byte	$4F
	.byte	$4F
	.byte	$3E
	.byte	$3E
	.byte	$2B
	.byte	$2B
	.byte	$23
	.byte	$23
	.byte	$00
	.byte	$00
	.byte	$00
	.byte	$04
	.byte	$00
	.byte	$00
	.byte	$00
	.byte	$29
	.byte	$2A
	.byte	$00
	.byte	$00
	.byte	$29
	.byte	$2A
	.byte	$00
	.byte	$28
	.byte	$00
	.byte	$4F
	.byte	$4F
	.byte	$3E
	.byte	$3E
	.byte	$2B
	.byte	$2B
	.byte	$23
	.byte	$23
	.byte	$00
	.byte	$00
	.byte	$00
	.byte	$00
	.byte	$18
	.byte	$00
	.byte	$02
	.byte	$00
	.byte	$28
	.byte	$00
	.byte	$00
	.byte	$00
	.byte	$28
	.byte	$3A
	.byte	$2A
	.byte	$00
	.byte	$4F
	.byte	$4F
	.byte	$3E
	.byte	$3E
	.byte	$2B
	.byte	$2B
	.byte	$23
	.byte	$23
	.byte	$00
	.byte	$00
	.byte	$00
	.byte	$29
	.byte	$00
	.byte	$00
	.byte	$00
	.byte	$00
	.byte	$00
	.byte	$00
	.byte	$00
	.byte	$29
	.byte	$2A
	.byte	$00
	.byte	$00
	.byte	$03
	.byte	$4F
	.byte	$4F
	.byte	$3E
	.byte	$3E
	.byte	$2B
	.byte	$2B
	.byte	$23
	.byte	$23
	.byte	$00
	.byte	$00
	.byte	$00
	.byte	$00
	.byte	$28
	.byte	$00
	.byte	$2A
	.byte	$00
	.byte	$28
	.byte	$00
	.byte	$2A
	.byte	$00
	.byte	$00
	.byte	$00
	.byte	$18
	.byte	$00
	.byte	$4F
	.byte	$4F
	.byte	$3E
	.byte	$3E
	.byte	$2B
	.byte	$2B
	.byte	$23
	.byte	$23
	.byte	$00
	.byte	$00
	.byte	$28
	.byte	$29
	.byte	$00
	.byte	$00
	.byte	$00
	.byte	$29
	.byte	$3A
	.byte	$00
	.byte	$00
	.byte	$29
	.byte	$00
	.byte	$00
	.byte	$28
	.byte	$29
	.byte	$4F
	.byte	$4F
	.byte	$3E
	.byte	$3E
	.byte	$2B
	.byte	$2B
	.byte	$23
	.byte	$23
	.byte	$00
	.byte	$00
	.byte	$00
	.byte	$00
	.byte	$00
	.byte	$29
	.byte	$2A
	.byte	$00
	.byte	$00
	.byte	$00
	.byte	$2A
	.byte	$00
	.byte	$28
	.byte	$29
	.byte	$00
	.byte	$00
	.byte	$4F
	.byte	$4F
	.byte	$3E
	.byte	$3E
	.byte	$2B
	.byte	$2B
	.byte	$23
	.byte	$23
	.byte	$2A
	.byte	$00
	.byte	$00
	.byte	$29
	.byte	$00
	.byte	$00
	.byte	$00
	.byte	$00
	.byte	$00
	.byte	$3A
	.byte	$00
	.byte	$29
	.byte	$00
	.byte	$00
	.byte	$28
	.byte	$00
	.byte	$4F
	.byte	$4F
	.byte	$3E
	.byte	$3E
	.byte	$2B
	.byte	$2B
	.byte	$23
	.byte	$23
	.byte	$00
	.byte	$00
	.byte	$2A
	.byte	$00
	.byte	$00
	.byte	$00
	.byte	$00
	.byte	$00
	.byte	$28
	.byte	$00
	.byte	$00
	.byte	$54
	.byte	$00
	.byte	$55
	.byte	$50
	.byte	$52
	.byte	$4F
	.byte	$4F
	.byte	$3E
	.byte	$3E
	.byte	$2B
	.byte	$2B
	.byte	$23
	.byte	$23
	.byte	$00
	.byte	$00
	.byte	$28
	.byte	$00
	.byte	$2A
	.byte	$00
	.byte	$00
	.byte	$29
	.byte	$2A
	.byte	$00
	.byte	$00
	.byte	$29
	.byte	$00
	.byte	$00
	.byte	$51
	.byte	$52
	.byte	$4F
	.byte	$4F
	.byte	$3E
	.byte	$3E
	.byte	$2B
	.byte	$2B
	.byte	$23
	.byte	$23
	.byte	$28
	.byte	$29
	.byte	$00
	.byte	$00
	.byte	$28
	.byte	$00
	.byte	$2A
	.byte	$00
	.byte	$28
	.byte	$00
	.byte	$00
	.byte	$00
	.byte	$00
	.byte	$00
	.byte	$52
	.byte	$52
	.byte	$4F
	.byte	$4F
	.byte	$3E
	.byte	$3E
	.byte	$2B
	.byte	$2B
	.byte	$23
	.byte	$23
	.byte	$00
	.byte	$00
	.byte	$28
	.byte	$00
	.byte	$2A
	.byte	$00
	.byte	$00
	.byte	$00
	.byte	$00
	.byte	$00
	.byte	$28
	.byte	$00
	.byte	$00
	.byte	$00
	.byte	$52
	.byte	$52
	.byte	$4F
	.byte	$4F
	.byte	$3E
	.byte	$3E
	.byte	$2B
	.byte	$2B
	.byte	$23
	.byte	$23
	.byte	$28
	.byte	$00
	.byte	$00
	.byte	$00
	.byte	$00
	.byte	$29
	.byte	$2A
	.byte	$00
	.byte	$00
	.byte	$00
	.byte	$2A
	.byte	$00
	.byte	$28
	.byte	$00
	.byte	$52
	.byte	$51
	.byte	$4F
	.byte	$4F
	.byte	$3E
	.byte	$3E
	.byte	$2B
	.byte	$2B
	.byte	$23
	.byte	$23
	.byte	$00
	.byte	$00
	.byte	$00
	.byte	$00
	.byte	$2A
	.byte	$00
	.byte	$28
	.byte	$29
	.byte	$00
	.byte	$00
	.byte	$00
	.byte	$00
	.byte	$00
	.byte	$00
	.byte	$52
	.byte	$53
	.byte	$4F
	.byte	$4F
	.byte	$3E
	.byte	$3E
	.byte	$2B
	.byte	$2B
	.byte	$23
	.byte	$23
	.byte	$00
	.byte	$00
	.byte	$00
	.byte	$00
	.byte	$00
	.byte	$29
	.byte	$2A
	.byte	$00
	.byte	$00
	.byte	$29
	.byte	$00
	.byte	$00
	.byte	$00
	.byte	$00
	.byte	$00
	.byte	$00
	.byte	$4F
	.byte	$4F
	.byte	$3E
	.byte	$3E
	.byte	$2B
	.byte	$2B
	.byte	$23
	.byte	$23
	.byte	$00
	.byte	$00
	.byte	$28
	.byte	$29
	.byte	$2A
	.byte	$00
	.byte	$00
	.byte	$29
	.byte	$00
	.byte	$00
	.byte	$28
	.byte	$29
	.byte	$00
	.byte	$00
	.byte	$50
	.byte	$52
	.byte	$4F
	.byte	$4F
	.byte	$3E
	.byte	$3E
	.byte	$2B
	.byte	$2B
	.byte	$23
	.byte	$23
	.byte	$28
	.byte	$00
	.byte	$00
	.byte	$00
	.byte	$00
	.byte	$00
	.byte	$00
	.byte	$00
	.byte	$28
	.byte	$29
	.byte	$00
	.byte	$00
	.byte	$00
	.byte	$29
	.byte	$51
	.byte	$51
	.byte	$4F
	.byte	$4F
	.byte	$3E
	.byte	$3E
	.byte	$2B
	.byte	$2B
	.byte	$23
	.byte	$23
	.byte	$2A
	.byte	$00
	.byte	$00
	.byte	$00
	.byte	$2A
	.byte	$00
	.byte	$00
	.byte	$00
	.byte	$2A
	.byte	$00
	.byte	$00
	.byte	$00
	.byte	$00
	.byte	$00
	.byte	$52
	.byte	$53
	.byte	$4F
	.byte	$4F
	.byte	$3E
	.byte	$3E
	.byte	$2B
	.byte	$2B
	.byte	$23
	.byte	$23
	.byte	$00
	.byte	$29
	.byte	$2A
	.byte	$00
	.byte	$00
	.byte	$29
	.byte	$2A
	.byte	$00
	.byte	$00
	.byte	$18
	.byte	$03
	.byte	$44
	.byte	$02
	.byte	$29
	.byte	$03
	.byte	$03
	.byte	$4F
	.byte	$4F
	.byte	$3E
	.byte	$3E
	.byte	$2B
	.byte	$2B
	.byte	$23
	.byte	$23
	.byte	$00
	.byte	$00
	.byte	$00
	.byte	$00
	.byte	$00
	.byte	$03
	.byte	$03
	.byte	$01
	.byte	$02
	.byte	$41
	.byte	$28
	.byte	$41
	.byte	$00
	.byte	$41
	.byte	$03
	.byte	$41
	.byte	$4F
	.byte	$4F
	.byte	$3E
	.byte	$3E
	.byte	$2B
	.byte	$2B
	.byte	$23
	.byte	$23
	.byte	$28
	.byte	$00
	.byte	$2A
	.byte	$00
	.byte	$18
	.byte	$00
	.byte	$01
	.byte	$03
	.byte	$01
	.byte	$01
	.byte	$41
	.byte	$01
	.byte	$41
	.byte	$01
	.byte	$01
	.byte	$01
	.byte	$4F
	.byte	$4F
	.byte	$3E
	.byte	$3E
	.byte	$2B
	.byte	$2B
	.byte	$23
	.byte	$23
	.byte	$00
	.byte	$00
	.byte	$00
	.byte	$00
	.byte	$2A
	.byte	$00
	.byte	$00
	.byte	$29
	.byte	$18
	.byte	$00
	.byte	$41
	.byte	$03
	.byte	$01
	.byte	$41
	.byte	$01
	.byte	$01
	.byte	$4F
	.byte	$4F
	.byte	$3E
	.byte	$3E
	.byte	$2B
	.byte	$2B
	.byte	$23
	.byte	$23
	.byte	$00
	.byte	$00
	.byte	$00
	.byte	$00
	.byte	$28
	.byte	$29
	.byte	$2A
	.byte	$00
	.byte	$28
	.byte	$29
	.byte	$03
	.byte	$00
	.byte	$01
	.byte	$18
	.byte	$01
	.byte	$01
	.byte	$4F
	.byte	$4F
	.byte	$3E
	.byte	$3E
	.byte	$2B
	.byte	$2B
	.byte	$23
	.byte	$23
	.byte	$2A
	.byte	$00
	.byte	$28
	.byte	$29
	.byte	$2A
	.byte	$00
	.byte	$00
	.byte	$00
	.byte	$2A
	.byte	$00
	.byte	$28
	.byte	$00
	.byte	$18
	.byte	$18
	.byte	$01
	.byte	$01
	.byte	$4F
	.byte	$4F
	.byte	$3E
	.byte	$3E
	.byte	$2B
	.byte	$2B
	.byte	$23
	.byte	$23
	.byte	$28
	.byte	$00
	.byte	$2A
	.byte	$00
	.byte	$00
	.byte	$29
	.byte	$00
	.byte	$00
	.byte	$00
	.byte	$00
	.byte	$00
	.byte	$00
	.byte	$03
	.byte	$18
	.byte	$41
	.byte	$41
	.byte	$4F
	.byte	$4F
	.byte	$3E
	.byte	$3E
	.byte	$2B
	.byte	$2B
	.byte	$23
	.byte	$23
	.byte	$2A
	.byte	$00
	.byte	$28
	.byte	$00
	.byte	$00
	.byte	$00
	.byte	$28
	.byte	$00
	.byte	$2A
	.byte	$00
	.byte	$28
	.byte	$00
	.byte	$18
	.byte	$03
	.byte	$41
	.byte	$01
	.byte	$4F
	.byte	$4F
	.byte	$3E
	.byte	$3E
	.byte	$2B
	.byte	$2B
	.byte	$23
	.byte	$23
	.byte	$28
	.byte	$00
	.byte	$2A
	.byte	$00
	.byte	$00
	.byte	$00
	.byte	$2A
	.byte	$00
	.byte	$00
	.byte	$00
	.byte	$00
	.byte	$00
	.byte	$00
	.byte	$29
	.byte	$18
	.byte	$03
	.byte	$4F
	.byte	$4F
	.byte	$3E
	.byte	$3E
	.byte	$2B
	.byte	$2B
	.byte	$23
	.byte	$23
	.byte	$2A
	.byte	$00
	.byte	$00
	.byte	$29
	.byte	$2A
	.byte	$00
	.byte	$00
	.byte	$29
	.byte	$2A
	.byte	$00
	.byte	$28
	.byte	$00
	.byte	$2A
	.byte	$00
	.byte	$03
	.byte	$03
	.byte	$4F
	.byte	$4F
	.byte	$3E
	.byte	$3E
	.byte	$2B
	.byte	$2B
	.byte	$23
	.byte	$23
	.byte	$28
	.byte	$00
	.byte	$2A
	.byte	$00
	.byte	$28
	.byte	$29
	.byte	$2A
	.byte	$00
	.byte	$00
	.byte	$29
	.byte	$00
	.byte	$00
	.byte	$00
	.byte	$00
	.byte	$03
	.byte	$18
	.byte	$4F
	.byte	$4F
	.byte	$3E
	.byte	$3E
	.byte	$2B
	.byte	$2B
	.byte	$23
	.byte	$23
	.byte	$2A
	.byte	$00
	.byte	$28
	.byte	$00
	.byte	$00
	.byte	$00
	.byte	$28
	.byte	$00
	.byte	$2A
	.byte	$00
	.byte	$54
	.byte	$29
	.byte	$55
	.byte	$00
	.byte	$03
	.byte	$03
	.byte	$4F
	.byte	$4F
	.byte	$3E
	.byte	$3E
	.byte	$2B
	.byte	$2B
	.byte	$23
	.byte	$23
	.byte	$28
	.byte	$00
	.byte	$2A
	.byte	$00
	.byte	$00
	.byte	$29
	.byte	$2A
	.byte	$00
	.byte	$00
	.byte	$00
	.byte	$2A
	.byte	$54
	.byte	$00
	.byte	$55
	.byte	$18
	.byte	$03
	.byte	$4F
	.byte	$4F
	.byte	$3E
	.byte	$3E
	.byte	$2B
	.byte	$2B
	.byte	$23
	.byte	$23
	.byte	$00
	.byte	$00
	.byte	$28
	.byte	$29
	.byte	$00
	.byte	$00
	.byte	$28
	.byte	$29
	.byte	$2A
	.byte	$00
	.byte	$00
	.byte	$29
	.byte	$00
	.byte	$00
	.byte	$18
	.byte	$03
	.byte	$4F
	.byte	$4F
	.byte	$3E
	.byte	$3E
	.byte	$2B
	.byte	$2B
	.byte	$23
	.byte	$23
	.byte	$28
	.byte	$00
	.byte	$2A
	.byte	$00
	.byte	$00
	.byte	$00
	.byte	$00
	.byte	$00
	.byte	$28
	.byte	$00
	.byte	$54
	.byte	$00
	.byte	$55
	.byte	$00
	.byte	$03
	.byte	$03
	.byte	$4F
	.byte	$4F
	.byte	$3E
	.byte	$3E
	.byte	$2B
	.byte	$2B
	.byte	$23
	.byte	$23
	.byte	$00
	.byte	$00
	.byte	$28
	.byte	$00
	.byte	$2A
	.byte	$00
	.byte	$00
	.byte	$00
	.byte	$00
	.byte	$00
	.byte	$28
	.byte	$29
	.byte	$00
	.byte	$00
	.byte	$18
	.byte	$18
	.byte	$4F
	.byte	$4F
	.byte	$3E
	.byte	$3E
	.byte	$2B
	.byte	$2B
	.byte	$23
	.byte	$23
	.byte	$00
	.byte	$00
	.byte	$00
	.byte	$00
	.byte	$00
	.byte	$00
	.byte	$00
	.byte	$00
	.byte	$00
	.byte	$29
	.byte	$00
	.byte	$00
	.byte	$00
	.byte	$00
	.byte	$00
	.byte	$00
	.byte	$4F
	.byte	$4F
	.byte	$3E
	.byte	$3E
	.byte	$2B
	.byte	$2B
	.byte	$23
	.byte	$23
	.byte	$00
	.byte	$00
	.byte	$28
	.byte	$00
	.byte	$00
	.byte	$00
	.byte	$28
	.byte	$00
	.byte	$2A
	.byte	$00
	.byte	$00
	.byte	$03
	.byte	$00
	.byte	$01
	.byte	$28
	.byte	$41
	.byte	$4F
	.byte	$4F
	.byte	$3E
	.byte	$3E
	.byte	$2B
	.byte	$2B
	.byte	$23
	.byte	$23
	.byte	$00
	.byte	$00
	.byte	$00
	.byte	$00
	.byte	$00
	.byte	$29
	.byte	$00
	.byte	$00
	.byte	$00
	.byte	$00
	.byte	$03
	.byte	$18
	.byte	$41
	.byte	$01
	.byte	$41
	.byte	$01
	.byte	$4F
	.byte	$4F
	.byte	$3E
	.byte	$3E
	.byte	$2B
	.byte	$2B
	.byte	$23
	.byte	$23
	.byte	$2A
	.byte	$00
	.byte	$00
	.byte	$00
	.byte	$2A
	.byte	$00
	.byte	$00
	.byte	$00
	.byte	$2A
	.byte	$00
	.byte	$00
	.byte	$00
	.byte	$00
	.byte	$00
	.byte	$24
	.byte	$24
	.byte	$4F
	.byte	$4F
	.byte	$3E
	.byte	$3E
	.byte	$2B
	.byte	$2B
	.byte	$23
	.byte	$23
	.byte	$00
	.byte	$29
	.byte	$00
	.byte	$00
	.byte	$28
	.byte	$00
	.byte	$00
	.byte	$00
	.byte	$00
	.byte	$00
	.byte	$2A
	.byte	$00
	.byte	$28
	.byte	$29
	.byte	$03
	.byte	$03
	.byte	$4F
	.byte	$4F
	.byte	$3E
	.byte	$3E
	.byte	$2B
	.byte	$2B
	.byte	$23
	.byte	$23
	.byte	$00
	.byte	$00
	.byte	$28
	.byte	$00
	.byte	$2A
	.byte	$00
	.byte	$28
	.byte	$00
	.byte	$2A
	.byte	$00
	.byte	$28
	.byte	$29
	.byte	$00
	.byte	$00
	.byte	$18
	.byte	$18
	.byte	$4F
	.byte	$4F
	.byte	$3E
	.byte	$3E
	.byte	$2B
	.byte	$2B
	.byte	$23
	.byte	$23
	.byte	$28
	.byte	$00
	.byte	$00
	.byte	$00
	.byte	$28
	.byte	$00
	.byte	$00
	.byte	$00
	.byte	$00
	.byte	$00
	.byte	$2A
	.byte	$00
	.byte	$00
	.byte	$00
	.byte	$03
	.byte	$03
	.byte	$4F
	.byte	$4F
	.byte	$3E
	.byte	$3E
	.byte	$2B
	.byte	$2B
	.byte	$23
	.byte	$23
	.byte	$2A
	.byte	$00
	.byte	$28
	.byte	$00
	.byte	$00
	.byte	$00
	.byte	$00
	.byte	$29
	.byte	$2A
	.byte	$00
	.byte	$28
	.byte	$00
	.byte	$00
	.byte	$00
	.byte	$18
	.byte	$03
	.byte	$4F
	.byte	$4F
	.byte	$3E
	.byte	$3E
	.byte	$2B
	.byte	$2B
	.byte	$23
	.byte	$23
	.byte	$28
	.byte	$29
	.byte	$00
	.byte	$00
	.byte	$00
	.byte	$00
	.byte	$00
	.byte	$00
	.byte	$28
	.byte	$00
	.byte	$2A
	.byte	$00
	.byte	$00
	.byte	$29
	.byte	$03
	.byte	$18
	.byte	$4F
	.byte	$4F
	.byte	$3E
	.byte	$3E
	.byte	$2B
	.byte	$2B
	.byte	$23
	.byte	$23
	.byte	$2A
	.byte	$00
	.byte	$00
	.byte	$00
	.byte	$00
	.byte	$00
	.byte	$00
	.byte	$00
	.byte	$00
	.byte	$00
	.byte	$00
	.byte	$29
	.byte	$2A
	.byte	$00
	.byte	$18
	.byte	$03
	.byte	$4F
	.byte	$4F
	.byte	$3E
	.byte	$3E
	.byte	$2B
	.byte	$2B
	.byte	$23
	.byte	$23
	.byte	$00
	.byte	$00
	.byte	$00
	.byte	$00
	.byte	$00
	.byte	$00
	.byte	$2A
	.byte	$00
	.byte	$00
	.byte	$00
	.byte	$00
	.byte	$00
	.byte	$28
	.byte	$29
	.byte	$03
	.byte	$03
	.byte	$4F
	.byte	$4F
	.byte	$3E
	.byte	$3E
	.byte	$2B
	.byte	$2B
	.byte	$23
	.byte	$23
	.byte	$2A
	.byte	$00
	.byte	$00
	.byte	$29
	.byte	$00
	.byte	$00
	.byte	$00
	.byte	$29
	.byte	$2A
	.byte	$00
	.byte	$00
	.byte	$29
	.byte	$00
	.byte	$18
	.byte	$03
	.byte	$41
	.byte	$4F
	.byte	$4F
	.byte	$3E
	.byte	$3E
	.byte	$2B
	.byte	$2B
	.byte	$23
	.byte	$23
	.byte	$00
	.byte	$29
	.byte	$00
	.byte	$00
	.byte	$00
	.byte	$29
	.byte	$2A
	.byte	$00
	.byte	$28
	.byte	$18
	.byte	$18
	.byte	$41
	.byte	$01
	.byte	$41
	.byte	$01
	.byte	$41
	.byte	$4F
	.byte	$4F
	.byte	$3E
	.byte	$3E
	.byte	$2B
	.byte	$2B
	.byte	$23
	.byte	$23
	.byte	$2A
	.byte	$00
	.byte	$00
	.byte	$00
	.byte	$00
	.byte	$00
	.byte	$18
	.byte	$00
	.byte	$01
	.byte	$00
	.byte	$01
	.byte	$00
	.byte	$41
	.byte	$03
	.byte	$01
	.byte	$01
	.byte	$4F
	.byte	$4F
	.byte	$3E
	.byte	$3E
	.byte	$2B
	.byte	$2B
	.byte	$23
	.byte	$23
	.byte	$28
	.byte	$00
	.byte	$00
	.byte	$00
	.byte	$00
	.byte	$00
	.byte	$00
	.byte	$00
	.byte	$28
	.byte	$00
	.byte	$00
	.byte	$00
	.byte	$00
	.byte	$00
	.byte	$18
	.byte	$03
	.byte	$4F
	.byte	$4F
	.byte	$3E
	.byte	$3E
	.byte	$2B
	.byte	$2B
	.byte	$23
	.byte	$23
	.byte	$00
	.byte	$00
	.byte	$43
	.byte	$00
	.byte	$06
	.byte	$00
	.byte	$06
	.byte	$00
	.byte	$06
	.byte	$00
	.byte	$06
	.byte	$00
	.byte	$06
	.byte	$00
	.byte	$18
	.byte	$00
	.byte	$4F
	.byte	$4F
	.byte	$3E
	.byte	$3E
	.byte	$2B
	.byte	$2B
	.byte	$23
	.byte	$05
	.byte	$00
	.byte	$06
	.byte	$00
	.byte	$06
	.byte	$00
	.byte	$06
	.byte	$00
	.byte	$06
	.byte	$00
	.byte	$06
	.byte	$00
	.byte	$06
	.byte	$00
	.byte	$07
	.byte	$03
	.byte	$03
	.byte	$4F
	.byte	$4F
	.byte	$3E
	.byte	$3E
	.byte	$2B
	.byte	$2B
	.byte	$23
	.byte	$23
	.byte	$00
	.byte	$00
	.byte	$28
	.byte	$29
	.byte	$00
	.byte	$00
	.byte	$28
	.byte	$00
	.byte	$00
	.byte	$00
	.byte	$00
	.byte	$29
	.byte	$2A
	.byte	$00
	.byte	$03
	.byte	$03
	.byte	$4F
	.byte	$4F
	.byte	$3E
	.byte	$3E
	.byte	$2B
	.byte	$2B
	.byte	$23
	.byte	$23
	.byte	$00
	.byte	$29
	.byte	$2A
	.byte	$00
	.byte	$00
	.byte	$00
	.byte	$2A
	.byte	$00
	.byte	$28
	.byte	$29
	.byte	$00
	.byte	$00
	.byte	$00
	.byte	$00
	.byte	$18
	.byte	$03
	.byte	$4F
	.byte	$4F
	.byte	$3E
	.byte	$3E
	.byte	$2B
	.byte	$2B
	.byte	$23
	.byte	$23
	.byte	$00
	.byte	$00
	.byte	$3A
	.byte	$29
	.byte	$2A
	.byte	$00
	.byte	$00
	.byte	$29
	.byte	$2A
	.byte	$00
	.byte	$00
	.byte	$29
	.byte	$00
	.byte	$00
	.byte	$18
	.byte	$18
	.byte	$4F
	.byte	$4F
	.byte	$3E
	.byte	$3E
	.byte	$2B
	.byte	$2B
	.byte	$3A
	.byte	$23
	.byte	$28
	.byte	$00
	.byte	$00
	.byte	$00
	.byte	$00
	.byte	$00
	.byte	$3A
	.byte	$00
	.byte	$28
	.byte	$00
	.byte	$2A
	.byte	$00
	.byte	$00
	.byte	$29
	.byte	$40
	.byte	$40
	.byte	$4F
	.byte	$4F
	.byte	$3E
	.byte	$3E
	.byte	$2B
	.byte	$2B
	.byte	$23
	.byte	$23
	.byte	$2A
	.byte	$00
	.byte	$28
	.byte	$00
	.byte	$00
	.byte	$00
	.byte	$00
	.byte	$00
	.byte	$00
	.byte	$00
	.byte	$26
	.byte	$29
	.byte	$00
	.byte	$00
	.byte	$40
	.byte	$40
	.byte	$4F
	.byte	$4F
	.byte	$3E
	.byte	$3E
	.byte	$2B
	.byte	$2B
	.byte	$3A
	.byte	$23
	.byte	$00
	.byte	$29
	.byte	$2A
	.byte	$00
	.byte	$00
	.byte	$29
	.byte	$00
	.byte	$00
	.byte	$28
	.byte	$00
	.byte	$00
	.byte	$00
	.byte	$28
	.byte	$00
	.byte	$40
	.byte	$40
	.byte	$4F
	.byte	$4F
	.byte	$3E
	.byte	$3E
	.byte	$2B
	.byte	$2B
	.byte	$23
	.byte	$23
	.byte	$2A
	.byte	$00
	.byte	$00
	.byte	$00
	.byte	$00
	.byte	$00
	.byte	$28
	.byte	$29
	.byte	$00
	.byte	$00
	.byte	$28
	.byte	$00
	.byte	$00
	.byte	$00
	.byte	$40
	.byte	$40
	.byte	$4F
	.byte	$4F
	.byte	$3E
	.byte	$3E
	.byte	$2B
	.byte	$2B
	.byte	$23
	.byte	$23
	.byte	$00
	.byte	$00
	.byte	$00
	.byte	$03
	.byte	$00
	.byte	$41
	.byte	$00
	.byte	$41
	.byte	$00
	.byte	$01
	.byte	$00
	.byte	$41
	.byte	$00
	.byte	$01
	.byte	$40
	.byte	$01
	.byte	$4F
	.byte	$41
	.byte	$3E
	.byte	$01
	.byte	$2B
	.byte	$41
	.byte	$23
	.byte	$41
	.byte	$00
	.byte	$41
	.byte	$00
	.byte	$01
	.byte	$00
	.byte	$41
	.byte	$00
	.byte	$41
	.byte	$00
	.byte	$01
	.byte	$28
	.byte	$01
	.byte	$00
	.byte	$41
	.byte	$28
	.byte	$41
	.byte	$01
	.byte	$4F
	.byte	$01
	.byte	$3E
	.byte	$41
	.byte	$2B
	.byte	$01
	.byte	$23
	.byte	$01
	.byte	$29
	.byte	$01
	.byte	$00
	.byte	$41
	.byte	$00
	.byte	$41
	.byte	$00
	.byte	$01
	.byte	$29
	.byte	$01
	.byte	$00
	.byte	$41
	.byte	$29
	.byte	$01
	.byte	$00
	.byte	$4F
	.byte	$4F
	.byte	$3E
	.byte	$3E
	.byte	$2B
	.byte	$2B
	.byte	$23
	.byte	$23
	.byte	$00
	.byte	$00
	.byte	$00
	.byte	$00
	.byte	$2A
	.byte	$00
	.byte	$28
	.byte	$29
	.byte	$00
	.byte	$00
	.byte	$28
	.byte	$29
	.byte	$00
	.byte	$00
	.byte	$28
	.byte	$00
	.byte	$4F
	.byte	$4F
	.byte	$3E
	.byte	$3E
	.byte	$2B
	.byte	$2B
	.byte	$23
	.byte	$23
	.byte	$00
	.byte	$00
	.byte	$00
	.byte	$00
	.byte	$00
	.byte	$29
	.byte	$00
	.byte	$00
	.byte	$00
	.byte	$04
	.byte	$2A
	.byte	$00
	.byte	$00
	.byte	$00
	.byte	$2A
	.byte	$00
	.byte	$4F
	.byte	$4F
	.byte	$3E
	.byte	$3E
	.byte	$2B
	.byte	$2B
	.byte	$23
	.byte	$23
	.byte	$54
	.byte	$00
	.byte	$55
	.byte	$00
	.byte	$05
	.byte	$00
	.byte	$07
	.byte	$22
	.byte	$26
	.byte	$04
	.byte	$00
	.byte	$00
	.byte	$00
	.byte	$00
	.byte	$00
	.byte	$00
	.byte	$4F
	.byte	$4F
	.byte	$3E
	.byte	$3E
	.byte	$2B
	.byte	$2B
	.byte	$23
	.byte	$23
	.byte	$28
	.byte	$29
	.byte	$2A
	.byte	$00
	.byte	$00
	.byte	$29
	.byte	$37
	.byte	$22
	.byte	$04
	.byte	$04
	.byte	$00
	.byte	$00
	.byte	$00
	.byte	$00
	.byte	$00
	.byte	$00
	.byte	$4F
	.byte	$4F
	.byte	$3E
	.byte	$3E
	.byte	$2B
	.byte	$2B
	.byte	$23
	.byte	$23
	.byte	$00
	.byte	$00
	.byte	$00
	.byte	$29
	.byte	$05
	.byte	$00
	.byte	$07
	.byte	$00
	.byte	$26
	.byte	$3A
	.byte	$00
	.byte	$00
	.byte	$00
	.byte	$00
	.byte	$00
	.byte	$00
	.byte	$4F
	.byte	$4F
	.byte	$3E
	.byte	$3E
	.byte	$2B
	.byte	$2B
	.byte	$23
	.byte	$23
	.byte	$00
	.byte	$29
	.byte	$2A
	.byte	$00
	.byte	$28
	.byte	$00
	.byte	$00
	.byte	$00
	.byte	$00
	.byte	$28
	.byte	$00
	.byte	$29
	.byte	$00
	.byte	$28
	.byte	$00
	.byte	$00
	.byte	$4F
	.byte	$4F
	.byte	$3E
	.byte	$3E
	.byte	$2B
	.byte	$2B
	.byte	$23
	.byte	$23
	.byte	$2A
	.byte	$00
	.byte	$00
	.byte	$29
	.byte	$2A
	.byte	$00
	.byte	$00
	.byte	$29
	.byte	$00
	.byte	$00
	.byte	$00
	.byte	$00
	.byte	$00
	.byte	$00
	.byte	$00
	.byte	$18
	.byte	$4F
	.byte	$4F
	.byte	$3E
	.byte	$3E
	.byte	$2B
	.byte	$2B
	.byte	$23
	.byte	$23
	.byte	$28
	.byte	$00
	.byte	$2A
	.byte	$00
	.byte	$28
	.byte	$29
	.byte	$00
	.byte	$00
	.byte	$28
	.byte	$29
	.byte	$00
	.byte	$00
	.byte	$00
	.byte	$29
	.byte	$03
	.byte	$18
	.byte	$4F
	.byte	$4F
	.byte	$3E
	.byte	$3E
	.byte	$2B
	.byte	$4E
	.byte	$0C
	.byte	$00
	.byte	$00
	.byte	$00
	.byte	$00
	.byte	$29
	.byte	$2A
	.byte	$00
	.byte	$00
	.byte	$00
	.byte	$2A
	.byte	$00
	.byte	$28
	.byte	$29
	.byte	$00
	.byte	$00
	.byte	$18
	.byte	$03
	.byte	$4F
	.byte	$08
	.byte	$3E
	.byte	$3C
	.byte	$50
	.byte	$52
	.byte	$00
	.byte	$00
	.byte	$28
	.byte	$00
	.byte	$2A
	.byte	$00
	.byte	$00
	.byte	$00
	.byte	$2A
	.byte	$00
	.byte	$28
	.byte	$29
	.byte	$2A
	.byte	$22
	.byte	$08
	.byte	$08
	.byte	$03
	.byte	$18
	.byte	$00
	.byte	$00
	.byte	$3D
	.byte	$00
	.byte	$52
	.byte	$51
	.byte	$00
	.byte	$00
	.byte	$00
	.byte	$00
	.byte	$28
	.byte	$00
	.byte	$00
	.byte	$00
	.byte	$00
	.byte	$00
	.byte	$2A
	.byte	$00
	.byte	$1C
	.byte	$22
	.byte	$25
	.byte	$08
	.byte	$18
	.byte	$18
	.byte	$0B
	.byte	$2B
	.byte	$00
	.byte	$0B
	.byte	$52
	.byte	$52
	.byte	$05
	.byte	$00
	.byte	$06
	.byte	$29
	.byte	$63
	.byte	$00
	.byte	$00
	.byte	$29
	.byte	$00
	.byte	$00
	.byte	$43
	.byte	$00
	.byte	$25
	.byte	$3C
	.byte	$08
	.byte	$25
	.byte	$03
	.byte	$18
	.byte	$2B
	.byte	$2B
	.byte	$0E
	.byte	$0E
	.byte	$52
	.byte	$52
	.byte	$00
	.byte	$00
	.byte	$2A
	.byte	$00
	.byte	$00
	.byte	$00
	.byte	$2A
	.byte	$00
	.byte	$28
	.byte	$00
	.byte	$2A
	.byte	$00
	.byte	$3D
	.byte	$20
	.byte	$08
	.byte	$08
	.byte	$03
	.byte	$03
	.byte	$2B
	.byte	$2B
	.byte	$0E
	.byte	$0E
	.byte	$52
	.byte	$52
	.byte	$00
	.byte	$05
	.byte	$00
	.byte	$14
	.byte	$00
	.byte	$00
	.byte	$00
	.byte	$00
	.byte	$00
	.byte	$43
	.byte	$28
	.byte	$06
	.byte	$25
	.byte	$3C
	.byte	$3C
	.byte	$3D
	.byte	$18
	.byte	$03
	.byte	$2B
	.byte	$2B
	.byte	$0E
	.byte	$0E
	.byte	$52
	.byte	$52
	.byte	$00
	.byte	$00
	.byte	$00
	.byte	$00
	.byte	$28
	.byte	$00
	.byte	$2A
	.byte	$00
	.byte	$00
	.byte	$29
	.byte	$00
	.byte	$00
	.byte	$3D
	.byte	$20
	.byte	$08
	.byte	$08
	.byte	$03
	.byte	$18
	.byte	$2B
	.byte	$2B
	.byte	$0E
	.byte	$0E
	.byte	$52
	.byte	$51
	.byte	$00
	.byte	$00
	.byte	$28
	.byte	$29
	.byte	$2A
	.byte	$00
	.byte	$00
	.byte	$00
	.byte	$2A
	.byte	$00
	.byte	$00
	.byte	$00
	.byte	$08
	.byte	$25
	.byte	$20
	.byte	$3C
	.byte	$18
	.byte	$03
	.byte	$2B
	.byte	$2B
	.byte	$0E
	.byte	$0C
	.byte	$52
	.byte	$52
	.byte	$05
	.byte	$00
	.byte	$14
	.byte	$00
	.byte	$28
	.byte	$29
	.byte	$00
	.byte	$00
	.byte	$00
	.byte	$00
	.byte	$43
	.byte	$00
	.byte	$08
	.byte	$3C
	.byte	$3D
	.byte	$25
	.byte	$03
	.byte	$18
	.byte	$2B
	.byte	$2B
	.byte	$0F
	.byte	$0B
	.byte	$52
	.byte	$52
	.byte	$00
	.byte	$00
	.byte	$00
	.byte	$00
	.byte	$2A
	.byte	$00
	.byte	$00
	.byte	$29
	.byte	$2A
	.byte	$54
	.byte	$00
	.byte	$55
	.byte	$3D
	.byte	$08
	.byte	$20
	.byte	$3C
	.byte	$18
	.byte	$03
	.byte	$2B
	.byte	$2B
	.byte	$0E
	.byte	$0E
	.byte	$51
	.byte	$52
	.byte	$00
	.byte	$00
	.byte	$2A
	.byte	$00
	.byte	$00
	.byte	$00
	.byte	$00
	.byte	$00
	.byte	$28
	.byte	$29
	.byte	$2A
	.byte	$00
	.byte	$08
	.byte	$08
	.byte	$3D
	.byte	$3C
	.byte	$03
	.byte	$18
	.byte	$2B
	.byte	$0C
	.byte	$0C
	.byte	$3C
	.byte	$52
	.byte	$52
	.byte	$05
	.byte	$00
	.byte	$06
	.byte	$29
	.byte	$06
	.byte	$00
	.byte	$14
	.byte	$00
	.byte	$00
	.byte	$00
	.byte	$00
	.byte	$00
	.byte	$3C
	.byte	$3D
	.byte	$3D
	.byte	$20
	.byte	$03
	.byte	$03
	.byte	$20
	.byte	$00
	.byte	$3D
	.byte	$00
	.byte	$52
	.byte	$53
	.byte	$00
	.byte	$00
	.byte	$00
	.byte	$00
	.byte	$00
	.byte	$00
	.byte	$2A
	.byte	$00
	.byte	$00
	.byte	$29
	.byte	$00
	.byte	$00
	.byte	$08
	.byte	$00
	.byte	$3C
	.byte	$3D
	.byte	$18
	.byte	$03
	.byte	$00
	.byte	$00
	.byte	$00
	.byte	$00
	.byte	$00
	.byte	$00
	.byte	$00
	.byte	$00
	.byte	$28
	.byte	$00
	.byte	$2A
	.byte	$00
	.byte	$00
	.byte	$00
	.byte	$00
	.byte	$00
	.byte	$28
	.byte	$29
	.byte	$2A
	.byte	$0D
	.byte	$09
	.byte	$2B
	.byte	$03
	.byte	$18
	.byte	$00
	.byte	$00
	.byte	$00
	.byte	$00
	.byte	$00
	.byte	$00
	.byte	$00
	.byte	$00
	.byte	$00
	.byte	$00
	.byte	$00
	.byte	$00
	.byte	$00
	.byte	$00
	.byte	$00
	.byte	$00
	.byte	$00
	.byte	$09
	.byte	$09
	.byte	$2B
	.byte	$2B
	.byte	$2B
	.byte	$03
	.byte	$18
	.byte	$00
	.byte	$00
	.byte	$00
	.byte	$00
	.byte	$00
	.byte	$00
	.byte	$00
	.byte	$00
	.byte	$00
	.byte	$00
	.byte	$00
	.byte	$00
	.byte	$00
	.byte	$00
	.byte	$0D
	.byte	$09
	.byte	$2B
	.byte	$2B
	.byte	$2B
	.byte	$2B
	.byte	$2B
	.byte	$2B
	.byte	$18
	.byte	$18
	.byte	$00
	.byte	$00
	.byte	$00
	.byte	$00
	.byte	$00
	.byte	$00
	.byte	$00
	.byte	$00
	.byte	$00
	.byte	$00
	.byte	$00
	.byte	$00
	.byte	$0D
	.byte	$09
	.byte	$2B
	.byte	$2B
	.byte	$2B
	.byte	$2B
	.byte	$2B
	.byte	$2B
	.byte	$2B
	.byte	$2B
	.byte	$03
	.byte	$03
	.byte	$50
	.byte	$52
	.byte	$00
	.byte	$00
	.byte	$00
	.byte	$00
	.byte	$00
	.byte	$00
	.byte	$00
	.byte	$50
	.byte	$00
	.byte	$00
	.byte	$05
	.byte	$0D
	.byte	$06
	.byte	$2B
	.byte	$06
	.byte	$05
	.byte	$06
	.byte	$06
	.byte	$07
	.byte	$07
	.byte	$03
	.byte	$03
	.byte	$52
	.byte	$52
	.byte	$60
	.byte	$00
	.byte	$00
	.byte	$00
	.byte	$00
	.byte	$00
	.byte	$1B
	.byte	$52
	.byte	$00
	.byte	$05
	.byte	$09
	.byte	$14
	.byte	$2B
	.byte	$2B
	.byte	$2B
	.byte	$43
	.byte	$2B
	.byte	$06
	.byte	$2B
	.byte	$07
	.byte	$03
	.byte	$18
	.byte	$51
	.byte	$52
	.byte	$61
	.byte	$00
	.byte	$00
	.byte	$00
	.byte	$00
	.byte	$00
	.byte	$19
	.byte	$51
	.byte	$2B
	.byte	$2B
	.byte	$2B
	.byte	$2B
	.byte	$2B
	.byte	$2B
	.byte	$2B
	.byte	$2B
	.byte	$2B
	.byte	$2B
	.byte	$2B
	.byte	$2B
	.byte	$18
	.byte	$03
	.byte	$52
	.byte	$52
	.byte	$62
	.byte	$00
	.byte	$00
	.byte	$00
	.byte	$00
	.byte	$00
	.byte	$1A
	.byte	$52
	.byte	$2B
	.byte	$2B
	.byte	$2B
	.byte	$2B
	.byte	$43
	.byte	$2B
	.byte	$06
	.byte	$2B
	.byte	$06
	.byte	$2B
	.byte	$07
	.byte	$2B
	.byte	$18
	.byte	$03
	.byte	$52
	.byte	$51
	.byte	$00
	.byte	$0B
	.byte	$00
	.byte	$00
	.byte	$00
	.byte	$5F
	.byte	$52
	.byte	$52
	.byte	$2B
	.byte	$05
	.byte	$2B
	.byte	$06
	.byte	$2B
	.byte	$06
	.byte	$2B
	.byte	$06
	.byte	$2B
	.byte	$06
	.byte	$2B
	.byte	$07
	.byte	$03
	.byte	$18
	.byte	$51
	.byte	$52
	.byte	$2B
	.byte	$08
	.byte	$0B
	.byte	$20
	.byte	$00
	.byte	$08
	.byte	$52
	.byte	$51
	.byte	$2B
	.byte	$01
	.byte	$2B
	.byte	$01
	.byte	$2B
	.byte	$41
	.byte	$2B
	.byte	$01
	.byte	$2B
	.byte	$41
	.byte	$2B
	.byte	$01
	.byte	$18
	.byte	$01
	.byte	$25
	.byte	$08
	.byte	$3C
	.byte	$3D
	.byte	$08
	.byte	$3C
	.byte	$20
	.byte	$25
	.byte	$3C
	.byte	$3D
	.byte	$08
	.byte	$01
	.byte	$41
	.byte	$01
	.byte	$20
	.byte	$41
	.byte	$01
	.byte	$41
	.byte	$44
	.byte	$02
	.byte	$17
	.byte	$16
	.byte	$2A
	.byte	$00
	.byte	$3C
	.byte	$3D
	.byte	$41
	.byte	$41
	.byte	$3D
	.byte	$01
	.byte	$01
	.byte	$41
	.byte	$01
	.byte	$44
	.byte	$01
	.byte	$09
	.byte	$01
	.byte	$2B
	.byte	$02
	.byte	$2B
	.byte	$2B
	.byte	$2B
	.byte	$2B
	.byte	$0C
	.byte	$03
	.byte	$00
	.byte	$41
	.byte	$00
	.byte	$41
	.byte	$41
	.byte	$01
	.byte	$44
	.byte	$01
	.byte	$17
	.byte	$44
	.byte	$00
	.byte	$09
	.byte	$0A
	.byte	$2B
	.byte	$2B
	.byte	$2B
	.byte	$2B
	.byte	$2B
	.byte	$0C
	.byte	$0C
	.byte	$00
	.byte	$00
	.byte	$00
	.byte	$00
	.byte	$00
	.byte	$00
	.byte	$00
	.byte	$02
	.byte	$44
	.byte	$00
	.byte	$00
	.byte	$00
	.byte	$00
	.byte	$38
	.byte	$00
	.byte	$39
	.byte	$0D
	.byte	$39
	.byte	$2B
	.byte	$39
	.byte	$0C
	.byte	$39
	.byte	$00
	.byte	$39
	.byte	$00
	.byte	$3B
	.byte	$00
	.byte	$00
	.byte	$00
	.byte	$00
	.byte	$00
	.byte	$3F
	.byte	$2D
	.byte	$42
	.byte	$3F
	.byte	$00
	.byte	$27
	.byte	$00
	.byte	$00
	.byte	$48
	.byte	$0D
	.byte	$49
	.byte	$0B
	.byte	$4B
	.byte	$56
	.byte	$00
	.byte	$57
	.byte	$00
	.byte	$1F
	.byte	$03
	.byte	$41
	.byte	$01
	.byte	$3C
	.byte	$3C
	.byte	$3D
	.byte	$2C
	.byte	$44
	.byte	$27
	.byte	$00
	.byte	$00
	.byte	$00
	.byte	$00
	.byte	$00
	.byte	$09
	.byte	$0A
	.byte	$2B
	.byte	$2B
	.byte	$0B
	.byte	$0C
	.byte	$00
	.byte	$00
	.byte	$00
	.byte	$00
	.byte	$03
	.byte	$00
	.byte	$3D
	.byte	$40
	.byte	$08
	.byte	$21
	.byte	$3C
	.byte	$3D
	.byte	$44
	.byte	$41
	.byte	$17
	.byte	$41
	.byte	$00
	.byte	$44
	.byte	$48
	.byte	$0D
	.byte	$49
	.byte	$2B
	.byte	$49
	.byte	$0B
	.byte	$4B
	.byte	$00
	.byte	$00
	.byte	$00
	.byte	$00
	.byte	$00
	.byte	$40
	.byte	$40
	.byte	$21
	.byte	$21
	.byte	$41
	.byte	$02
	.byte	$41
	.byte	$16
	.byte	$44
	.byte	$00
	.byte	$00
	.byte	$00
	.byte	$38
	.byte	$09
	.byte	$39
	.byte	$2B
	.byte	$39
	.byte	$0E
	.byte	$3B
	.byte	$00
	.byte	$00
	.byte	$00
	.byte	$00
	.byte	$26
	.byte	$40
	.byte	$40
	.byte	$21
	.byte	$21
	.byte	$01
	.byte	$3C
	.byte	$16
	.byte	$44
	.byte	$00
	.byte	$17
	.byte	$00
	.byte	$00
	.byte	$0A
	.byte	$00
	.byte	$2B
	.byte	$0A
	.byte	$2B
	.byte	$2B
	.byte	$0F
	.byte	$0B
	.byte	$00
	.byte	$00
	.byte	$04
	.byte	$00
	.byte	$40
	.byte	$40
	.byte	$21
	.byte	$21
	.byte	$3D
	.byte	$41
	.byte	$3C
	.byte	$3D
	.byte	$44
	.byte	$41
	.byte	$17
	.byte	$44
	.byte	$00
	.byte	$17
	.byte	$48
	.byte	$0D
	.byte	$49
	.byte	$2B
	.byte	$49
	.byte	$0E
	.byte	$4B
	.byte	$00
	.byte	$00
	.byte	$00
	.byte	$40
	.byte	$40
	.byte	$21
	.byte	$21
	.byte	$41
	.byte	$41
	.byte	$44
	.byte	$41
	.byte	$17
	.byte	$02
	.byte	$00
	.byte	$16
	.byte	$38
	.byte	$00
	.byte	$39
	.byte	$09
	.byte	$39
	.byte	$2B
	.byte	$39
	.byte	$0B
	.byte	$3B
	.byte	$00
	.byte	$00
	.byte	$00
	.byte	$40
	.byte	$40
	.byte	$21
	.byte	$21
	.byte	$44
	.byte	$00
	.byte	$17
	.byte	$00
	.byte	$00
	.byte	$00
	.byte	$00
	.byte	$48
	.byte	$0D
	.byte	$49
	.byte	$2B
	.byte	$49
	.byte	$2B
	.byte	$49
	.byte	$0E
	.byte	$49
	.byte	$00
	.byte	$4B
	.byte	$26
	.byte	$00
	.byte	$40
	.byte	$40
	.byte	$21
	.byte	$21
	.byte	$00
	.byte	$00
	.byte	$00
	.byte	$00
	.byte	$00
	.byte	$38
	.byte	$00
	.byte	$39
	.byte	$09
	.byte	$39
	.byte	$2B
	.byte	$39
	.byte	$2B
	.byte	$39
	.byte	$2B
	.byte	$39
	.byte	$0B
	.byte	$39
	.byte	$00
	.byte	$3B
	.byte	$40
	.byte	$40
	.byte	$21
	.byte	$21
	.byte	$00
	.byte	$00
	.byte	$00
	.byte	$00
	.byte	$00
	.byte	$00
	.byte	$00
	.byte	$00
	.byte	$0A
	.byte	$0D
	.byte	$2B
	.byte	$2B
	.byte	$2B
	.byte	$2B
	.byte	$2B
	.byte	$2B
	.byte	$05
	.byte	$2B
	.byte	$06
	.byte	$0F
	.byte	$40
	.byte	$40
	.byte	$21
	.byte	$21
	.byte	$00
	.byte	$00
	.byte	$00
	.byte	$00
	.byte	$00
	.byte	$00
	.byte	$38
	.byte	$00
	.byte	$39
	.byte	$09
	.byte	$39
	.byte	$2B
	.byte	$39
	.byte	$2B
	.byte	$39
	.byte	$2B
	.byte	$39
	.byte	$0C
	.byte	$3B
	.byte	$00
	.byte	$40
	.byte	$40
	.byte	$21
	.byte	$21
	.byte	$00
	.byte	$02
	.byte	$00
	.byte	$00
	.byte	$00
	.byte	$00
	.byte	$0D
	.byte	$09
	.byte	$2B
	.byte	$2B
	.byte	$2B
	.byte	$2B
	.byte	$2B
	.byte	$2B
	.byte	$0C
	.byte	$0F
	.byte	$00
	.byte	$00
	.byte	$00
	.byte	$04
	.byte	$40
	.byte	$40
	.byte	$21
	.byte	$21
	.byte	$44
	.byte	$41
	.byte	$00
	.byte	$44
	.byte	$38
	.byte	$00
	.byte	$39
	.byte	$0A
	.byte	$39
	.byte	$2B
	.byte	$39
	.byte	$2B
	.byte	$39
	.byte	$2B
	.byte	$3B
	.byte	$2B
	.byte	$00
	.byte	$0F
	.byte	$04
	.byte	$00
	.byte	$40
	.byte	$40
	.byte	$21
	.byte	$21
	.byte	$41
	.byte	$00
	.byte	$01
	.byte	$18
	.byte	$02
	.byte	$01
	.byte	$00
	.byte	$41
	.byte	$0A
	.byte	$44
	.byte	$2B
	.byte	$2B
	.byte	$2B
	.byte	$2B
	.byte	$2B
	.byte	$2B
	.byte	$0B
	.byte	$2B
	.byte	$00
	.byte	$0B
	.byte	$40
	.byte	$40
	.byte	$21
	.byte	$21
	.byte	$2C
	.byte	$2C
	.byte	$00
	.byte	$2E
	.byte	$00
	.byte	$2C
	.byte	$00
	.byte	$2C
	.byte	$03
	.byte	$40
	.byte	$44
	.byte	$18
	.byte	$2B
	.byte	$01
	.byte	$2B
	.byte	$41
	.byte	$2B
	.byte	$44
	.byte	$0E
	.byte	$0E
	.byte	$08
	.byte	$3C
	.byte	$21
	.byte	$21
	.byte	$2C
	.byte	$2C
	.byte	$2C
	.byte	$2C
	.byte	$2C
	.byte	$2E
	.byte	$2C
	.byte	$2C
	.byte	$40
	.byte	$40
	.byte	$18
	.byte	$18
	.byte	$02
	.byte	$41
	.byte	$2B
	.byte	$44
	.byte	$2B
	.byte	$2B
	.byte	$0C
	.byte	$0F
	.byte	$3D
	.byte	$25
	.byte	$21
	.byte	$21
	.byte	$2C
	.byte	$2C
	.byte	$2C
	.byte	$2D
	.byte	$2C
	.byte	$2C
	.byte	$2C
	.byte	$2C
	.byte	$40
	.byte	$40
	.byte	$03
	.byte	$03
	.byte	$02
	.byte	$01
	.byte	$2B
	.byte	$44
	.byte	$2B
	.byte	$2B
	.byte	$0B
	.byte	$0E
	.byte	$08
	.byte	$3C
	.byte	$21
	.byte	$21
	.byte	$2C
	.byte	$2C
	.byte	$2C
	.byte	$18
	.byte	$2C
	.byte	$41
	.byte	$2C
	.byte	$01
	.byte	$18
	.byte	$41
	.byte	$01
	.byte	$44
	.byte	$01
	.byte	$2B
	.byte	$44
	.byte	$2B
	.byte	$2B
	.byte	$0E
	.byte	$0C
	.byte	$08
	.byte	$3D
	.byte	$25
	.byte	$21
	.byte	$21
	.byte	$41
	.byte	$02
	.byte	$41
	.byte	$00
	.byte	$44
	.byte	$00
	.byte	$2B
	.byte	$0A
	.byte	$2B
	.byte	$2B
	.byte	$2B
	.byte	$2B
	.byte	$2B
	.byte	$2B
	.byte	$2B
	.byte	$2B
	.byte	$0C
	.byte	$0F
	.byte	$00
	.byte	$00
	.byte	$40
	.byte	$40
	.byte	$21
	.byte	$21
	.byte	$02
	.byte	$00
	.byte	$00
	.byte	$00
	.byte	$00
	.byte	$00
	.byte	$00
	.byte	$00
	.byte	$0A
	.byte	$0D
	.byte	$2B
	.byte	$2B
	.byte	$2B
	.byte	$2B
	.byte	$04
	.byte	$03
	.byte	$0F
	.byte	$44
	.byte	$00
	.byte	$00
	.byte	$40
	.byte	$40
	.byte	$21
	.byte	$21
	.byte	$13
	.byte	$12
	.byte	$00
	.byte	$00
	.byte	$00
	.byte	$13
	.byte	$00
	.byte	$00
	.byte	$00
	.byte	$00
	.byte	$0A
	.byte	$00
	.byte	$2B
	.byte	$0A
	.byte	$26
	.byte	$2B
	.byte	$2B
	.byte	$2B
	.byte	$0B
	.byte	$0E
	.byte	$40
	.byte	$40
	.byte	$21
	.byte	$21
	.byte	$00
	.byte	$00
	.byte	$15
	.byte	$12
	.byte	$00
	.byte	$13
	.byte	$00
	.byte	$00
	.byte	$00
	.byte	$00
	.byte	$00
	.byte	$3A
	.byte	$00
	.byte	$00
	.byte	$0A
	.byte	$09
	.byte	$2B
	.byte	$2B
	.byte	$0C
	.byte	$0F
	.byte	$40
	.byte	$40
	.byte	$21
	.byte	$21
	.byte	$28
	.byte	$00
	.byte	$00
	.byte	$00
	.byte	$12
	.byte	$29
	.byte	$15
	.byte	$12
	.byte	$13
	.byte	$13
	.byte	$00
	.byte	$00
	.byte	$00
	.byte	$00
	.byte	$0A
	.byte	$3A
	.byte	$2B
	.byte	$0A
	.byte	$0F
	.byte	$0B
	.byte	$40
	.byte	$40
	.byte	$21
	.byte	$21
	.byte	$00
	.byte	$00
	.byte	$28
	.byte	$29
	.byte	$00
	.byte	$00
	.byte	$00
	.byte	$00
	.byte	$10
	.byte	$12
	.byte	$00
	.byte	$13
	.byte	$00
	.byte	$00
	.byte	$00
	.byte	$00
	.byte	$00
	.byte	$00
	.byte	$0A
	.byte	$00
	.byte	$40
	.byte	$40
	.byte	$21
	.byte	$21
	.byte	$28
	.byte	$29
	.byte	$00
	.byte	$00
	.byte	$00
	.byte	$00
	.byte	$00
	.byte	$00
	.byte	$00
	.byte	$00
	.byte	$12
	.byte	$00
	.byte	$15
	.byte	$15
	.byte	$00
	.byte	$00
	.byte	$00
	.byte	$00
	.byte	$26
	.byte	$00
	.byte	$40
	.byte	$40
	.byte	$21
	.byte	$21
	.byte	$2A
	.byte	$00
	.byte	$28
	.byte	$29
	.byte	$2A
	.byte	$00
	.byte	$28
	.byte	$00
	.byte	$2A
	.byte	$00
	.byte	$00
	.byte	$00
	.byte	$12
	.byte	$15
	.byte	$13
	.byte	$12
	.byte	$00
	.byte	$00
	.byte	$00
	.byte	$00
	.byte	$40
	.byte	$40
	.byte	$21
	.byte	$21
	.byte	$28
	.byte	$00
	.byte	$2A
	.byte	$00
	.byte	$28
	.byte	$29
	.byte	$2A
	.byte	$00
	.byte	$00
	.byte	$00
	.byte	$11
	.byte	$15
	.byte	$00
	.byte	$13
	.byte	$00
	.byte	$00
	.byte	$12
	.byte	$00
	.byte	$01
	.byte	$24
	.byte	$41
	.byte	$00
	.byte	$41
	.byte	$24
	.byte	$00
	.byte	$00
	.byte	$00
	.byte	$00
	.byte	$2A
	.byte	$00
	.byte	$00
	.byte	$29
	.byte	$00
	.byte	$00
	.byte	$00
	.byte	$00
	.byte	$12
	.byte	$00
	.byte	$00
	.byte	$15
	.byte	$00
	.byte	$00
	.byte	$24
	.byte	$01
	.byte	$00
	.byte	$01
	.byte	$24
	.byte	$41
	.byte	$28
	.byte	$29
	.byte	$2A
	.byte	$00
	.byte	$28
	.byte	$29
	.byte	$00
	.byte	$00
	.byte	$00
	.byte	$00
	.byte	$2A
	.byte	$00
	.byte	$00
	.byte	$29
	.byte	$00
	.byte	$00
	.byte	$15
	.byte	$00
	.byte	$41
	.byte	$00
	.byte	$41
	.byte	$40
	.byte	$01
	.byte	$21
	.byte	$00
	.byte	$00
	.byte	$28
	.byte	$00
	.byte	$2A
	.byte	$00
	.byte	$00
	.byte	$00
	.byte	$00
	.byte	$00
	.byte	$00
	.byte	$00
	.byte	$00
	.byte	$00
	.byte	$00
	.byte	$00
	.byte	$00
	.byte	$11
	.byte	$13
	.byte	$00
	.byte	$40
	.byte	$40
	.byte	$21
	.byte	$21
	.byte	$00
	.byte	$29
	.byte	$00
	.byte	$00
	.byte	$00
	.byte	$29
	.byte	$00
	.byte	$00
	.byte	$00
	.byte	$00
	.byte	$00
	.byte	$00
	.byte	$28
	.byte	$29
	.byte	$2A
	.byte	$00
	.byte	$12
	.byte	$00
	.byte	$13
	.byte	$04
	.byte	$40
	.byte	$40
	.byte	$21
	.byte	$21
	.byte	$02
	.byte	$00
	.byte	$28
	.byte	$00
	.byte	$2A
	.byte	$00
	.byte	$00
	.byte	$00
	.byte	$00
	.byte	$00
	.byte	$00
	.byte	$29
	.byte	$00
	.byte	$00
	.byte	$28
	.byte	$00
	.byte	$00
	.byte	$00
	.byte	$12
	.byte	$00
	.byte	$40
	.byte	$40
	.byte	$21
	.byte	$21
	.byte	$28
	.byte	$00
	.byte	$2A
	.byte	$00
	.byte	$00
	.byte	$00
	.byte	$2A
	.byte	$00
	.byte	$00
	.byte	$00
	.byte	$2A
	.byte	$00
	.byte	$00
	.byte	$00
	.byte	$2A
	.byte	$00
	.byte	$00
	.byte	$29
	.byte	$00
	.byte	$00
	.byte	$40
	.byte	$40
	.byte	$21
	.byte	$21
	.byte	$2A
	.byte	$00
	.byte	$28
	.byte	$00
	.byte	$2A
	.byte	$00
	.byte	$28
	.byte	$00
	.byte	$00
	.byte	$00
	.byte	$28
	.byte	$29
	.byte	$00
	.byte	$00
	.byte	$28
	.byte	$29
	.byte	$2A
	.byte	$00
	.byte	$00
	.byte	$04
	.byte	$40
	.byte	$40
	.byte	$21
	.byte	$21
	.byte	$00
	.byte	$00
	.byte	$2A
	.byte	$00
	.byte	$28
	.byte	$29
	.byte	$00
	.byte	$00
	.byte	$00
	.byte	$00
	.byte	$00
	.byte	$00
	.byte	$28
	.byte	$29
	.byte	$2A
	.byte	$00
	.byte	$00
	.byte	$29
	.byte	$2A
	.byte	$11
	.byte	$40
	.byte	$40
	.byte	$21
	.byte	$21
	.byte	$01
	.byte	$01
	.byte	$02
	.byte	$41
	.byte	$00
	.byte	$02
	.byte	$28
	.byte	$29
	.byte	$00
	.byte	$00
	.byte	$28
	.byte	$00
	.byte	$00
	.byte	$00
	.byte	$28
	.byte	$00
	.byte	$2A
	.byte	$00
	.byte	$15
	.byte	$04
	.byte	$40
	.byte	$40
	.byte	$21
	.byte	$21
	.byte	$41
	.byte	$41
	.byte	$41
	.byte	$44
	.byte	$44
	.byte	$00
	.byte	$00
	.byte	$00
	.byte	$00
	.byte	$29
	.byte	$2A
	.byte	$00
	.byte	$00
	.byte	$00
	.byte	$00
	.byte	$11
	.byte	$11
	.byte	$15
	.byte	$26
	.byte	$00
	.byte	$40
	.byte	$40
	.byte	$21
	.byte	$21
	.byte	$02
	.byte	$00
	.byte	$28
	.byte	$00
	.byte	$00
	.byte	$00
	.byte	$00
	.byte	$29
	.byte	$2A
	.byte	$00
	.byte	$00
	.byte	$00
	.byte	$00
	.byte	$00
	.byte	$12
	.byte	$11
	.byte	$00
	.byte	$00
	.byte	$00
	.byte	$00
	.byte	$40
	.byte	$40
	.byte	$21
	.byte	$21
	.byte	$02
	.byte	$29
	.byte	$00
	.byte	$00
	.byte	$28
	.byte	$29
	.byte	$00
	.byte	$00
	.byte	$28
	.byte	$00
	.byte	$2A
	.byte	$00
	.byte	$11
	.byte	$10
	.byte	$15
	.byte	$00
	.byte	$00
	.byte	$00
	.byte	$04
	.byte	$00
	.byte	$40
	.byte	$40
	.byte	$21
	.byte	$21
	.byte	$00
	.byte	$00
	.byte	$00
	.byte	$00
	.byte	$2A
	.byte	$00
	.byte	$28
	.byte	$00
	.byte	$2A
	.byte	$00
	.byte	$00
	.byte	$00
	.byte	$12
	.byte	$00
	.byte	$13
	.byte	$11
	.byte	$00
	.byte	$00
	.byte	$00
	.byte	$04
	.byte	$40
	.byte	$40
	.byte	$21
	.byte	$21
	.byte	$00
	.byte	$00
	.byte	$00
	.byte	$00
	.byte	$28
	.byte	$29
	.byte	$00
	.byte	$00
	.byte	$00
	.byte	$29
	.byte	$00
	.byte	$00
	.byte	$00
	.byte	$00
	.byte	$10
	.byte	$12
	.byte	$00
	.byte	$13
	.byte	$04
	.byte	$26
	.byte	$40
	.byte	$40
	.byte	$21
	.byte	$21
	.byte	$02
	.byte	$00
	.byte	$00
	.byte	$00
	.byte	$00
	.byte	$00
	.byte	$00
	.byte	$00
	.byte	$00
	.byte	$00
	.byte	$28
	.byte	$00
	.byte	$00
	.byte	$11
	.byte	$13
	.byte	$00
	.byte	$10
	.byte	$12
	.byte	$00
	.byte	$13
	.byte	$40
	.byte	$40
	.byte	$21
	.byte	$21
	.byte	$02
	.byte	$00
	.byte	$2A
	.byte	$00
	.byte	$00
	.byte	$00
	.byte	$2A
	.byte	$00
	.byte	$28
	.byte	$29
	.byte	$00
	.byte	$00
	.byte	$15
	.byte	$13
	.byte	$00
	.byte	$00
	.byte	$00
	.byte	$00
	.byte	$12
	.byte	$11
	.byte	$40
	.byte	$40
	.byte	$21
	.byte	$21
	.byte	$00
	.byte	$00
	.byte	$28
	.byte	$00
	.byte	$00
	.byte	$00
	.byte	$28
	.byte	$29
	.byte	$00
	.byte	$00
	.byte	$00
	.byte	$00
	.byte	$13
	.byte	$12
	.byte	$00
	.byte	$13
	.byte	$00
	.byte	$00
	.byte	$26
	.byte	$26
	.byte	$40
	.byte	$40
	.byte	$21
	.byte	$21
	.byte	$02
	.byte	$29
	.byte	$2A
	.byte	$00
	.byte	$00
	.byte	$00
	.byte	$2A
	.byte	$00
	.byte	$00
	.byte	$29
	.byte	$00
	.byte	$00
	.byte	$00
	.byte	$00
	.byte	$12
	.byte	$00
	.byte	$00
	.byte	$11
	.byte	$26
	.byte	$00
	.byte	$40
	.byte	$40
	.byte	$21
	.byte	$21
	.byte	$00
	.byte	$00
	.byte	$00
	.byte	$00
	.byte	$00
	.byte	$00
	.byte	$00
	.byte	$00
	.byte	$00
	.byte	$00
	.byte	$28
	.byte	$00
	.byte	$00
	.byte	$00
	.byte	$00
	.byte	$11
	.byte	$10
	.byte	$00
	.byte	$00
	.byte	$00
	.byte	$40
	.byte	$40
	.byte	$21
	.byte	$21
	.byte	$00
	.byte	$00
	.byte	$2A
	.byte	$00
	.byte	$00
	.byte	$29
	.byte	$2A
	.byte	$00
	.byte	$00
	.byte	$29
	.byte	$00
	.byte	$00
	.byte	$00
	.byte	$11
	.byte	$10
	.byte	$3A
	.byte	$00
	.byte	$00
	.byte	$26
	.byte	$00
	.byte	$40
	.byte	$40
	.byte	$21
	.byte	$21
	.byte	$00
	.byte	$00
	.byte	$00
	.byte	$00
	.byte	$00
	.byte	$00
	.byte	$00
	.byte	$29
	.byte	$00
	.byte	$00
	.byte	$03
	.byte	$00
	.byte	$41
	.byte	$00
	.byte	$41
	.byte	$3A
	.byte	$02
	.byte	$00
	.byte	$00
	.byte	$00
	.byte	$40
	.byte	$40
	.byte	$21
	.byte	$21
	.byte	$00
	.byte	$29
	.byte	$2A
	.byte	$00
	.byte	$00
	.byte	$00
	.byte	$00
	.byte	$00
	.byte	$28
	.byte	$00
	.byte	$00
	.byte	$00
	.byte	$11
	.byte	$10
	.byte	$00
	.byte	$00
	.byte	$00
	.byte	$00
	.byte	$26
	.byte	$00
	.byte	$40
	.byte	$40
	.byte	$21
	.byte	$21
	.byte	$00
	.byte	$02
	.byte	$00
	.byte	$00
	.byte	$2A
	.byte	$00
	.byte	$00
	.byte	$29
	.byte	$00
	.byte	$00
	.byte	$3A
	.byte	$11
	.byte	$15
	.byte	$00
	.byte	$00
	.byte	$00
	.byte	$00
	.byte	$00
	.byte	$00
	.byte	$00
	.byte	$40
	.byte	$40
	.byte	$21
	.byte	$21
	.byte	$01
	.byte	$41
	.byte	$44
	.byte	$41
	.byte	$00
	.byte	$44
	.byte	$2A
	.byte	$00
	.byte	$28
	.byte	$29
	.byte	$10
	.byte	$11
	.byte	$15
	.byte	$3A
	.byte	$00
	.byte	$00
	.byte	$00
	.byte	$00
	.byte	$00
	.byte	$00
	.byte	$40
	.byte	$40
	.byte	$21
	.byte	$21
	.byte	$01
	.byte	$02
	.byte	$44
	.byte	$00
	.byte	$00
	.byte	$00
	.byte	$00
	.byte	$29
	.byte	$2A
	.byte	$00
	.byte	$12
	.byte	$00
	.byte	$13
	.byte	$12
	.byte	$00
	.byte	$13
	.byte	$00
	.byte	$00
	.byte	$00
	.byte	$04
	.byte	$40
	.byte	$40
	.byte	$21
	.byte	$21
	.byte	$02
	.byte	$44
	.byte	$00
	.byte	$00
	.byte	$28
	.byte	$29
	.byte	$2A
	.byte	$00
	.byte	$00
	.byte	$00
	.byte	$2A
	.byte	$00
	.byte	$00
	.byte	$11
	.byte	$11
	.byte	$15
	.byte	$00
	.byte	$00
	.byte	$04
	.byte	$00
	.byte	$40
	.byte	$40
	.byte	$21
	.byte	$21
	.byte	$00
	.byte	$00
	.byte	$00
	.byte	$29
	.byte	$2A
	.byte	$00
	.byte	$28
	.byte	$00
	.byte	$00
	.byte	$00
	.byte	$00
	.byte	$00
	.byte	$10
	.byte	$12
	.byte	$00
	.byte	$13
	.byte	$00
	.byte	$00
	.byte	$00
	.byte	$00
	.byte	$40
	.byte	$40
	.byte	$21
	.byte	$21
	.byte	$44
	.byte	$29
	.byte	$00
	.byte	$00
	.byte	$00
	.byte	$00
	.byte	$00
	.byte	$00
	.byte	$00
	.byte	$00
	.byte	$00
	.byte	$00
	.byte	$00
	.byte	$13
	.byte	$12
	.byte	$15
	.byte	$00
	.byte	$15
	.byte	$05
	.byte	$00
	.byte	$40
	.byte	$40
	.byte	$21
	.byte	$21
	.byte	$2A
	.byte	$41
	.byte	$28
	.byte	$02
	.byte	$2A
	.byte	$00
	.byte	$00
	.byte	$29
	.byte	$00
	.byte	$00
	.byte	$00
	.byte	$11
	.byte	$10
	.byte	$15
	.byte	$00
	.byte	$00
	.byte	$00
	.byte	$00
	.byte	$00
	.byte	$00
	.byte	$40
	.byte	$40
	.byte	$21
	.byte	$21
	.byte	$28
	.byte	$29
	.byte	$2A
	.byte	$00
	.byte	$28
	.byte	$00
	.byte	$2A
	.byte	$00
	.byte	$00
	.byte	$00
	.byte	$12
	.byte	$00
	.byte	$13
	.byte	$12
	.byte	$05
	.byte	$00
	.byte	$06
	.byte	$00
	.byte	$06
	.byte	$00
	.byte	$40
	.byte	$40
	.byte	$21
	.byte	$21
	.byte	$2A
	.byte	$00
	.byte	$28
	.byte	$00
	.byte	$00
	.byte	$00
	.byte	$28
	.byte	$00
	.byte	$00
	.byte	$00
	.byte	$00
	.byte	$00
	.byte	$00
	.byte	$11
	.byte	$10
	.byte	$13
	.byte	$13
	.byte	$00
	.byte	$00
	.byte	$05
	.byte	$40
	.byte	$40
	.byte	$21
	.byte	$21
	.byte	$02
	.byte	$41
	.byte	$00
	.byte	$44
	.byte	$00
	.byte	$29
	.byte	$2A
	.byte	$00
	.byte	$00
	.byte	$00
	.byte	$00
	.byte	$00
	.byte	$12
	.byte	$11
	.byte	$00
	.byte	$00
	.byte	$00
	.byte	$00
	.byte	$00
	.byte	$00
	.byte	$40
	.byte	$40
	.byte	$21
	.byte	$21
	.byte	$02
	.byte	$41
	.byte	$28
	.byte	$44
	.byte	$00
	.byte	$00
	.byte	$28
	.byte	$29
	.byte	$00
	.byte	$00
	.byte	$11
	.byte	$10
	.byte	$15
	.byte	$00
	.byte	$00
	.byte	$00
	.byte	$00
	.byte	$00
	.byte	$04
	.byte	$26
	.byte	$40
	.byte	$40
	.byte	$21
	.byte	$21
	.byte	$41
	.byte	$00
	.byte	$01
	.byte	$00
	.byte	$44
	.byte	$00
	.byte	$00
	.byte	$00
	.byte	$00
	.byte	$00
	.byte	$12
	.byte	$00
	.byte	$13
	.byte	$10
	.byte	$00
	.byte	$00
	.byte	$00
	.byte	$00
	.byte	$04
	.byte	$00
	.byte	$40
	.byte	$40
	.byte	$21
	.byte	$21
	.byte	$2A
	.byte	$02
	.byte	$00
	.byte	$29
	.byte	$00
	.byte	$00
	.byte	$00
	.byte	$00
	.byte	$00
	.byte	$00
	.byte	$00
	.byte	$11
	.byte	$12
	.byte	$15
	.byte	$15
	.byte	$00
	.byte	$00
	.byte	$00
	.byte	$00
	.byte	$00
	.byte	$40
	.byte	$40
	.byte	$21
	.byte	$21
	.byte	$00
	.byte	$00
	.byte	$2A
	.byte	$00
	.byte	$00
	.byte	$00
	.byte	$00
	.byte	$00
	.byte	$00
	.byte	$00
	.byte	$12
	.byte	$11
	.byte	$00
	.byte	$00
	.byte	$00
	.byte	$00
	.byte	$04
	.byte	$00
	.byte	$00
	.byte	$00
	.byte	$40
	.byte	$40
	.byte	$21
	.byte	$21
	.byte	$2A
	.byte	$00
	.byte	$00
	.byte	$00
	.byte	$00
	.byte	$00
	.byte	$00
	.byte	$00
	.byte	$00
	.byte	$00
	.byte	$10
	.byte	$10
	.byte	$13
	.byte	$00
	.byte	$00
	.byte	$3A
	.byte	$00
	.byte	$00
	.byte	$03
	.byte	$00
	.byte	$41
	.byte	$00
	.byte	$01
	.byte	$00
	.byte	$00
	.byte	$29
	.byte	$2A
	.byte	$00
	.byte	$00
	.byte	$00
	.byte	$00
	.byte	$00
	.byte	$11
	.byte	$10
	.byte	$15
	.byte	$00
	.byte	$00
	.byte	$00
	.byte	$00
	.byte	$00
	.byte	$00
	.byte	$00
	.byte	$00
	.byte	$00
	.byte	$00
	.byte	$00
	.byte	$00
	.byte	$00
	.byte	$2A
	.byte	$00
	.byte	$00
	.byte	$00
	.byte	$00
	.byte	$00
	.byte	$00
	.byte	$00
	.byte	$13
	.byte	$13
	.byte	$00
	.byte	$00
	.byte	$00
	.byte	$00
	.byte	$00
	.byte	$00
	.byte	$00
	.byte	$00
	.byte	$00
	.byte	$00
	.byte	$00
	.byte	$00
	.byte	$3A
	.byte	$00
	.byte	$00
	.byte	$00
	.byte	$00
	.byte	$00
	.byte	$00
	.byte	$00
	.byte	$11
	.byte	$10
	.byte	$15
	.byte	$00
	.byte	$00
	.byte	$00
	.byte	$00
	.byte	$00
	.byte	$3A
	.byte	$00
	.byte	$00
	.byte	$00
	.byte	$00
	.byte	$03
	.byte	$00
	.byte	$01
	.byte	$00
	.byte	$41
	.byte	$00
	.byte	$01
	.byte	$00
	.byte	$41
	.byte	$00
	.byte	$41
	.byte	$10
	.byte	$01
	.byte	$13
	.byte	$02
	.byte	$00
	.byte	$00
	.byte	$00
	.byte	$00
	.byte	$00
	.byte	$03
	.byte	$00
	.byte	$41
	.byte	$00
	.byte	$41
	.byte	$40
	.byte	$40
	.byte	$21
	.byte	$21
	.byte	$01
	.byte	$29
	.byte	$41
	.byte	$00
	.byte	$01
	.byte	$00
	.byte	$01
	.byte	$00
	.byte	$44
	.byte	$10
	.byte	$00
	.byte	$00
	.byte	$00
	.byte	$00
	.byte	$18
	.byte	$00
	.byte	$41
	.byte	$00
	.byte	$01
	.byte	$03
	.byte	$01
	.byte	$41
	.byte	$01
	.byte	$41
	.byte	$2A
	.byte	$00
	.byte	$28
	.byte	$00
	.byte	$2A
	.byte	$00
	.byte	$00
	.byte	$00
	.byte	$12
	.byte	$00
	.byte	$13
	.byte	$10
	.byte	$00
	.byte	$00
	.byte	$00
	.byte	$00
	.byte	$00
	.byte	$00
	.byte	$00
	.byte	$00
	.byte	$03
	.byte	$03
	.byte	$41
	.byte	$01
	.byte	$00
	.byte	$00
	.byte	$2A
	.byte	$00
	.byte	$00
	.byte	$00
	.byte	$00
	.byte	$00
	.byte	$00
	.byte	$11
	.byte	$10
	.byte	$15
	.byte	$15
	.byte	$00
	.byte	$00
	.byte	$00
	.byte	$00
	.byte	$00
	.byte	$00
	.byte	$00
	.byte	$00
	.byte	$00
	.byte	$18
	.byte	$00
	.byte	$2A
	.byte	$00
	.byte	$28
	.byte	$00
	.byte	$00
	.byte	$00
	.byte	$11
	.byte	$10
	.byte	$15
	.byte	$00
	.byte	$00
	.byte	$00
	.byte	$00
	.byte	$00
	.byte	$00
	.byte	$00
	.byte	$00
	.byte	$00
	.byte	$00
	.byte	$00
	.byte	$00
	.byte	$00
	.byte	$00
	.byte	$03
	.byte	$50
	.byte	$52
	.byte	$00
	.byte	$05
	.byte	$00
	.byte	$06
	.byte	$12
	.byte	$06
	.byte	$13
	.byte	$06
	.byte	$00
	.byte	$06
	.byte	$00
	.byte	$06
	.byte	$00
	.byte	$07
	.byte	$00
	.byte	$20
	.byte	$00
	.byte	$03
	.byte	$18
	.byte	$01
	.byte	$41
	.byte	$41
	.byte	$51
	.byte	$52
	.byte	$28
	.byte	$00
	.byte	$2A
	.byte	$00
	.byte	$00
	.byte	$00
	.byte	$56
	.byte	$00
	.byte	$57
	.byte	$00
	.byte	$1F
	.byte	$00
	.byte	$02
	.byte	$00
	.byte	$25
	.byte	$20
	.byte	$03
	.byte	$18
	.byte	$41
	.byte	$01
	.byte	$41
	.byte	$01
	.byte	$52
	.byte	$51
	.byte	$05
	.byte	$00
	.byte	$06
	.byte	$29
	.byte	$14
	.byte	$00
	.byte	$00
	.byte	$00
	.byte	$11
	.byte	$10
	.byte	$00
	.byte	$00
	.byte	$43
	.byte	$00
	.byte	$20
	.byte	$25
	.byte	$03
	.byte	$03
	.byte	$41
	.byte	$41
	.byte	$41
	.byte	$01
	.byte	$52
	.byte	$52
	.byte	$28
	.byte	$29
	.byte	$00
	.byte	$00
	.byte	$28
	.byte	$29
	.byte	$00
	.byte	$00
	.byte	$12
	.byte	$00
	.byte	$13
	.byte	$12
	.byte	$00
	.byte	$00
	.byte	$08
	.byte	$20
	.byte	$03
	.byte	$03
	.byte	$41
	.byte	$41
	.byte	$01
	.byte	$41
	.byte	$52
	.byte	$52
	.byte	$2A
	.byte	$00
	.byte	$00
	.byte	$00
	.byte	$2A
	.byte	$00
	.byte	$28
	.byte	$00
	.byte	$00
	.byte	$00
	.byte	$00
	.byte	$29
	.byte	$00
	.byte	$00
	.byte	$08
	.byte	$20
	.byte	$18
	.byte	$03
	.byte	$01
	.byte	$01
	.byte	$01
	.byte	$41
	.byte	$51
	.byte	$53
	.byte	$05
	.byte	$00
	.byte	$14
	.byte	$00
	.byte	$28
	.byte	$29
	.byte	$00
	.byte	$00
	.byte	$00
	.byte	$00
	.byte	$43
	.byte	$00
	.byte	$07
	.byte	$29
	.byte	$20
	.byte	$08
	.byte	$18
	.byte	$18
	.byte	$01
	.byte	$41
	.byte	$41
	.byte	$41
	.byte	$00
	.byte	$00
	.byte	$00
	.byte	$00
	.byte	$00
	.byte	$00
	.byte	$00
	.byte	$00
	.byte	$28
	.byte	$00
	.byte	$2A
	.byte	$00
	.byte	$28
	.byte	$00
	.byte	$00
	.byte	$00
	.byte	$25
	.byte	$20
	.byte	$18
	.byte	$18
	.byte	$41
	.byte	$41
	.byte	$41
	.byte	$41
	.byte	$50
	.byte	$51
	.byte	$05
	.byte	$00
	.byte	$06
	.byte	$00
	.byte	$06
	.byte	$00
	.byte	$06
	.byte	$00
	.byte	$06
	.byte	$29
	.byte	$14
	.byte	$00
	.byte	$28
	.byte	$29
	.byte	$08
	.byte	$20
	.byte	$18
	.byte	$03
	.byte	$41
	.byte	$41
	.byte	$01
	.byte	$41
	.byte	$52
	.byte	$52
	.byte	$2A
	.byte	$05
	.byte	$00
	.byte	$14
	.byte	$2A
	.byte	$00
	.byte	$00
	.byte	$29
	.byte	$2A
	.byte	$43
	.byte	$00
	.byte	$06
	.byte	$2A
	.byte	$07
	.byte	$08
	.byte	$25
	.byte	$03
	.byte	$18
	.byte	$41
	.byte	$01
	.byte	$01
	.byte	$41
	.byte	$51
	.byte	$53
	.byte	$28
	.byte	$00
	.byte	$00
	.byte	$00
	.byte	$00
	.byte	$00
	.byte	$2A
	.byte	$00
	.byte	$00
	.byte	$00
	.byte	$2A
	.byte	$00
	.byte	$3A
	.byte	$00
	.byte	$00
	.byte	$11
	.byte	$11
	.byte	$15
	.byte	$18
	.byte	$00
	.byte	$41
	.byte	$03
	.byte	$02
	.byte	$44
	.byte	$00
	.byte	$00
	.byte	$00
	.byte	$00
	.byte	$00
	.byte	$00
	.byte	$00
	.byte	$3A
	.byte	$00
	.byte	$00
	.byte	$00
	.byte	$00
	.byte	$00
	.byte	$00
	.byte	$10
	.byte	$10
	.byte	$15
	.byte	$13
	.byte	$00
	.byte	$00
	.byte	$00
	.byte	$00
	.byte	$44
	.byte	$44
	.byte	$00
	.byte	$00
	.byte	$00
	.byte	$18
	.byte	$00
	.byte	$01
	.byte	$26
	.byte	$01
	.byte	$00
	.byte	$41
	.byte	$00
	.byte	$41
	.byte	$00
	.byte	$41
	.byte	$12
	.byte	$01
	.byte	$18
	.byte	$01
	.byte	$01
	.byte	$01
	.byte	$41
	.byte	$01
	.byte	$44
	.byte	$02
	.byte	$00
	.byte	$00
	.byte	$18
	.byte	$18
	.byte	$01
	.byte	$01
	.byte	$01
	.byte	$01
	.byte	$01
	.byte	$41
	.byte	$41
	.byte	$41
	.byte	$01
	.byte	$02
	.byte	$44
	.byte	$29
	.byte	$2A
	.byte	$00
	.byte	$40
	.byte	$40
	.byte	$21
	.byte	$21
	.byte	$44
	.byte	$44
	.byte	$00
	.byte	$00
	.byte	$03
	.byte	$04
	.byte	$41
	.byte	$02
	.byte	$01
	.byte	$16
	.byte	$44
	.byte	$00
	.byte	$17
	.byte	$00
	.byte	$00
	.byte	$29
	.byte	$00
	.byte	$00
	.byte	$28
	.byte	$29
	.byte	$40
	.byte	$40
	.byte	$21
	.byte	$21
	.byte	$02
	.byte	$44
	.byte	$00
	.byte	$00
	.byte	$04
	.byte	$04
	.byte	$00
	.byte	$00
	.byte	$28
	.byte	$00
	.byte	$2A
	.byte	$00
	.byte	$00
	.byte	$00
	.byte	$2A
	.byte	$00
	.byte	$28
	.byte	$00
	.byte	$00
	.byte	$00
	.byte	$40
	.byte	$40
	.byte	$21
	.byte	$21
	.byte	$02
	.byte	$44
	.byte	$00
	.byte	$00
	.byte	$04
	.byte	$04
	.byte	$28
	.byte	$00
	.byte	$2A
	.byte	$00
	.byte	$00
	.byte	$00
	.byte	$00
	.byte	$00
	.byte	$28
	.byte	$54
	.byte	$00
	.byte	$55
	.byte	$22
	.byte	$22
	.byte	$40
	.byte	$40
	.byte	$21
	.byte	$21
	.byte	$44
	.byte	$44
	.byte	$00
	.byte	$00
	.byte	$26
	.byte	$26
	.byte	$00
	.byte	$00
	.byte	$00
	.byte	$00
	.byte	$2A
	.byte	$00
	.byte	$28
	.byte	$29
	.byte	$2A
	.byte	$00
	.byte	$28
	.byte	$00
	.byte	$22
	.byte	$00
	.byte	$40
	.byte	$40
	.byte	$21
	.byte	$21
	.byte	$44
	.byte	$02
	.byte	$00
	.byte	$00
	.byte	$03
	.byte	$03
	.byte	$16
	.byte	$02
	.byte	$00
	.byte	$16
	.byte	$00
	.byte	$00
	.byte	$00
	.byte	$00
	.byte	$00
	.byte	$29
	.byte	$00
	.byte	$00
	.byte	$00
	.byte	$29
	.byte	$40
	.byte	$40
	.byte	$21
	.byte	$21
	.byte	$44
	.byte	$02
	.byte	$00
	.byte	$00
	.byte	$18
	.byte	$18
	.byte	$01
	.byte	$01
	.byte	$01
	.byte	$01
	.byte	$02
	.byte	$41
	.byte	$00
	.byte	$02
	.byte	$00
	.byte	$16
	.byte	$00
	.byte	$29
	.byte	$00
	.byte	$00
	.byte	$40
	.byte	$40
	.byte	$21
	.byte	$21
	.byte	$02
	.byte	$44
	.byte	$00
	.byte	$00
	.byte	$03
	.byte	$18
	.byte	$41
	.byte	$01
	.byte	$01
	.byte	$41
	.byte	$41
	.byte	$41
	.byte	$41
	.byte	$41
	.byte	$44
	.byte	$41
	.byte	$00
	.byte	$01
	.byte	$28
	.byte	$02
	.byte	$40
	.byte	$40
	.byte	$21
	.byte	$21
	.byte	$44
	.byte	$44
	.byte	$00
	.byte	$00
	.byte	$03
	.byte	$00
	.byte	$41
	.byte	$18
	.byte	$01
	.byte	$41
	.byte	$01
	.byte	$41
	.byte	$41
	.byte	$41
	.byte	$01
	.byte	$41
	.byte	$41
	.byte	$41
	.byte	$41
	.byte	$41
	.byte	$41
	.byte	$01
	.byte	$41
	.byte	$41
	.byte	$44
	.byte	$44
	.byte	$00
	.byte	$00
	.byte	$00
	.byte	$00
	.byte	$00
	.byte	$00
	.byte	$18
	.byte	$00
	.byte	$41
	.byte	$24
	.byte	$01
	.byte	$5C
	.byte	$41
	.byte	$24
	.byte	$41
	.byte	$5C
	.byte	$01
	.byte	$24
	.byte	$01
	.byte	$5C
	.byte	$01
	.byte	$24
	.byte	$44
	.byte	$02
	.byte	$00
	.byte	$00
	.byte	$00
	.byte	$00
	.byte	$00
	.byte	$00
	.byte	$00
	.byte	$00
	.byte	$24
	.byte	$24
	.byte	$5C
	.byte	$5C
	.byte	$24
	.byte	$24
	.byte	$5C
	.byte	$5C
	.byte	$24
	.byte	$24
	.byte	$5C
	.byte	$5C
	.byte	$24
	.byte	$18
	.byte	$44
	.byte	$44
	.byte	$00
	.byte	$00
	.byte	$00
	.byte	$00
	.byte	$00
	.byte	$00
	.byte	$00
	.byte	$00
	.byte	$24
	.byte	$24
	.byte	$5C
	.byte	$5C
	.byte	$24
	.byte	$24
	.byte	$5C
	.byte	$5C
	.byte	$24
	.byte	$24
	.byte	$5C
	.byte	$5C
	.byte	$18
	.byte	$18
	.byte	$02
	.byte	$01
	.byte	$2A
	.byte	$44
	.byte	$00
	.byte	$00
	.byte	$00
	.byte	$00
	.byte	$00
	.byte	$00
	.byte	$24
	.byte	$24
	.byte	$5C
	.byte	$5C
	.byte	$24
	.byte	$24
	.byte	$5C
	.byte	$5C
	.byte	$24
	.byte	$24
	.byte	$5C
	.byte	$5C
	.byte	$03
	.byte	$18
	.byte	$01
	.byte	$01
	.byte	$41
	.byte	$01
	.byte	$41
	.byte	$01
	.byte	$01
	.byte	$01
	.byte	$41
	.byte	$41
	.byte	$01
	.byte	$41
	.byte	$01
	.byte	$01
	.byte	$41
	.byte	$01
	.byte	$01
	.byte	$01
	.byte	$41
	.byte	$01
	.byte	$01
	.byte	$41
	.byte	$01
	.byte	$41
	.byte	$00
	.byte	$00
	.byte	$2A
	.byte	$00
	.byte	$28
	.byte	$29
	.byte	$00
	.byte	$00
	.byte	$00
	.byte	$29
	.byte	$00
	.byte	$00
	.byte	$00
	.byte	$00
	.byte	$00
	.byte	$00
	.byte	$00
	.byte	$00
	.byte	$03
	.byte	$00
	.byte	$01
	.byte	$00
	.byte	$41
	.byte	$00
	.byte	$00
	.byte	$01
	.byte	$28
	.byte	$01
	.byte	$00
	.byte	$01
	.byte	$00
	.byte	$41
	.byte	$00
	.byte	$41
	.byte	$00
	.byte	$01
	.byte	$00
	.byte	$41
	.byte	$00
	.byte	$01
	.byte	$00
	.byte	$01
	.byte	$00
	.byte	$41
	.byte	$2A
	.byte	$41
	.byte	$28
	.byte	$01
	.byte	$41
	.byte	$41
	.byte	$01
	.byte	$00
	.byte	$01
	.byte	$00
	.byte	$41
	.byte	$24
	.byte	$01
	.byte	$00
	.byte	$41
	.byte	$00
	.byte	$41
	.byte	$08
	.byte	$41
	.byte	$03
	.byte	$01
	.byte	$44
	.byte	$01
	.byte	$40
	.byte	$01
	.byte	$03
	.byte	$41
	.byte	$01
	.byte	$00
	.byte	$00
	.byte	$24
	.byte	$24
	.byte	$00
	.byte	$00
	.byte	$24
	.byte	$00
	.byte	$00
	.byte	$00
	.byte	$20
	.byte	$00
	.byte	$3C
	.byte	$3D
	.byte	$26
	.byte	$04
	.byte	$58
	.byte	$58
	.byte	$40
	.byte	$40
	.byte	$21
	.byte	$21
	.byte	$18
	.byte	$18
	.byte	$41
	.byte	$02
	.byte	$02
	.byte	$00
	.byte	$00
	.byte	$00
	.byte	$00
	.byte	$00
	.byte	$00
	.byte	$00
	.byte	$00
	.byte	$00
	.byte	$5C
	.byte	$5C
	.byte	$04
	.byte	$04
	.byte	$58
	.byte	$58
	.byte	$40
	.byte	$40
	.byte	$21
	.byte	$21
	.byte	$03
	.byte	$03
	.byte	$41
	.byte	$41
	.byte	$02
	.byte	$02
	.byte	$00
	.byte	$00
	.byte	$00
	.byte	$00
	.byte	$00
	.byte	$00
	.byte	$00
	.byte	$00
	.byte	$5C
	.byte	$5C
	.byte	$04
	.byte	$04
	.byte	$58
	.byte	$58
	.byte	$40
	.byte	$40
	.byte	$21
	.byte	$21
	.byte	$18
	.byte	$18
	.byte	$02
	.byte	$41
	.byte	$00
	.byte	$02
	.byte	$00
	.byte	$00
	.byte	$00
	.byte	$00
	.byte	$00
	.byte	$00
	.byte	$00
	.byte	$00
	.byte	$5C
	.byte	$5C
	.byte	$26
	.byte	$26
	.byte	$58
	.byte	$58
	.byte	$40
	.byte	$40
	.byte	$21
	.byte	$21
	.byte	$03
	.byte	$18
	.byte	$41
	.byte	$01
	.byte	$01
	.byte	$02
	.byte	$02
	.byte	$00
	.byte	$00
	.byte	$00
	.byte	$00
	.byte	$00
	.byte	$00
	.byte	$00
	.byte	$5C
	.byte	$5C
	.byte	$59
	.byte	$59
	.byte	$58
	.byte	$58
	.byte	$40
	.byte	$40
	.byte	$21
	.byte	$21
	.byte	$18
	.byte	$18
	.byte	$44
	.byte	$02
	.byte	$00
	.byte	$00
	.byte	$00
	.byte	$00
	.byte	$00
	.byte	$00
	.byte	$00
	.byte	$00
	.byte	$00
	.byte	$00
	.byte	$5C
	.byte	$5C
	.byte	$59
	.byte	$59
	.byte	$58
	.byte	$58
	.byte	$40
	.byte	$40
	.byte	$21
	.byte	$21
	.byte	$18
	.byte	$03
	.byte	$44
	.byte	$44
	.byte	$5B
	.byte	$5B
	.byte	$00
	.byte	$00
	.byte	$00
	.byte	$18
	.byte	$00
	.byte	$41
	.byte	$00
	.byte	$41
	.byte	$5C
	.byte	$41
	.byte	$59
	.byte	$01
	.byte	$58
	.byte	$41
	.byte	$40
	.byte	$41
	.byte	$21
	.byte	$41
	.byte	$03
	.byte	$01
	.byte	$02
	.byte	$02
	.byte	$5A
	.byte	$5D
	.byte	$00
	.byte	$5B
	.byte	$03
	.byte	$00
	.byte	$01
	.byte	$00
	.byte	$41
	.byte	$00
	.byte	$41
	.byte	$00
	.byte	$41
	.byte	$00
	.byte	$01
	.byte	$00
	.byte	$41
	.byte	$00
	.byte	$41
	.byte	$00
	.byte	$03
	.byte	$18
	.byte	$44
	.byte	$02
	.byte	$2B
	.byte	$2B
	.byte	$5A
	.byte	$5D
	.byte	$00
	.byte	$5B
	.byte	$00
	.byte	$00
	.byte	$00
	.byte	$00
	.byte	$00
	.byte	$00
	.byte	$00
	.byte	$00
	.byte	$00
	.byte	$00
	.byte	$00
	.byte	$00
	.byte	$00
	.byte	$00
	.byte	$03
	.byte	$03
	.byte	$01
	.byte	$02
	.byte	$02
	.byte	$01
	.byte	$2B
	.byte	$02
	.byte	$2B
	.byte	$2B
	.byte	$2B
	.byte	$2B
	.byte	$2B
	.byte	$2B
	.byte	$2B
	.byte	$0C
	.byte	$0C
	.byte	$00
	.byte	$00
	.byte	$00
	.byte	$00
	.byte	$11
	.byte	$12
	.byte	$00
	.byte	$03
	.byte	$18
	.byte	$01
	.byte	$02
	.byte	$02
	.byte	$2B
	.byte	$2B
	.byte	$2B
	.byte	$2B
	.byte	$2B
	.byte	$2B
	.byte	$2B
	.byte	$0E
	.byte	$0C
	.byte	$00
	.byte	$00
	.byte	$00
	.byte	$00
	.byte	$00
	.byte	$00
	.byte	$15
	.byte	$11
	.byte	$13
	.byte	$00
	.byte	$00
	.byte	$00
	.byte	$02
	.byte	$44
	.byte	$2B
	.byte	$2B
	.byte	$2B
	.byte	$2B
	.byte	$2B
	.byte	$0E
	.byte	$0C
	.byte	$00
	.byte	$00
	.byte	$00
	.byte	$00
	.byte	$00
	.byte	$00
	.byte	$11
	.byte	$11
	.byte	$15
	.byte	$15
	.byte	$18
	.byte	$13
	.byte	$44
	.byte	$00
	.byte	$00
	.byte	$02
	.byte	$2B
	.byte	$2B
	.byte	$2B
	.byte	$2B
	.byte	$0E
	.byte	$0C
	.byte	$00
	.byte	$00
	.byte	$00
	.byte	$00
	.byte	$00
	.byte	$00
	.byte	$00
	.byte	$10
	.byte	$12
	.byte	$15
	.byte	$00
	.byte	$40
	.byte	$40
	.byte	$18
	.byte	$21
	.byte	$01
	.byte	$18
	.byte	$44
	.byte	$02
	.byte	$2B
	.byte	$2B
	.byte	$2B
	.byte	$2B
	.byte	$0B
	.byte	$0C
	.byte	$00
	.byte	$00
	.byte	$00
	.byte	$00
	.byte	$00
	.byte	$00
	.byte	$00
	.byte	$00
	.byte	$12
	.byte	$00
	.byte	$40
	.byte	$40
	.byte	$21
	.byte	$21
	.byte	$03
	.byte	$18
	.byte	$44
	.byte	$41
	.byte	$2B
	.byte	$02
	.byte	$0C
	.byte	$00
	.byte	$00
	.byte	$00
	.byte	$00
	.byte	$00
	.byte	$00
	.byte	$00
	.byte	$00
	.byte	$09
	.byte	$00
	.byte	$0B
	.byte	$00
	.byte	$00
	.byte	$18
	.byte	$00
	.byte	$41
	.byte	$00
	.byte	$41
	.byte	$03
	.byte	$01
	.byte	$41
	.byte	$02
	.byte	$44
	.byte	$00
	.byte	$00
	.byte	$00
	.byte	$00
	.byte	$00
	.byte	$09
	.byte	$09
	.byte	$2B
	.byte	$2B
	.byte	$2B
	.byte	$2B
	.byte	$2B
	.byte	$0F
	.byte	$0B
	.byte	$00
	.byte	$00
	.byte	$00
	.byte	$00
	.byte	$18
	.byte	$03
	.byte	$01
	.byte	$41
	.byte	$02
	.byte	$44
	.byte	$00
	.byte	$38
	.byte	$00
	.byte	$39
	.byte	$0A
	.byte	$39
	.byte	$2B
	.byte	$39
	.byte	$2B
	.byte	$39
	.byte	$2B
	.byte	$39
	.byte	$0C
	.byte	$39
	.byte	$00
	.byte	$39
	.byte	$00
	.byte	$3B
	.byte	$03
	.byte	$18
	.byte	$01
	.byte	$01
	.byte	$44
	.byte	$02
	.byte	$00
	.byte	$00
	.byte	$00
	.byte	$48
	.byte	$00
	.byte	$49
	.byte	$09
	.byte	$49
	.byte	$2B
	.byte	$49
	.byte	$2B
	.byte	$49
	.byte	$0B
	.byte	$49
	.byte	$00
	.byte	$4B
	.byte	$00
	.byte	$00
	.byte	$18
	.byte	$03
	.byte	$44
	.byte	$02
	.byte	$00
	.byte	$00
	.byte	$00
	.byte	$38
	.byte	$00
	.byte	$39
	.byte	$09
	.byte	$39
	.byte	$2B
	.byte	$39
	.byte	$2B
	.byte	$39
	.byte	$2B
	.byte	$39
	.byte	$0C
	.byte	$39
	.byte	$00
	.byte	$39
	.byte	$00
	.byte	$3B
	.byte	$03
	.byte	$18
	.byte	$02
	.byte	$02
	.byte	$2A
	.byte	$00
	.byte	$00
	.byte	$00
	.byte	$00
	.byte	$00
	.byte	$0A
	.byte	$48
	.byte	$2B
	.byte	$49
	.byte	$2B
	.byte	$49
	.byte	$2B
	.byte	$49
	.byte	$0F
	.byte	$4B
	.byte	$00
	.byte	$00
	.byte	$00
	.byte	$00
	.byte	$18
	.byte	$18
	.byte	$44
	.byte	$44
	.byte	$00
	.byte	$00
	.byte	$00
	.byte	$00
	.byte	$00
	.byte	$38
	.byte	$00
	.byte	$39
	.byte	$0A
	.byte	$39
	.byte	$2B
	.byte	$39
	.byte	$2B
	.byte	$39
	.byte	$0F
	.byte	$39
	.byte	$00
	.byte	$3B
	.byte	$00
	.byte	$00
	.byte	$03
	.byte	$18
	.byte	$02
	.byte	$02
	.byte	$00
	.byte	$00
	.byte	$00
	.byte	$00
	.byte	$00
	.byte	$00
	.byte	$00
	.byte	$09
	.byte	$09
	.byte	$2B
	.byte	$2B
	.byte	$2B
	.byte	$2B
	.byte	$2B
	.byte	$0F
	.byte	$0B
	.byte	$00
	.byte	$00
	.byte	$00
	.byte	$00
	.byte	$03
	.byte	$18
	.byte	$00
	.byte	$01
	.byte	$00
	.byte	$41
	.byte	$00
	.byte	$41
	.byte	$00
	.byte	$01
	.byte	$0D
	.byte	$41
	.byte	$2B
	.byte	$41
	.byte	$2B
	.byte	$01
	.byte	$2B
	.byte	$41
	.byte	$0E
	.byte	$01
	.byte	$00
	.byte	$41
	.byte	$00
	.byte	$41
	.byte	$03
	.byte	$41
	.byte	$01
	.byte	$29
	.byte	$01
	.byte	$00
	.byte	$41
	.byte	$29
	.byte	$41
	.byte	$11
	.byte	$01
	.byte	$15
	.byte	$01
	.byte	$00
	.byte	$01
	.byte	$00
	.byte	$01
	.byte	$18
	.byte	$01
	.byte	$01
	.byte	$41
	.byte	$41
	.byte	$01
	.byte	$01
	.byte	$41
	.byte	$41
	.byte	$00
	.byte	$28
	.byte	$28
	.byte	$00
	.byte	$11
	.byte	$10
	.byte	$15
	.byte	$00
	.byte	$00
	.byte	$00
	.byte	$00
	.byte	$00
	.byte	$00
	.byte	$00
	.byte	$00
	.byte	$00
	.byte	$09
	.byte	$0A
	.byte	$2B
	.byte	$2B
	.byte	$2B
	.byte	$2B
	.byte	$2B
	.byte	$2B
	.byte	$00
	.byte	$11
	.byte	$11
	.byte	$15
	.byte	$15
	.byte	$00
	.byte	$00
	.byte	$00
	.byte	$00
	.byte	$00
	.byte	$00
	.byte	$00
	.byte	$38
	.byte	$00
	.byte	$39
	.byte	$00
	.byte	$39
	.byte	$00
	.byte	$39
	.byte	$09
	.byte	$39
	.byte	$2B
	.byte	$39
	.byte	$2B
	.byte	$10
	.byte	$12
	.byte	$00
	.byte	$13
	.byte	$00
	.byte	$00
	.byte	$00
	.byte	$00
	.byte	$00
	.byte	$00
	.byte	$00
	.byte	$00
	.byte	$00
	.byte	$00
	.byte	$48
	.byte	$00
	.byte	$49
	.byte	$09
	.byte	$49
	.byte	$2B
	.byte	$49
	.byte	$2B
	.byte	$49
	.byte	$2B
	.byte	$00
	.byte	$00
	.byte	$10
	.byte	$10
	.byte	$00
	.byte	$00
	.byte	$00
	.byte	$00
	.byte	$00
	.byte	$00
	.byte	$38
	.byte	$00
	.byte	$39
	.byte	$00
	.byte	$39
	.byte	$00
	.byte	$39
	.byte	$0A
	.byte	$39
	.byte	$2B
	.byte	$39
	.byte	$2B
	.byte	$39
	.byte	$2B
	.byte	$00
	.byte	$00
	.byte	$12
	.byte	$11
	.byte	$00
	.byte	$00
	.byte	$00
	.byte	$00
	.byte	$00
	.byte	$00
	.byte	$00
	.byte	$00
	.byte	$00
	.byte	$00
	.byte	$48
	.byte	$00
	.byte	$49
	.byte	$00
	.byte	$49
	.byte	$0A
	.byte	$49
	.byte	$2B
	.byte	$49
	.byte	$2B
	.byte	$00
	.byte	$28
	.byte	$10
	.byte	$12
	.byte	$00
	.byte	$13
	.byte	$00
	.byte	$00
	.byte	$00
	.byte	$00
	.byte	$00
	.byte	$00
	.byte	$38
	.byte	$00
	.byte	$39
	.byte	$00
	.byte	$39
	.byte	$00
	.byte	$39
	.byte	$09
	.byte	$39
	.byte	$2B
	.byte	$39
	.byte	$2B
	.byte	$00
	.byte	$01
	.byte	$00
	.byte	$01
	.byte	$12
	.byte	$41
	.byte	$13
	.byte	$41
	.byte	$00
	.byte	$01
	.byte	$00
	.byte	$41
	.byte	$00
	.byte	$41
	.byte	$00
	.byte	$41
	.byte	$09
	.byte	$41
	.byte	$2B
	.byte	$41
	.byte	$2B
	.byte	$41
	.byte	$2B
	.byte	$41
	.byte	$08
	.byte	$3C
	.byte	$3C
	.byte	$3D
	.byte	$20
	.byte	$00
	.byte	$25
	.byte	$11
	.byte	$08
	.byte	$15
	.byte	$20
	.byte	$00
	.byte	$20
	.byte	$00
	.byte	$08
	.byte	$3C
	.byte	$3C
	.byte	$3D
	.byte	$08
	.byte	$2B
	.byte	$25
	.byte	$0B
	.byte	$08
	.byte	$00
	.byte	$3D
	.byte	$08
	.byte	$11
	.byte	$15
	.byte	$15
	.byte	$13
	.byte	$15
	.byte	$09
	.byte	$00
	.byte	$0B
	.byte	$54
	.byte	$00
	.byte	$55
	.byte	$00
	.byte	$3D
	.byte	$20
	.byte	$2B
	.byte	$2B
	.byte	$2B
	.byte	$2B
	.byte	$0E
	.byte	$2B
	.byte	$00
	.byte	$0F
	.byte	$3C
	.byte	$3D
	.byte	$00
	.byte	$09
	.byte	$09
	.byte	$0C
	.byte	$08
	.byte	$3C
	.byte	$2B
	.byte	$0A
	.byte	$0B
	.byte	$2B
	.byte	$00
	.byte	$0F
	.byte	$08
	.byte	$20
	.byte	$0A
	.byte	$0D
	.byte	$2B
	.byte	$2B
	.byte	$0E
	.byte	$0C
	.byte	$20
	.byte	$20
	.byte	$08
	.byte	$08
	.byte	$48
	.byte	$0D
	.byte	$4B
	.byte	$0B
	.byte	$3D
	.byte	$3C
	.byte	$48
	.byte	$09
	.byte	$49
	.byte	$2B
	.byte	$4B
	.byte	$0F
	.byte	$25
	.byte	$08
	.byte	$48
	.byte	$09
	.byte	$49
	.byte	$2B
	.byte	$4B
	.byte	$0B
	.byte	$3C
	.byte	$3D
	.byte	$3C
	.byte	$3D
	.byte	$0D
	.byte	$0D
	.byte	$2B
	.byte	$0C
	.byte	$3D
	.byte	$20
	.byte	$2B
	.byte	$0A
	.byte	$2B
	.byte	$2B
	.byte	$0B
	.byte	$0E
	.byte	$20
	.byte	$08
	.byte	$2B
	.byte	$0A
	.byte	$2B
	.byte	$2B
	.byte	$0E
	.byte	$0C
	.byte	$20
	.byte	$3C
	.byte	$08
	.byte	$25
	.byte	$48
	.byte	$0D
	.byte	$4B
	.byte	$0B
	.byte	$3C
	.byte	$3D
	.byte	$48
	.byte	$0D
	.byte	$49
	.byte	$2B
	.byte	$4B
	.byte	$0F
	.byte	$20
	.byte	$08
	.byte	$48
	.byte	$0D
	.byte	$49
	.byte	$2B
	.byte	$4B
	.byte	$0B
	.byte	$3D
	.byte	$20
	.byte	$20
	.byte	$08
	.byte	$00
	.byte	$00
	.byte	$0A
	.byte	$00
	.byte	$08
	.byte	$20
	.byte	$09
	.byte	$2B
	.byte	$2B
	.byte	$2B
	.byte	$0B
	.byte	$2B
	.byte	$25
	.byte	$2B
	.byte	$09
	.byte	$2B
	.byte	$2B
	.byte	$2B
	.byte	$0E
	.byte	$0E
	.byte	$20
	.byte	$3C
	.byte	$3C
	.byte	$3D
	.byte	$13
	.byte	$12
	.byte	$13
	.byte	$13
	.byte	$20
	.byte	$3C
	.byte	$3C
	.byte	$3D
	.byte	$2B
	.byte	$20
	.byte	$2B
	.byte	$3C
	.byte	$2B
	.byte	$08
	.byte	$2B
	.byte	$3C
	.byte	$2B
	.byte	$20
	.byte	$0E
	.byte	$3C
	.byte	$3D
	.byte	$20
	.byte	$3C
	.byte	$3D
	.byte	$00
	.byte	$2A
	.byte	$12
	.byte	$00
	.byte	$3D
	.byte	$00
	.byte	$20
	.byte	$00
	.byte	$20
	.byte	$00
	.byte	$3D
	.byte	$00
	.byte	$20
	.byte	$00
	.byte	$3D
	.byte	$29
	.byte	$20
	.byte	$00
	.byte	$3D
	.byte	$00
	.byte	$20
	.byte	$08
	.byte	$08
	.byte	$3C
	.byte	$00
	.byte	$00
	.byte	$00
	.byte	$28
	.byte	$00
	.byte	$00
	.byte	$00
	.byte	$00
	.byte	$28
	.byte	$00
	.byte	$00
	.byte	$00
	.byte	$28
	.byte	$00
	.byte	$00
	.byte	$00
	.byte	$56
	.byte	$2A
	.byte	$57
	.byte	$00
	.byte	$3C
	.byte	$3D
	.byte	$3D
	.byte	$08
	.byte	$00
	.byte	$00
	.byte	$00
	.byte	$00
	.byte	$00
	.byte	$29
	.byte	$00
	.byte	$00
	.byte	$00
	.byte	$00
	.byte	$28
	.byte	$29
	.byte	$00
	.byte	$00
	.byte	$00
	.byte	$11
	.byte	$00
	.byte	$15
	.byte	$11
	.byte	$15
	.byte	$20
	.byte	$00
	.byte	$3C
	.byte	$3D
	.byte	$00
	.byte	$00
	.byte	$00
	.byte	$00
	.byte	$28
	.byte	$00
	.byte	$00
	.byte	$00
	.byte	$28
	.byte	$00
	.byte	$00
	.byte	$11
	.byte	$00
	.byte	$13
	.byte	$15
	.byte	$00
	.byte	$15
	.byte	$00
	.byte	$00
	.byte	$00
	.byte	$00
	.byte	$00
	.byte	$08
	.byte	$3C
	.byte	$00
	.byte	$00
	.byte	$00
	.byte	$28
	.byte	$00
	.byte	$00
	.byte	$00
	.byte	$00
	.byte	$11
	.byte	$10
	.byte	$15
	.byte	$00
	.byte	$15
	.byte	$00
	.byte	$00
	.byte	$00
	.byte	$00
	.byte	$11
	.byte	$11
	.byte	$15
	.byte	$20
	.byte	$3C
	.byte	$3D
	.byte	$3C
	.byte	$00
	.byte	$00
	.byte	$2A
	.byte	$00
	.byte	$00
	.byte	$13
	.byte	$13
	.byte	$00
	.byte	$12
	.byte	$11
	.byte	$13
	.byte	$00
	.byte	$11
	.byte	$00
	.byte	$13
	.byte	$00
	.byte	$15
	.byte	$00
	.byte	$00
	.byte	$00
	.byte	$3D
	.byte	$20
	.byte	$3D
	.byte	$08
	.byte	$00
	.byte	$11
	.byte	$11
	.byte	$13
	.byte	$15
	.byte	$00
	.byte	$11
	.byte	$15
	.byte	$15
	.byte	$13
	.byte	$15
	.byte	$00
	.byte	$00
	.byte	$00
	.byte	$00
	.byte	$09
	.byte	$00
	.byte	$0B
	.byte	$00
	.byte	$00
	.byte	$3C
	.byte	$3D
	.byte	$20
	.byte	$08
	.byte	$15
	.byte	$00
	.byte	$00
	.byte	$00
	.byte	$00
	.byte	$00
	.byte	$00
	.byte	$00
	.byte	$00
	.byte	$00
	.byte	$00
	.byte	$09
	.byte	$09
	.byte	$2B
	.byte	$2B
	.byte	$2B
	.byte	$2B
	.byte	$2B
	.byte	$0B
	.byte	$0E
	.byte	$20
	.byte	$3C
	.byte	$3C
	.byte	$3D
	.byte	$00
	.byte	$00
	.byte	$00
	.byte	$00
	.byte	$00
	.byte	$00
	.byte	$00
	.byte	$38
	.byte	$09
	.byte	$39
	.byte	$2B
	.byte	$39
	.byte	$2B
	.byte	$39
	.byte	$2B
	.byte	$39
	.byte	$2B
	.byte	$39
	.byte	$0C
	.byte	$3B
	.byte	$3D
	.byte	$24
	.byte	$08
	.byte	$20
	.byte	$00
	.byte	$00
	.byte	$00
	.byte	$00
	.byte	$00
	.byte	$00
	.byte	$00
	.byte	$00
	.byte	$0A
	.byte	$09
	.byte	$2B
	.byte	$2B
	.byte	$2B
	.byte	$2B
	.byte	$2B
	.byte	$2B
	.byte	$2B
	.byte	$2B
	.byte	$0B
	.byte	$0E
	.byte	$24
	.byte	$24
	.byte	$3C
	.byte	$3D
	.byte	$00
	.byte	$00
	.byte	$00
	.byte	$00
	.byte	$00
	.byte	$00
	.byte	$09
	.byte	$0A
	.byte	$2B
	.byte	$2B
	.byte	$2B
	.byte	$2B
	.byte	$2B
	.byte	$2B
	.byte	$2B
	.byte	$2B
	.byte	$43
	.byte	$2B
	.byte	$07
	.byte	$0B
	.byte	$05
	.byte	$24
	.byte	$08
	.byte	$3C
	.byte	$00
	.byte	$00
	.byte	$00
	.byte	$00
	.byte	$38
	.byte	$00
	.byte	$39
	.byte	$09
	.byte	$39
	.byte	$2B
	.byte	$39
	.byte	$2B
	.byte	$39
	.byte	$2B
	.byte	$39
	.byte	$2B
	.byte	$39
	.byte	$2B
	.byte	$3B
	.byte	$0B
	.byte	$24
	.byte	$24
	.byte	$3D
	.byte	$08
	.byte	$00
	.byte	$00
	.byte	$00
	.byte	$00
	.byte	$00
	.byte	$00
	.byte	$0A
	.byte	$00
	.byte	$2B
	.byte	$0A
	.byte	$2B
	.byte	$2B
	.byte	$2B
	.byte	$2B
	.byte	$43
	.byte	$2B
	.byte	$06
	.byte	$0B
	.byte	$07
	.byte	$00
	.byte	$05
	.byte	$24
	.byte	$3C
	.byte	$3D
	.byte	$00
	.byte	$00
	.byte	$00
	.byte	$54
	.byte	$08
	.byte	$20
	.byte	$38
	.byte	$00
	.byte	$39
	.byte	$09
	.byte	$39
	.byte	$2B
	.byte	$39
	.byte	$2B
	.byte	$39
	.byte	$2B
	.byte	$39
	.byte	$0C
	.byte	$3B
	.byte	$00
	.byte	$24
	.byte	$24
	.byte	$08
	.byte	$3C
	.byte	$54
	.byte	$00
	.byte	$55
	.byte	$00
	.byte	$08
	.byte	$08
	.byte	$05
	.byte	$09
	.byte	$06
	.byte	$2B
	.byte	$06
	.byte	$2B
	.byte	$06
	.byte	$2B
	.byte	$06
	.byte	$2B
	.byte	$06
	.byte	$0B
	.byte	$07
	.byte	$00
	.byte	$05
	.byte	$24
	.byte	$3D
	.byte	$08
	.byte	$3C
	.byte	$3D
	.byte	$00
	.byte	$3C
	.byte	$20
	.byte	$08
	.byte	$0A
	.byte	$20
	.byte	$2B
	.byte	$08
	.byte	$2B
	.byte	$20
	.byte	$2B
	.byte	$20
	.byte	$2B
	.byte	$08
	.byte	$2B
	.byte	$20
	.byte	$0B
	.byte	$08
	.byte	$24
	.byte	$08
	.byte	$00
	.byte	$29
	.byte	$2A
	.byte	$18
	.byte	$03
	.byte	$41
	.byte	$01
	.byte	$02
	.byte	$41
	.byte	$00
	.byte	$41
	.byte	$12
	.byte	$01
	.byte	$12
	.byte	$01
	.byte	$00
	.byte	$41
	.byte	$00
	.byte	$01
	.byte	$40
	.byte	$20
	.byte	$03
	.byte	$3C
	.byte	$3D
	.byte	$41
	.byte	$00
	.byte	$01
	.byte	$00
	.byte	$44
	.byte	$00
	.byte	$00
	.byte	$00
	.byte	$00
	.byte	$00
	.byte	$00
	.byte	$00
	.byte	$13
	.byte	$12
	.byte	$13
	.byte	$00
	.byte	$00
	.byte	$00
	.byte	$40
	.byte	$40
	.byte	$03
	.byte	$21
	.byte	$41
	.byte	$03
	.byte	$28
	.byte	$29
	.byte	$00
	.byte	$00
	.byte	$00
	.byte	$29
	.byte	$2A
	.byte	$00
	.byte	$28
	.byte	$00
	.byte	$2A
	.byte	$00
	.byte	$28
	.byte	$00
	.byte	$12
	.byte	$05
	.byte	$13
	.byte	$06
	.byte	$40
	.byte	$40
	.byte	$21
	.byte	$21
	.byte	$03
	.byte	$03
	.byte	$2A
	.byte	$00
	.byte	$00
	.byte	$29
	.byte	$2A
	.byte	$00
	.byte	$28
	.byte	$29
	.byte	$00
	.byte	$00
	.byte	$28
	.byte	$00
	.byte	$00
	.byte	$00
	.byte	$28
	.byte	$00
	.byte	$12
	.byte	$00
	.byte	$40
	.byte	$40
	.byte	$21
	.byte	$21
	.byte	$18
	.byte	$03
	.byte	$45
	.byte	$08
	.byte	$47
	.byte	$45
	.byte	$00
	.byte	$47
	.byte	$00
	.byte	$00
	.byte	$28
	.byte	$00
	.byte	$00
	.byte	$00
	.byte	$28
	.byte	$29
	.byte	$00
	.byte	$00
	.byte	$00
	.byte	$00
	.byte	$40
	.byte	$40
	.byte	$21
	.byte	$21
	.byte	$03
	.byte	$18
	.byte	$46
	.byte	$47
	.byte	$20
	.byte	$00
	.byte	$17
	.byte	$00
	.byte	$00
	.byte	$00
	.byte	$00
	.byte	$00
	.byte	$00
	.byte	$29
	.byte	$2A
	.byte	$00
	.byte	$28
	.byte	$00
	.byte	$00
	.byte	$00
	.byte	$40
	.byte	$40
	.byte	$21
	.byte	$18
	.byte	$03
	.byte	$01
	.byte	$46
	.byte	$47
	.byte	$47
	.byte	$00
	.byte	$00
	.byte	$00
	.byte	$00
	.byte	$00
	.byte	$28
	.byte	$00
	.byte	$2A
	.byte	$00
	.byte	$28
	.byte	$29
	.byte	$00
	.byte	$00
	.byte	$00
	.byte	$00
	.byte	$18
	.byte	$00
	.byte	$41
	.byte	$03
	.byte	$3C
	.byte	$3D
	.byte	$47
	.byte	$45
	.byte	$00
	.byte	$47
	.byte	$2A
	.byte	$00
	.byte	$28
	.byte	$29
	.byte	$2A
	.byte	$00
	.byte	$00
	.byte	$29
	.byte	$00
	.byte	$00
	.byte	$00
	.byte	$00
	.byte	$18
	.byte	$00
	.byte	$01
	.byte	$03
	.byte	$3C
	.byte	$3D
	.byte	$08
	.byte	$3C
	.byte	$46
	.byte	$47
	.byte	$45
	.byte	$00
	.byte	$47
	.byte	$00
	.byte	$2A
	.byte	$00
	.byte	$00
	.byte	$00
	.byte	$00
	.byte	$00
	.byte	$00
	.byte	$00
	.byte	$00
	.byte	$00
	.byte	$00
	.byte	$11
	.byte	$18
	.byte	$00
	.byte	$41
	.byte	$03
	.byte	$3D
	.byte	$20
	.byte	$45
	.byte	$47
	.byte	$47
	.byte	$00
	.byte	$2A
	.byte	$00
	.byte	$28
	.byte	$29
	.byte	$2A
	.byte	$00
	.byte	$28
	.byte	$00
	.byte	$00
	.byte	$00
	.byte	$00
	.byte	$11
	.byte	$13
	.byte	$00
	.byte	$15
	.byte	$00
	.byte	$03
	.byte	$00
	.byte	$01
	.byte	$03
	.byte	$45
	.byte	$44
	.byte	$47
	.byte	$00
	.byte	$00
	.byte	$00
	.byte	$00
	.byte	$00
	.byte	$00
	.byte	$29
	.byte	$00
	.byte	$00
	.byte	$00
	.byte	$00
	.byte	$05
	.byte	$00
	.byte	$06
	.byte	$12
	.byte	$07
	.byte	$13
	.byte	$03
	.byte	$03
	.byte	$41
	.byte	$41
	.byte	$45
	.byte	$46
	.byte	$47
	.byte	$45
	.byte	$00
	.byte	$44
	.byte	$00
	.byte	$29
	.byte	$00
	.byte	$00
	.byte	$28
	.byte	$29
	.byte	$2A
	.byte	$00
	.byte	$00
	.byte	$00
	.byte	$00
	.byte	$00
	.byte	$15
	.byte	$12
	.byte	$00
	.byte	$15
	.byte	$03
	.byte	$03
	.byte	$45
	.byte	$46
	.byte	$46
	.byte	$45
	.byte	$45
	.byte	$45
	.byte	$46
	.byte	$44
	.byte	$47
	.byte	$00
	.byte	$00
	.byte	$00
	.byte	$00
	.byte	$29
	.byte	$00
	.byte	$00
	.byte	$05
	.byte	$00
	.byte	$06
	.byte	$00
	.byte	$07
	.byte	$12
	.byte	$03
	.byte	$18
	.byte	$45
	.byte	$47
	.byte	$47
	.byte	$00
	.byte	$00
	.byte	$00
	.byte	$00
	.byte	$00
	.byte	$00
	.byte	$00
	.byte	$00
	.byte	$00
	.byte	$2A
	.byte	$00
	.byte	$28
	.byte	$00
	.byte	$00
	.byte	$00
	.byte	$11
	.byte	$15
	.byte	$00
	.byte	$11
	.byte	$18
	.byte	$18
	.byte	$02
	.byte	$46
	.byte	$2A
	.byte	$47
	.byte	$28
	.byte	$29
	.byte	$00
	.byte	$00
	.byte	$28
	.byte	$29
	.byte	$00
	.byte	$00
	.byte	$28
	.byte	$29
	.byte	$00
	.byte	$00
	.byte	$00
	.byte	$00
	.byte	$43
	.byte	$11
	.byte	$07
	.byte	$10
	.byte	$18
	.byte	$18
	.byte	$45
	.byte	$02
	.byte	$02
	.byte	$29
	.byte	$2A
	.byte	$00
	.byte	$28
	.byte	$29
	.byte	$2A
	.byte	$00
	.byte	$28
	.byte	$00
	.byte	$00
	.byte	$00
	.byte	$00
	.byte	$00
	.byte	$11
	.byte	$12
	.byte	$12
	.byte	$00
	.byte	$12
	.byte	$11
	.byte	$18
	.byte	$18
	.byte	$47
	.byte	$45
	.byte	$00
	.byte	$02
	.byte	$28
	.byte	$00
	.byte	$2A
	.byte	$00
	.byte	$00
	.byte	$29
	.byte	$00
	.byte	$00
	.byte	$00
	.byte	$00
	.byte	$00
	.byte	$00
	.byte	$00
	.byte	$00
	.byte	$11
	.byte	$13
	.byte	$15
	.byte	$00
	.byte	$03
	.byte	$03
	.byte	$47
	.byte	$46
	.byte	$00
	.byte	$47
	.byte	$00
	.byte	$00
	.byte	$28
	.byte	$00
	.byte	$00
	.byte	$00
	.byte	$00
	.byte	$29
	.byte	$2A
	.byte	$00
	.byte	$00
	.byte	$00
	.byte	$00
	.byte	$00
	.byte	$10
	.byte	$12
	.byte	$15
	.byte	$13
	.byte	$18
	.byte	$18
	.byte	$45
	.byte	$47
	.byte	$46
	.byte	$00
	.byte	$45
	.byte	$00
	.byte	$44
	.byte	$00
	.byte	$28
	.byte	$00
	.byte	$2A
	.byte	$00
	.byte	$00
	.byte	$00
	.byte	$00
	.byte	$00
	.byte	$18
	.byte	$11
	.byte	$41
	.byte	$15
	.byte	$01
	.byte	$03
	.byte	$41
	.byte	$01
	.byte	$45
	.byte	$44
	.byte	$44
	.byte	$00
	.byte	$00
	.byte	$00
	.byte	$28
	.byte	$00
	.byte	$00
	.byte	$00
	.byte	$00
	.byte	$00
	.byte	$00
	.byte	$03
	.byte	$00
	.byte	$01
	.byte	$10
	.byte	$01
	.byte	$00
	.byte	$01
	.byte	$00
	.byte	$01
	.byte	$03
	.byte	$01
	.byte	$46
	.byte	$45
	.byte	$47
	.byte	$46
	.byte	$28
	.byte	$45
	.byte	$00
	.byte	$46
	.byte	$28
	.byte	$44
	.byte	$2A
	.byte	$00
	.byte	$00
	.byte	$00
	.byte	$00
	.byte	$00
	.byte	$12
	.byte	$12
	.byte	$18
	.byte	$13
	.byte	$01
	.byte	$00
	.byte	$41
	.byte	$18
	.byte	$46
	.byte	$44
	.byte	$45
	.byte	$00
	.byte	$47
	.byte	$00
	.byte	$28
	.byte	$29
	.byte	$00
	.byte	$00
	.byte	$28
	.byte	$29
	.byte	$2A
	.byte	$00
	.byte	$00
	.byte	$00
	.byte	$18
	.byte	$00
	.byte	$41
	.byte	$15
	.byte	$01
	.byte	$18
	.byte	$01
	.byte	$01
	.byte	$46
	.byte	$45
	.byte	$47
	.byte	$46
	.byte	$00
	.byte	$47
	.byte	$00
	.byte	$00
	.byte	$00
	.byte	$00
	.byte	$00
	.byte	$00
	.byte	$00
	.byte	$00
	.byte	$00
	.byte	$00
	.byte	$00
	.byte	$11
	.byte	$11
	.byte	$00
	.byte	$13
	.byte	$00
	.byte	$18
	.byte	$03
	.byte	$46
	.byte	$44
	.byte	$47
	.byte	$00
	.byte	$00
	.byte	$00
	.byte	$28
	.byte	$29
	.byte	$00
	.byte	$00
	.byte	$00
	.byte	$00
	.byte	$00
	.byte	$00
	.byte	$00
	.byte	$15
	.byte	$15
	.byte	$13
	.byte	$00
	.byte	$00
	.byte	$00
	.byte	$00
	.byte	$03
	.byte	$03
	.byte	$47
	.byte	$46
	.byte	$00
	.byte	$44
	.byte	$00
	.byte	$00
	.byte	$2A
	.byte	$00
	.byte	$00
	.byte	$29
	.byte	$00
	.byte	$00
	.byte	$00
	.byte	$00
	.byte	$00
	.byte	$00
	.byte	$12
	.byte	$00
	.byte	$15
	.byte	$12
	.byte	$00
	.byte	$00
	.byte	$03
	.byte	$03
	.byte	$45
	.byte	$46
	.byte	$46
	.byte	$47
	.byte	$47
	.byte	$00
	.byte	$28
	.byte	$29
	.byte	$2A
	.byte	$00
	.byte	$00
	.byte	$00
	.byte	$00
	.byte	$00
	.byte	$28
	.byte	$00
	.byte	$00
	.byte	$00
	.byte	$00
	.byte	$18
	.byte	$18
	.byte	$01
	.byte	$01
	.byte	$01
	.byte	$45
	.byte	$45
	.byte	$46
	.byte	$47
	.byte	$02
	.byte	$29
	.byte	$00
	.byte	$00
	.byte	$28
	.byte	$29
	.byte	$00
	.byte	$00
	.byte	$28
	.byte	$29
	.byte	$2A
	.byte	$00
	.byte	$00
	.byte	$00
	.byte	$13
	.byte	$12
	.byte	$18
	.byte	$00
	.byte	$01
	.byte	$18
	.byte	$46
	.byte	$02
	.byte	$46
	.byte	$29
	.byte	$47
	.byte	$00
	.byte	$00
	.byte	$29
	.byte	$2A
	.byte	$00
	.byte	$00
	.byte	$00
	.byte	$2A
	.byte	$00
	.byte	$00
	.byte	$00
	.byte	$00
	.byte	$18
	.byte	$00
	.byte	$41
	.byte	$13
	.byte	$01
	.byte	$03
	.byte	$41
	.byte	$45
	.byte	$47
	.byte	$47
	.byte	$00
	.byte	$00
	.byte	$00
	.byte	$00
	.byte	$00
	.byte	$28
	.byte	$00
	.byte	$00
	.byte	$00
	.byte	$28
	.byte	$03
	.byte	$00
	.byte	$41
	.byte	$28
	.byte	$01
	.byte	$00
	.byte	$41
	.byte	$03
	.byte	$41
	.byte	$01
	.byte	$41
	.byte	$46
	.byte	$45
	.byte	$47
	.byte	$46
	.byte	$00
	.byte	$45
	.byte	$28
	.byte	$47
	.byte	$00
	.byte	$00
	.byte	$00
	.byte	$00
	.byte	$00
	.byte	$00
	.byte	$00
	.byte	$3A
	.byte	$2A
	.byte	$00
	.byte	$28
	.byte	$29
	.byte	$03
	.byte	$00
	.byte	$41
	.byte	$11
	.byte	$41
	.byte	$00
	.byte	$01
	.byte	$24
	.byte	$41
	.byte	$00
	.byte	$01
	.byte	$24
	.byte	$02
	.byte	$00
	.byte	$00
	.byte	$00
	.byte	$28
	.byte	$00
	.byte	$3A
	.byte	$24
	.byte	$28
	.byte	$00
	.byte	$00
	.byte	$11
	.byte	$18
	.byte	$15
	.byte	$01
	.byte	$24
	.byte	$00
	.byte	$01
	.byte	$24
	.byte	$41
	.byte	$2A
	.byte	$41
	.byte	$24
	.byte	$01
	.byte	$00
	.byte	$41
	.byte	$24
	.byte	$41
	.byte	$2A
	.byte	$01
	.byte	$24
	.byte	$41
	.byte	$00
	.byte	$41
	.byte	$10
	.byte	$41
	.byte	$00
	.byte	$01
	.byte	$24
	.byte	$01
	.byte	$41
	.byte	$02
	.byte	$41
	.byte	$00
	.byte	$41
	.byte	$00
	.byte	$22
	.byte	$1F
	.byte	$22
	.byte	$22
	.byte	$01
	.byte	$0A
	.byte	$41
	.byte	$2B
	.byte	$01
	.byte	$2B
	.byte	$41
	.byte	$0C
	.byte	$01
	.byte	$00
	.byte	$41
	.byte	$00
	.byte	$41
	.byte	$24
	.byte	$02
	.byte	$02
	.byte	$00
	.byte	$00
	.byte	$00
	.byte	$00
	.byte	$22
	.byte	$00
	.byte	$22
	.byte	$26
	.byte	$38
	.byte	$00
	.byte	$39
	.byte	$09
	.byte	$39
	.byte	$2B
	.byte	$39
	.byte	$0B
	.byte	$39
	.byte	$03
	.byte	$3B
	.byte	$01
	.byte	$24
	.byte	$41
	.byte	$01
	.byte	$44
	.byte	$02
	.byte	$00
	.byte	$00
	.byte	$00
	.byte	$00
	.byte	$18
	.byte	$26
	.byte	$44
	.byte	$00
	.byte	$00
	.byte	$0A
	.byte	$48
	.byte	$2B
	.byte	$49
	.byte	$2B
	.byte	$49
	.byte	$0C
	.byte	$4B
	.byte	$00
	.byte	$18
	.byte	$18
	.byte	$01
	.byte	$02
	.byte	$44
	.byte	$00
	.byte	$13
	.byte	$18
	.byte	$00
	.byte	$01
	.byte	$18
	.byte	$44
	.byte	$44
	.byte	$00
	.byte	$00
	.byte	$0D
	.byte	$00
	.byte	$2B
	.byte	$0A
	.byte	$2B
	.byte	$2B
	.byte	$0B
	.byte	$2B
	.byte	$03
	.byte	$0B
	.byte	$41
	.byte	$03
	.byte	$02
	.byte	$44
	.byte	$10
	.byte	$12
	.byte	$15
	.byte	$13
	.byte	$00
	.byte	$13
	.byte	$03
	.byte	$00
	.byte	$44
	.byte	$00
	.byte	$00
	.byte	$04
	.byte	$00
	.byte	$00
	.byte	$38
	.byte	$00
	.byte	$39
	.byte	$0A
	.byte	$03
	.byte	$18
	.byte	$41
	.byte	$41
	.byte	$01
	.byte	$41
	.byte	$44
	.byte	$01
	.byte	$00
	.byte	$02
	.byte	$15
	.byte	$00
	.byte	$00
	.byte	$12
	.byte	$00
	.byte	$13
	.byte	$00
	.byte	$03
	.byte	$26
	.byte	$02
	.byte	$00
	.byte	$00
	.byte	$00
	.byte	$00
	.byte	$0A
	.byte	$00
	.byte	$03
	.byte	$18
	.byte	$44
	.byte	$44
	.byte	$00
	.byte	$00
	.byte	$00
	.byte	$29
	.byte	$00
	.byte	$00
	.byte	$00
	.byte	$00
	.byte	$12
	.byte	$00
	.byte	$13
	.byte	$03
	.byte	$04
	.byte	$02
	.byte	$15
	.byte	$12
	.byte	$00
	.byte	$00
	.byte	$00
	.byte	$00
	.byte	$18
	.byte	$18
	.byte	$01
	.byte	$41
	.byte	$02
	.byte	$01
	.byte	$2A
	.byte	$02
	.byte	$28
	.byte	$00
	.byte	$00
	.byte	$00
	.byte	$00
	.byte	$00
	.byte	$00
	.byte	$00
	.byte	$26
	.byte	$26
	.byte	$2A
	.byte	$00
	.byte	$15
	.byte	$00
	.byte	$18
	.byte	$10
	.byte	$41
	.byte	$18
	.byte	$01
	.byte	$01
	.byte	$41
	.byte	$44
	.byte	$44
	.byte	$00
	.byte	$00
	.byte	$00
	.byte	$00
	.byte	$29
	.byte	$00
	.byte	$00
	.byte	$00
	.byte	$03
	.byte	$26
	.byte	$44
	.byte	$00
	.byte	$00
	.byte	$00
	.byte	$11
	.byte	$15
	.byte	$00
	.byte	$18
	.byte	$03
	.byte	$44
	.byte	$44
	.byte	$00
	.byte	$29
	.byte	$00
	.byte	$00
	.byte	$00
	.byte	$29
	.byte	$2A
	.byte	$00
	.byte	$28
	.byte	$18
	.byte	$00
	.byte	$02
	.byte	$26
	.byte	$00
	.byte	$00
	.byte	$11
	.byte	$15
	.byte	$00
	.byte	$03
	.byte	$03
	.byte	$01
	.byte	$41
	.byte	$02
	.byte	$02
	.byte	$2A
	.byte	$00
	.byte	$00
	.byte	$00
	.byte	$2A
	.byte	$03
	.byte	$00
	.byte	$44
	.byte	$04
	.byte	$00
	.byte	$28
	.byte	$00
	.byte	$00
	.byte	$00
	.byte	$12
	.byte	$00
	.byte	$00
	.byte	$15
	.byte	$18
	.byte	$00
	.byte	$01
	.byte	$18
	.byte	$44
	.byte	$01
	.byte	$28
	.byte	$02
	.byte	$00
	.byte	$00
	.byte	$00
	.byte	$00
	.byte	$18
	.byte	$00
	.byte	$44
	.byte	$29
	.byte	$00
	.byte	$26
	.byte	$00
	.byte	$11
	.byte	$11
	.byte	$15
	.byte	$13
	.byte	$00
	.byte	$00
	.byte	$00
	.byte	$03
	.byte	$18
	.byte	$44
	.byte	$01
	.byte	$2A
	.byte	$41
	.byte	$00
	.byte	$02
	.byte	$2A
	.byte	$00
	.byte	$28
	.byte	$29
	.byte	$18
	.byte	$00
	.byte	$44
	.byte	$26
	.byte	$12
	.byte	$00
	.byte	$13
	.byte	$12
	.byte	$00
	.byte	$00
	.byte	$03
	.byte	$00
	.byte	$41
	.byte	$18
	.byte	$02
	.byte	$02
	.byte	$00
	.byte	$29
	.byte	$2A
	.byte	$00
	.byte	$28
	.byte	$00
	.byte	$00
	.byte	$00
	.byte	$18
	.byte	$00
	.byte	$02
	.byte	$26
	.byte	$28
	.byte	$00
	.byte	$13
	.byte	$12
	.byte	$15
	.byte	$11
	.byte	$13
	.byte	$00
	.byte	$18
	.byte	$03
	.byte	$01
	.byte	$44
	.byte	$44
	.byte	$00
	.byte	$00
	.byte	$00
	.byte	$00
	.byte	$00
	.byte	$28
	.byte	$00
	.byte	$18
	.byte	$00
	.byte	$44
	.byte	$04
	.byte	$00
	.byte	$00
	.byte	$11
	.byte	$10
	.byte	$15
	.byte	$00
	.byte	$15
	.byte	$18
	.byte	$18
	.byte	$41
	.byte	$44
	.byte	$44
	.byte	$28
	.byte	$29
	.byte	$2A
	.byte	$00
	.byte	$00
	.byte	$00
	.byte	$00
	.byte	$00
	.byte	$18
	.byte	$03
	.byte	$02
	.byte	$44
	.byte	$00
	.byte	$11
	.byte	$12
	.byte	$15
	.byte	$18
	.byte	$00
	.byte	$01
	.byte	$00
	.byte	$01
	.byte	$03
	.byte	$02
	.byte	$44
	.byte	$00
	.byte	$00
	.byte	$00
	.byte	$00
	.byte	$00
	.byte	$00
	.byte	$00
	.byte	$11
	.byte	$03
	.byte	$03
	.byte	$02
	.byte	$44
	.byte	$15
	.byte	$00
	.byte	$00
	.byte	$15
	.byte	$15
	.byte	$00
	.byte	$00
	.byte	$09
	.byte	$18
	.byte	$18
	.byte	$01
	.byte	$44
	.byte	$44
	.byte	$00
	.byte	$00
	.byte	$00
	.byte	$00
	.byte	$11
	.byte	$10
	.byte	$15
	.byte	$15
	.byte	$3A
	.byte	$00
	.byte	$00
	.byte	$00
	.byte	$00
	.byte	$00
	.byte	$09
	.byte	$38
	.byte	$2B
	.byte	$39
	.byte	$0C
	.byte	$03
	.byte	$18
	.byte	$02
	.byte	$02
	.byte	$00
	.byte	$00
	.byte	$00
	.byte	$11
	.byte	$10
	.byte	$26
	.byte	$15
	.byte	$00
	.byte	$00
	.byte	$00
	.byte	$00
	.byte	$00
	.byte	$00
	.byte	$00
	.byte	$0A
	.byte	$38
	.byte	$0E
	.byte	$39
	.byte	$18
	.byte	$39
	.byte	$01
	.byte	$03
	.byte	$44
	.byte	$44
	.byte	$11
	.byte	$15
	.byte	$15
	.byte	$00
	.byte	$03
	.byte	$03
	.byte	$44
	.byte	$44
	.byte	$00
	.byte	$00
	.byte	$00
	.byte	$09
	.byte	$3A
	.byte	$2B
	.byte	$2B
	.byte	$0E
	.byte	$0E
	.byte	$03
	.byte	$18
	.byte	$01
	.byte	$01
	.byte	$01
	.byte	$44
	.byte	$44
	.byte	$00
	.byte	$00
	.byte	$15
	.byte	$00
	.byte	$03
	.byte	$18
	.byte	$44
	.byte	$44
	.byte	$09
	.byte	$38
	.byte	$2B
	.byte	$39
	.byte	$2B
	.byte	$39
	.byte	$0C
	.byte	$3B
	.byte	$00
	.byte	$18
	.byte	$03
	.byte	$41
	.byte	$01
	.byte	$41
	.byte	$02
	.byte	$44
	.byte	$00
	.byte	$00
	.byte	$00
	.byte	$00
	.byte	$18
	.byte	$00
	.byte	$44
	.byte	$04
	.byte	$09
	.byte	$0A
	.byte	$2B
	.byte	$2B
	.byte	$2B
	.byte	$2B
	.byte	$0B
	.byte	$2B
	.byte	$00
	.byte	$0B
	.byte	$00
	.byte	$03
	.byte	$03
	.byte	$41
	.byte	$44
	.byte	$44
	.byte	$13
	.byte	$12
	.byte	$00
	.byte	$00
	.byte	$00
	.byte	$00
	.byte	$04
	.byte	$26
	.byte	$00
	.byte	$09
	.byte	$38
	.byte	$2B
	.byte	$39
	.byte	$2B
	.byte	$39
	.byte	$2B
	.byte	$39
	.byte	$2B
	.byte	$3B
	.byte	$2B
	.byte	$03
	.byte	$03
	.byte	$41
	.byte	$02
	.byte	$44
	.byte	$00
	.byte	$15
	.byte	$00
	.byte	$18
	.byte	$03
	.byte	$44
	.byte	$02
	.byte	$2B
	.byte	$2B
	.byte	$2B
	.byte	$2B
	.byte	$2B
	.byte	$2B
	.byte	$2B
	.byte	$2B
	.byte	$2B
	.byte	$2B
	.byte	$03
	.byte	$03
	.byte	$41
	.byte	$41
	.byte	$02
	.byte	$02
	.byte	$00
	.byte	$00
	.byte	$00
	.byte	$00
	.byte	$03
	.byte	$00
	.byte	$44
	.byte	$03
	.byte	$2B
	.byte	$44
	.byte	$2B
	.byte	$2B
	.byte	$2B
	.byte	$2B
	.byte	$2B
	.byte	$2B
	.byte	$2B
	.byte	$2B
	.byte	$18
	.byte	$0B
	.byte	$01
	.byte	$18
	.byte	$44
	.byte	$44
	.byte	$00
	.byte	$13
	.byte	$00
	.byte	$00
	.byte	$0D
	.byte	$09
	.byte	$2B
	.byte	$2B
	.byte	$18
	.byte	$2B
	.byte	$44
	.byte	$26
	.byte	$2B
	.byte	$2B
	.byte	$2B
	.byte	$2B
	.byte	$2B
	.byte	$2B
	.byte	$0E
	.byte	$0C
	.byte	$18
	.byte	$03
	.byte	$02
	.byte	$02
	.byte	$00
	.byte	$00
	.byte	$38
	.byte	$0A
	.byte	$39
	.byte	$2B
	.byte	$39
	.byte	$2B
	.byte	$39
	.byte	$2B
	.byte	$26
	.byte	$26
	.byte	$38
	.byte	$2B
	.byte	$39
	.byte	$2B
	.byte	$39
	.byte	$2B
	.byte	$3B
	.byte	$0F
	.byte	$03
	.byte	$03
	.byte	$01
	.byte	$44
	.byte	$02
	.byte	$00
	.byte	$0D
	.byte	$00
	.byte	$2B
	.byte	$48
	.byte	$2B
	.byte	$49
	.byte	$2B
	.byte	$49
	.byte	$04
	.byte	$04
	.byte	$2B
	.byte	$49
	.byte	$2B
	.byte	$49
	.byte	$2B
	.byte	$49
	.byte	$0B
	.byte	$4B
	.byte	$18
	.byte	$18
	.byte	$44
	.byte	$41
	.byte	$00
	.byte	$44
	.byte	$00
	.byte	$00
	.byte	$00
	.byte	$00
	.byte	$0A
	.byte	$18
	.byte	$18
	.byte	$02
	.byte	$02
	.byte	$39
	.byte	$2B
	.byte	$39
	.byte	$2B
	.byte	$39
	.byte	$2B
	.byte	$39
	.byte	$0F
	.byte	$3B
	.byte	$18
	.byte	$18
	.byte	$44
	.byte	$44
	.byte	$00
	.byte	$00
	.byte	$13
	.byte	$00
	.byte	$00
	.byte	$00
	.byte	$03
	.byte	$03
	.byte	$44
	.byte	$44
	.byte	$2B
	.byte	$2B
	.byte	$2B
	.byte	$2B
	.byte	$2B
	.byte	$2B
	.byte	$2B
	.byte	$18
	.byte	$0B
	.byte	$41
	.byte	$03
	.byte	$41
	.byte	$02
	.byte	$02
	.byte	$00
	.byte	$13
	.byte	$00
	.byte	$00
	.byte	$00
	.byte	$00
	.byte	$03
	.byte	$26
	.byte	$02
	.byte	$00
	.byte	$0A
	.byte	$00
	.byte	$2B
	.byte	$0A
	.byte	$2B
	.byte	$2B
	.byte	$2B
	.byte	$2B
	.byte	$2B
	.byte	$2B
	.byte	$0F
	.byte	$0F
	.byte	$41
	.byte	$41
	.byte	$12
	.byte	$01
	.byte	$13
	.byte	$41
	.byte	$00
	.byte	$41
	.byte	$00
	.byte	$44
	.byte	$13
	.byte	$00
	.byte	$00
	.byte	$09
	.byte	$09
	.byte	$2B
	.byte	$2B
	.byte	$2B
	.byte	$2B
	.byte	$0C
	.byte	$0C
	.byte	$03
	.byte	$18
	.byte	$01
	.byte	$41
	.byte	$01
	.byte	$41
	.byte	$02
	.byte	$41
	.byte	$03
	.byte	$41
	.byte	$01
	.byte	$02
	.byte	$01
	.byte	$16
	.byte	$44
	.byte	$0A
	.byte	$17
	.byte	$2B
	.byte	$0A
	.byte	$2B
	.byte	$0E
	.byte	$0F
	.byte	$00
	.byte	$03
	.byte	$18
	.byte	$01
	.byte	$01
	.byte	$41
	.byte	$01
	.byte	$41
	.byte	$01
	.byte	$41
	.byte	$44
	.byte	$01
	.byte	$17
	.byte	$44
	.byte	$00
	.byte	$17
	.byte	$09
	.byte	$38
	.byte	$2B
	.byte	$39
	.byte	$2B
	.byte	$39
	.byte	$2B
	.byte	$39
	.byte	$2B
	.byte	$18
	.byte	$03
	.byte	$01
	.byte	$41
	.byte	$01
	.byte	$02
	.byte	$44
	.byte	$16
	.byte	$17
	.byte	$00
	.byte	$00
	.byte	$00
	.byte	$0D
	.byte	$48
	.byte	$2B
	.byte	$49
	.byte	$2B
	.byte	$49
	.byte	$2B
	.byte	$49
	.byte	$2B
	.byte	$49
	.byte	$2B
	.byte	$49
	.byte	$0B
	.byte	$4B
	.byte	$03
	.byte	$03
	.byte	$01
	.byte	$11
	.byte	$44
	.byte	$15
	.byte	$17
	.byte	$00
	.byte	$0D
	.byte	$09
	.byte	$2B
	.byte	$2B
	.byte	$2B
	.byte	$2B
	.byte	$2B
	.byte	$2B
	.byte	$2B
	.byte	$2B
	.byte	$2B
	.byte	$2B
	.byte	$2B
	.byte	$2B
	.byte	$0B
	.byte	$0C
	.byte	$18
	.byte	$03
	.byte	$00
	.byte	$00
	.byte	$38
	.byte	$00
	.byte	$39
	.byte	$0A
	.byte	$39
	.byte	$2B
	.byte	$39
	.byte	$2B
	.byte	$39
	.byte	$2B
	.byte	$39
	.byte	$2B
	.byte	$39
	.byte	$2B
	.byte	$39
	.byte	$2B
	.byte	$39
	.byte	$0E
	.byte	$3B
	.byte	$00
	.byte	$18
	.byte	$18
	.byte	$00
	.byte	$00
	.byte	$00
	.byte	$04
	.byte	$00
	.byte	$17
	.byte	$0A
	.byte	$38
	.byte	$2B
	.byte	$39
	.byte	$2B
	.byte	$39
	.byte	$2B
	.byte	$39
	.byte	$2B
	.byte	$39
	.byte	$2B
	.byte	$39
	.byte	$0C
	.byte	$3B
	.byte	$00
	.byte	$18
	.byte	$18
	.byte	$44
	.byte	$00
	.byte	$02
	.byte	$00
	.byte	$00
	.byte	$00
	.byte	$00
	.byte	$3A
	.byte	$00
	.byte	$0A
	.byte	$00
	.byte	$2B
	.byte	$0A
	.byte	$2B
	.byte	$18
	.byte	$2B
	.byte	$41
	.byte	$18
	.byte	$01
	.byte	$01
	.byte	$44
	.byte	$02
	.byte	$00
	.byte	$00
	.byte	$00
	.byte	$01
	.byte	$41
	.byte	$44
	.byte	$01
	.byte	$00
	.byte	$01
	.byte	$00
	.byte	$41
	.byte	$00
	.byte	$41
	.byte	$18
	.byte	$41
	.byte	$01
	.byte	$01
	.byte	$02
	.byte	$41
	.byte	$00
	.byte	$01
	.byte	$00
	.byte	$41
	.byte	$00
	.byte	$01
	.byte	$18
	.byte	$41
	.byte	$41
	.byte	$01
	.byte	$41
	.byte	$41
	.byte	$41
	.byte	$01
	.byte	$41
	.byte	$41
	.byte	$01
	.byte	$02
	.byte	$41
	.byte	$0A
	.byte	$41
	.byte	$2B
	.byte	$41
	.byte	$2B
	.byte	$01
	.byte	$2B
	.byte	$41
	.byte	$2B
	.byte	$41
	.byte	$0C
	.byte	$01
	.byte	$00
	.byte	$41
	.byte	$01
	.byte	$01
	.byte	$02
	.byte	$02
	.byte	$16
	.byte	$16
	.byte	$00
	.byte	$00
	.byte	$38
	.byte	$09
	.byte	$39
	.byte	$2B
	.byte	$39
	.byte	$2B
	.byte	$39
	.byte	$2B
	.byte	$39
	.byte	$0E
	.byte	$39
	.byte	$00
	.byte	$3B
	.byte	$00
	.byte	$00
	.byte	$44
	.byte	$00
	.byte	$00
	.byte	$00
	.byte	$00
	.byte	$00
	.byte	$00
	.byte	$00
	.byte	$00
	.byte	$00
	.byte	$09
	.byte	$0A
	.byte	$2B
	.byte	$2B
	.byte	$2B
	.byte	$2B
	.byte	$2B
	.byte	$2B
	.byte	$2B
	.byte	$0C
	.byte	$0B
	.byte	$18
	.byte	$00
	.byte	$41
	.byte	$00
	.byte	$02
	.byte	$12
	.byte	$00
	.byte	$13
	.byte	$13
	.byte	$00
	.byte	$15
	.byte	$00
	.byte	$00
	.byte	$00
	.byte	$48
	.byte	$0A
	.byte	$49
	.byte	$2B
	.byte	$49
	.byte	$0C
	.byte	$49
	.byte	$03
	.byte	$4B
	.byte	$01
	.byte	$18
	.byte	$41
	.byte	$41
	.byte	$01
	.byte	$01
	.byte	$44
	.byte	$41
	.byte	$16
	.byte	$41
	.byte	$00
	.byte	$44
	.byte	$00
	.byte	$00
	.byte	$00
	.byte	$00
	.byte	$09
	.byte	$0A
	.byte	$2B
	.byte	$2B
	.byte	$0C
	.byte	$0B
	.byte	$00
	.byte	$00
	.byte	$00
	.byte	$18
	.byte	$03
	.byte	$01
	.byte	$01
	.byte	$41
	.byte	$01
	.byte	$41
	.byte	$01
	.byte	$01
	.byte	$01
	.byte	$41
	.byte	$41
	.byte	$44
	.byte	$44
	.byte	$17
	.byte	$17
	.byte	$00
	.byte	$0A
	.byte	$09
	.byte	$2B
	.byte	$2B
	.byte	$0B
	.byte	$0C
	.byte	$00
	.byte	$18
	.byte	$18
	.byte	$01
	.byte	$01
	.byte	$01
	.byte	$01
	.byte	$41
	.byte	$02
	.byte	$41
	.byte	$17
	.byte	$02
	.byte	$00
	.byte	$17
	.byte	$00
	.byte	$00
	.byte	$38
	.byte	$09
	.byte	$39
	.byte	$2B
	.byte	$39
	.byte	$0B
	.byte	$18
	.byte	$00
	.byte	$41
	.byte	$00
	.byte	$41
	.byte	$03
	.byte	$01
	.byte	$41
	.byte	$02
	.byte	$01
	.byte	$17
	.byte	$02
	.byte	$00
	.byte	$16
	.byte	$00
	.byte	$00
	.byte	$00
	.byte	$00
	.byte	$0A
	.byte	$09
	.byte	$2B
	.byte	$2B
	.byte	$2B
	.byte	$2B
	.byte	$0B
	.byte	$18
	.byte	$18
	.byte	$01
	.byte	$01
	.byte	$01
	.byte	$44
	.byte	$41
	.byte	$17
	.byte	$02
	.byte	$00
	.byte	$17
	.byte	$00
	.byte	$00
	.byte	$00
	.byte	$00
	.byte	$00
	.byte	$48
	.byte	$0D
	.byte	$49
	.byte	$2B
	.byte	$49
	.byte	$2B
	.byte	$03
	.byte	$03
	.byte	$41
	.byte	$01
	.byte	$01
	.byte	$01
	.byte	$01
	.byte	$41
	.byte	$41
	.byte	$41
	.byte	$01
	.byte	$41
	.byte	$02
	.byte	$02
	.byte	$17
	.byte	$17
	.byte	$00
	.byte	$00
	.byte	$00
	.byte	$09
	.byte	$0D
	.byte	$2B
	.byte	$2B
	.byte	$2B
	.byte	$0C
	.byte	$03
	.byte	$00
	.byte	$01
	.byte	$03
	.byte	$01
	.byte	$02
	.byte	$41
	.byte	$44
	.byte	$02
	.byte	$17
	.byte	$17
	.byte	$13
	.byte	$00
	.byte	$00
	.byte	$38
	.byte	$00
	.byte	$39
	.byte	$09
	.byte	$39
	.byte	$2B
	.byte	$39
	.byte	$2B
	.byte	$3B
	.byte	$03
	.byte	$03
	.byte	$41
	.byte	$01
	.byte	$01
	.byte	$41
	.byte	$01
	.byte	$01
	.byte	$44
	.byte	$44
	.byte	$17
	.byte	$15
	.byte	$00
	.byte	$00
	.byte	$38
	.byte	$00
	.byte	$39
	.byte	$0A
	.byte	$39
	.byte	$2B
	.byte	$39
	.byte	$2B
	.byte	$39
	.byte	$0C
	.byte	$3B
	.byte	$18
	.byte	$03
	.byte	$41
	.byte	$41
	.byte	$41
	.byte	$41
	.byte	$01
	.byte	$01
	.byte	$41
	.byte	$44
	.byte	$02
	.byte	$17
	.byte	$00
	.byte	$00
	.byte	$00
	.byte	$00
	.byte	$00
	.byte	$0D
	.byte	$09
	.byte	$2B
	.byte	$2B
	.byte	$2B
	.byte	$0B
	.byte	$0E
	.byte	$00
	.byte	$03
	.byte	$18
	.byte	$01
	.byte	$01
	.byte	$01
	.byte	$02
	.byte	$01
	.byte	$13
	.byte	$02
	.byte	$00
	.byte	$13
	.byte	$00
	.byte	$00
	.byte	$00
	.byte	$38
	.byte	$09
	.byte	$39
	.byte	$2B
	.byte	$39
	.byte	$2B
	.byte	$39
	.byte	$0C
	.byte	$39
	.byte	$00
	.byte	$3B
	.byte	$00
	.byte	$00
	.byte	$03
	.byte	$00
	.byte	$00
	.byte	$00
	.byte	$24
	.byte	$00
	.byte	$15
	.byte	$00
	.byte	$00
	.byte	$18
	.byte	$00
	.byte	$41
	.byte	$0A
	.byte	$02
	.byte	$2B
	.byte	$0A
	.byte	$2B
	.byte	$0C
	.byte	$0F
	.byte	$00
	.byte	$00
	.byte	$00
	.byte	$00
	.byte	$00
	.byte	$00
	.byte	$00
	.byte	$44
	.byte	$41
	.byte	$00
	.byte	$41
	.byte	$00
	.byte	$02
	.byte	$00
	.byte	$00
	.byte	$00
	.byte	$00
	.byte	$24
	.byte	$03
	.byte	$09
	.byte	$41
	.byte	$0B
	.byte	$01
	.byte	$24
	.byte	$41
	.byte	$00
	.byte	$01
	.byte	$00
	.byte	$41
	.byte	$18
	.byte	$01
	.byte	$01
	.byte	$01
	.byte	$01
	.byte	$41
	.byte	$02
	.byte	$44
	.byte	$00
	.byte	$00
	.byte	$00
	.byte	$00
	.byte	$18
	.byte	$18
	.byte	$01
	.byte	$01
	.byte	$01
	.byte	$41
	.byte	$01
	.byte	$01
	.byte	$01
	.byte	$01
	.byte	$41
	.byte	$41
	.byte	$01
	.byte	$41
	.byte	$41
	.byte	$01
	.byte	$41
	.byte	$41
	.byte	$44
	.byte	$44
	.byte	$00
	.byte	$00
	.byte	$00
	.byte	$00
	.byte	$03
	.byte	$03
	.byte	$01
	.byte	$01
	.byte	$01
	.byte	$01
	.byte	$41
	.byte	$01
	.byte	$41
	.byte	$01
	.byte	$41
	.byte	$41
	.byte	$41
	.byte	$01
	.byte	$41
	.byte	$41
	.byte	$01
	.byte	$44
	.byte	$44
	.byte	$00
	.byte	$00
	.byte	$00
	.byte	$00
	.byte	$00
	.byte	$00
	.byte	$00
	.byte	$03
	.byte	$00
	.byte	$01
	.byte	$03
	.byte	$01
	.byte	$01
	.byte	$41
	.byte	$41
	.byte	$01
	.byte	$01
	.byte	$41
	.byte	$41
	.byte	$41
	.byte	$01
	.byte	$02
	.byte	$44
	.byte	$13
	.byte	$12
	.byte	$00
	.byte	$00
	.byte	$00
	.byte	$00
	.byte	$00
	.byte	$00
	.byte	$00
	.byte	$00
	.byte	$03
	.byte	$03
	.byte	$41
	.byte	$01
	.byte	$01
	.byte	$41
	.byte	$41
	.byte	$01
	.byte	$01
	.byte	$41
	.byte	$41
	.byte	$01
	.byte	$44
	.byte	$02
	.byte	$11
	.byte	$10
	.byte	$00
	.byte	$00
	.byte	$00
	.byte	$00
	.byte	$00
	.byte	$00
	.byte	$00
	.byte	$00
	.byte	$40
	.byte	$40
	.byte	$18
	.byte	$18
	.byte	$41
	.byte	$41
	.byte	$41
	.byte	$01
	.byte	$01
	.byte	$41
	.byte	$02
	.byte	$44
	.byte	$00
	.byte	$00
	.byte	$12
	.byte	$00
	.byte	$13
	.byte	$12
	.byte	$00
	.byte	$00
	.byte	$00
	.byte	$00
	.byte	$00
	.byte	$00
	.byte	$40
	.byte	$40
	.byte	$18
	.byte	$18
	.byte	$41
	.byte	$01
	.byte	$01
	.byte	$01
	.byte	$01
	.byte	$01
	.byte	$02
	.byte	$02
	.byte	$28
	.byte	$00
	.byte	$00
	.byte	$00
	.byte	$12
	.byte	$29
	.byte	$15
	.byte	$15
	.byte	$00
	.byte	$13
	.byte	$00
	.byte	$00
	.byte	$40
	.byte	$40
	.byte	$03
	.byte	$03
	.byte	$41
	.byte	$01
	.byte	$01
	.byte	$01
	.byte	$41
	.byte	$41
	.byte	$02
	.byte	$01
	.byte	$00
	.byte	$41
	.byte	$2A
	.byte	$01
	.byte	$00
	.byte	$01
	.byte	$00
	.byte	$01
	.byte	$12
	.byte	$41
	.byte	$13
	.byte	$41
	.byte	$40
	.byte	$01
	.byte	$03
	.byte	$01
	.byte	$01
	.byte	$41
	.byte	$01
	.byte	$01
	.byte	$41
	.byte	$41
	.byte	$00
	.byte	$01
	.byte	$00
	.byte	$00
	.byte	$28
	.byte	$29
	.byte	$2A
	.byte	$00
	.byte	$28
	.byte	$00
	.byte	$00
	.byte	$00
	.byte	$00
	.byte	$00
	.byte	$00
	.byte	$00
	.byte	$00
	.byte	$29
	.byte	$2A
	.byte	$00
	.byte	$28
	.byte	$29
	.byte	$41
	.byte	$41
	.byte	$01
	.byte	$5C
	.byte	$01
	.byte	$24
	.byte	$41
	.byte	$5C
	.byte	$41
	.byte	$24
	.byte	$01
	.byte	$5C
	.byte	$01
	.byte	$24
	.byte	$01
	.byte	$5C
	.byte	$01
	.byte	$24
	.byte	$41
	.byte	$5C
	.byte	$01
	.byte	$24
	.byte	$41
	.byte	$5C
	.byte	$41
	.byte	$24
	.byte	$5C
	.byte	$41
	.byte	$24
	.byte	$41
	.byte	$5C
	.byte	$01
	.byte	$24
	.byte	$41
	.byte	$5C
	.byte	$41
	.byte	$24
	.byte	$41
	.byte	$5C
	.byte	$01
	.byte	$24
	.byte	$01
	.byte	$5C
	.byte	$01
	.byte	$24
	.byte	$41
	.byte	$5C
	.byte	$41
	.byte	$24
	.byte	$01
	.byte	$44
	.byte	$44
	.byte	$00
	.byte	$00
	.byte	$2A
	.byte	$00
	.byte	$28
	.byte	$00
	.byte	$00
	.byte	$00
	.byte	$00
	.byte	$00
	.byte	$00
	.byte	$00
	.byte	$00
	.byte	$00
	.byte	$00
	.byte	$00
	.byte	$00
	.byte	$00
	.byte	$00
	.byte	$00
	.byte	$03
	.byte	$22
	.byte	$02
	.byte	$44
	.byte	$00
	.byte	$00
	.byte	$28
	.byte	$00
	.byte	$00
	.byte	$00
	.byte	$00
	.byte	$00
	.byte	$00
	.byte	$00
	.byte	$00
	.byte	$00
	.byte	$00
	.byte	$00
	.byte	$00
	.byte	$00
	.byte	$00
	.byte	$00
	.byte	$00
	.byte	$00
	.byte	$1F
	.byte	$22
	.byte	$02
	.byte	$44
	.byte	$00
	.byte	$00
	.byte	$2A
	.byte	$00
	.byte	$00
	.byte	$00
	.byte	$00
	.byte	$05
	.byte	$00
	.byte	$06
	.byte	$00
	.byte	$06
	.byte	$00
	.byte	$06
	.byte	$00
	.byte	$06
	.byte	$00
	.byte	$06
	.byte	$00
	.byte	$07
	.byte	$18
	.byte	$03
	.byte	$44
	.byte	$00
	.byte	$2A
	.byte	$00
	.byte	$28
	.byte	$29
	.byte	$00
	.byte	$00
	.byte	$04
	.byte	$00
	.byte	$00
	.byte	$2A
	.byte	$00
	.byte	$00
	.byte	$28
	.byte	$00
	.byte	$00
	.byte	$00
	.byte	$00
	.byte	$00
	.byte	$00
	.byte	$11
	.byte	$18
	.byte	$03
	.byte	$00
	.byte	$02
	.byte	$00
	.byte	$29
	.byte	$00
	.byte	$00
	.byte	$00
	.byte	$00
	.byte	$00
	.byte	$29
	.byte	$00
	.byte	$00
	.byte	$00
	.byte	$28
	.byte	$00
	.byte	$00
	.byte	$2A
	.byte	$00
	.byte	$00
	.byte	$11
	.byte	$15
	.byte	$00
	.byte	$18
	.byte	$03
	.byte	$02
	.byte	$41
	.byte	$2A
	.byte	$44
	.byte	$00
	.byte	$00
	.byte	$00
	.byte	$00
	.byte	$00
	.byte	$00
	.byte	$00
	.byte	$2A
	.byte	$00
	.byte	$00
	.byte	$00
	.byte	$00
	.byte	$11
	.byte	$15
	.byte	$15
	.byte	$00
	.byte	$00
	.byte	$00
	.byte	$18
	.byte	$18
	.byte	$01
	.byte	$01
	.byte	$41
	.byte	$41
	.byte	$02
	.byte	$44
	.byte	$00
	.byte	$00
	.byte	$28
	.byte	$00
	.byte	$29
	.byte	$00
	.byte	$28
	.byte	$00
	.byte	$11
	.byte	$15
	.byte	$00
	.byte	$00
	.byte	$00
	.byte	$00
	.byte	$00
	.byte	$00
	.byte	$18
	.byte	$00
	.byte	$41
	.byte	$01
	.byte	$01
	.byte	$01
	.byte	$01
	.byte	$41
	.byte	$02
	.byte	$41
	.byte	$00
	.byte	$44
	.byte	$2A
	.byte	$00
	.byte	$00
	.byte	$11
	.byte	$13
	.byte	$00
	.byte	$00
	.byte	$00
	.byte	$00
	.byte	$3A
	.byte	$00
	.byte	$00
	.byte	$0D
	.byte	$0D
	.byte	$01
	.byte	$41
	.byte	$01
	.byte	$41
	.byte	$41
	.byte	$44
	.byte	$44
	.byte	$00
	.byte	$00
	.byte	$00
	.byte	$11
	.byte	$15
	.byte	$00
	.byte	$15
	.byte	$00
	.byte	$00
	.byte	$00
	.byte	$00
	.byte	$00
	.byte	$00
	.byte	$00
	.byte	$00
	.byte	$09
	.byte	$0A
	.byte	$41
	.byte	$41
	.byte	$44
	.byte	$02
	.byte	$00
	.byte	$00
	.byte	$00
	.byte	$00
	.byte	$00
	.byte	$11
	.byte	$15
	.byte	$00
	.byte	$00
	.byte	$00
	.byte	$00
	.byte	$00
	.byte	$00
	.byte	$3A
	.byte	$00
	.byte	$00
	.byte	$00
	.byte	$0D
	.byte	$09
	.byte	$2B
	.byte	$41
	.byte	$41
	.byte	$01
	.byte	$01
	.byte	$02
	.byte	$01
	.byte	$00
	.byte	$44
	.byte	$15
	.byte	$12
	.byte	$00
	.byte	$00
	.byte	$00
	.byte	$00
	.byte	$00
	.byte	$00
	.byte	$00
	.byte	$00
	.byte	$00
	.byte	$00
	.byte	$09
	.byte	$0A
	.byte	$2B
	.byte	$2B
	.byte	$01
	.byte	$41
	.byte	$41
	.byte	$41
	.byte	$01
	.byte	$01
	.byte	$44
	.byte	$02
	.byte	$00
	.byte	$00
	.byte	$13
	.byte	$12
	.byte	$00
	.byte	$00
	.byte	$00
	.byte	$00
	.byte	$00
	.byte	$00
	.byte	$00
	.byte	$3A
	.byte	$0D
	.byte	$00
	.byte	$2B
	.byte	$0A
	.byte	$01
	.byte	$41
	.byte	$41
	.byte	$01
	.byte	$01
	.byte	$01
	.byte	$41
	.byte	$02
	.byte	$02
	.byte	$00
	.byte	$00
	.byte	$00
	.byte	$13
	.byte	$12
	.byte	$00
	.byte	$00
	.byte	$00
	.byte	$00
	.byte	$00
	.byte	$00
	.byte	$00
	.byte	$00
	.byte	$00
	.byte	$00
	.byte	$41
	.byte	$01
	.byte	$01
	.byte	$41
	.byte	$01
	.byte	$41
	.byte	$02
	.byte	$02
	.byte	$00
	.byte	$00
	.byte	$00
	.byte	$11
	.byte	$13
	.byte	$00
	.byte	$00
	.byte	$00
	.byte	$00
	.byte	$00
	.byte	$00
	.byte	$00
	.byte	$00
	.byte	$00
	.byte	$00
	.byte	$00
	.byte	$41
	.byte	$41
	.byte	$01
	.byte	$02
	.byte	$02
	.byte	$00
	.byte	$00
	.byte	$00
	.byte	$00
	.byte	$11
	.byte	$15
	.byte	$00
	.byte	$00
	.byte	$00
	.byte	$00
	.byte	$00
	.byte	$00
	.byte	$00
	.byte	$3A
	.byte	$00
	.byte	$00
	.byte	$00
	.byte	$00
	.byte	$00
	.byte	$41
	.byte	$01
	.byte	$41
	.byte	$01
	.byte	$44
	.byte	$01
	.byte	$00
	.byte	$44
	.byte	$10
	.byte	$12
	.byte	$11
	.byte	$10
	.byte	$00
	.byte	$00
	.byte	$00
	.byte	$00
	.byte	$00
	.byte	$00
	.byte	$00
	.byte	$00
	.byte	$00
	.byte	$00
	.byte	$00
	.byte	$00
	.byte	$00
	.byte	$00
	.byte	$00
	.byte	$00
	.byte	$00
	.byte	$00
	.byte	$24
	.byte	$24
	.byte	$00
	.byte	$00
	.byte	$12
	.byte	$00
	.byte	$00
	.byte	$00
	.byte	$00
	.byte	$00
	.byte	$3A
	.byte	$00
	.byte	$00
	.byte	$00
	.byte	$00
	.byte	$00
	.byte	$00
	.byte	$00
	.byte	$00
	.byte	$00
	.byte	$00
	.byte	$00
	.byte	$00
	.byte	$00
	.byte	$24
	.byte	$24
	.byte	$00
	.byte	$00
	.byte	$13
	.byte	$12
	.byte	$00
	.byte	$11
	.byte	$00
	.byte	$00
	.byte	$00
	.byte	$00
	.byte	$00
	.byte	$00
	.byte	$00
	.byte	$00
	.byte	$00
	.byte	$00
	.byte	$44
	.byte	$41
	.byte	$00
	.byte	$44
	.byte	$00
	.byte	$00
	.byte	$24
	.byte	$00
	.byte	$00
	.byte	$00
	.byte	$11
	.byte	$15
	.byte	$15
	.byte	$00
	.byte	$00
	.byte	$00
	.byte	$00
	.byte	$00
	.byte	$3A
	.byte	$00
	.byte	$00
	.byte	$00
	.byte	$00
	.byte	$00
	.byte	$41
	.byte	$01
	.byte	$02
	.byte	$02
	.byte	$00
	.byte	$00
	.byte	$00
	.byte	$00
	.byte	$11
	.byte	$00
	.byte	$13
	.byte	$12
	.byte	$00
	.byte	$15
	.byte	$00
	.byte	$00
	.byte	$00
	.byte	$00
	.byte	$00
	.byte	$00
	.byte	$00
	.byte	$00
	.byte	$00
	.byte	$00
	.byte	$41
	.byte	$41
	.byte	$01
	.byte	$41
	.byte	$44
	.byte	$02
	.byte	$00
	.byte	$00
	.byte	$00
	.byte	$00
	.byte	$00
	.byte	$00
	.byte	$12
	.byte	$00
	.byte	$00
	.byte	$15
	.byte	$3A
	.byte	$00
	.byte	$00
	.byte	$00
	.byte	$00
	.byte	$00
	.byte	$00
	.byte	$0D
	.byte	$01
	.byte	$01
	.byte	$01
	.byte	$01
	.byte	$44
	.byte	$41
	.byte	$2A
	.byte	$44
	.byte	$00
	.byte	$00
	.byte	$00
	.byte	$00
	.byte	$00
	.byte	$12
	.byte	$13
	.byte	$00
	.byte	$00
	.byte	$00
	.byte	$00
	.byte	$00
	.byte	$00
	.byte	$00
	.byte	$09
	.byte	$0A
	.byte	$41
	.byte	$41
	.byte	$01
	.byte	$41
	.byte	$41
	.byte	$01
	.byte	$41
	.byte	$44
	.byte	$44
	.byte	$11
	.byte	$00
	.byte	$00
	.byte	$00
	.byte	$00
	.byte	$15
	.byte	$00
	.byte	$00
	.byte	$00
	.byte	$3A
	.byte	$00
	.byte	$00
	.byte	$00
	.byte	$00
	.byte	$00
	.byte	$41
	.byte	$41
	.byte	$01
	.byte	$02
	.byte	$02
	.byte	$00
	.byte	$2A
	.byte	$00
	.byte	$12
	.byte	$00
	.byte	$13
	.byte	$12
	.byte	$00
	.byte	$13
	.byte	$00
	.byte	$13
	.byte	$00
	.byte	$00
	.byte	$00
	.byte	$00
	.byte	$00
	.byte	$00
	.byte	$00
	.byte	$00
	.byte	$41
	.byte	$41
	.byte	$02
	.byte	$02
	.byte	$2A
	.byte	$00
	.byte	$28
	.byte	$29
	.byte	$00
	.byte	$00
	.byte	$00
	.byte	$00
	.byte	$10
	.byte	$12
	.byte	$00
	.byte	$13
	.byte	$00
	.byte	$15
	.byte	$00
	.byte	$00
	.byte	$00
	.byte	$3A
	.byte	$00
	.byte	$00
	.byte	$41
	.byte	$01
	.byte	$44
	.byte	$41
	.byte	$28
	.byte	$02
	.byte	$00
	.byte	$00
	.byte	$28
	.byte	$29
	.byte	$00
	.byte	$00
	.byte	$00
	.byte	$00
	.byte	$12
	.byte	$00
	.byte	$13
	.byte	$10
	.byte	$13
	.byte	$00
	.byte	$00
	.byte	$00
	.byte	$00
	.byte	$00
	.byte	$41
	.byte	$01
	.byte	$01
	.byte	$01
	.byte	$41
	.byte	$41
	.byte	$02
	.byte	$41
	.byte	$00
	.byte	$44
	.byte	$00
	.byte	$00
	.byte	$00
	.byte	$00
	.byte	$00
	.byte	$00
	.byte	$12
	.byte	$11
	.byte	$13
	.byte	$12
	.byte	$15
	.byte	$13
	.byte	$00
	.byte	$03
	.byte	$41
	.byte	$41
	.byte	$41
	.byte	$41
	.byte	$01
	.byte	$41
	.byte	$01
	.byte	$01
	.byte	$02
	.byte	$41
	.byte	$00
	.byte	$44
	.byte	$00
	.byte	$00
	.byte	$11
	.byte	$10
	.byte	$00
	.byte	$00
	.byte	$00
	.byte	$00
	.byte	$12
	.byte	$00
	.byte	$18
	.byte	$03
	.byte	$41
	.byte	$01
	.byte	$01
	.byte	$41
	.byte	$01
	.byte	$01
	.byte	$01
	.byte	$41
	.byte	$41
	.byte	$41
	.byte	$44
	.byte	$02
	.byte	$00
	.byte	$11
	.byte	$11
	.byte	$00
	.byte	$00
	.byte	$00
	.byte	$00
	.byte	$00
	.byte	$00
	.byte	$00
	.byte	$18
	.byte	$03
	.byte	$41
	.byte	$41
	.byte	$01
	.byte	$01
	.byte	$01
	.byte	$41
	.byte	$01
	.byte	$01
	.byte	$01
	.byte	$44
	.byte	$02
	.byte	$00
	.byte	$00
	.byte	$00
	.byte	$00
	.byte	$00
	.byte	$00
	.byte	$00
	.byte	$00
	.byte	$00
	.byte	$00
	.byte	$00
	.byte	$03
	.byte	$18
	.byte	$2B
	.byte	$2B
	.byte	$2B
	.byte	$2B
	.byte	$2B
	.byte	$2B
	.byte	$2B
	.byte	$2B
	.byte	$2B
	.byte	$2B
	.byte	$0B
	.byte	$2B
	.byte	$00
	.byte	$0B
	.byte	$00
	.byte	$00
	.byte	$00
	.byte	$00
	.byte	$00
	.byte	$00
	.byte	$00
	.byte	$00
	.byte	$18
	.byte	$03
	.byte	$39
	.byte	$2B
	.byte	$39
	.byte	$2B
	.byte	$39
	.byte	$2B
	.byte	$39
	.byte	$2B
	.byte	$39
	.byte	$2B
	.byte	$39
	.byte	$2B
	.byte	$39
	.byte	$2B
	.byte	$39
	.byte	$2B
	.byte	$39
	.byte	$0B
	.byte	$39
	.byte	$00
	.byte	$3B
	.byte	$00
	.byte	$03
	.byte	$18
	.byte	$49
	.byte	$2B
	.byte	$49
	.byte	$2B
	.byte	$49
	.byte	$2B
	.byte	$49
	.byte	$2B
	.byte	$49
	.byte	$2B
	.byte	$49
	.byte	$2B
	.byte	$49
	.byte	$2B
	.byte	$49
	.byte	$2B
	.byte	$49
	.byte	$0C
	.byte	$4B
	.byte	$00
	.byte	$00
	.byte	$00
	.byte	$18
	.byte	$03
	.byte	$39
	.byte	$2B
	.byte	$39
	.byte	$2B
	.byte	$39
	.byte	$2B
	.byte	$39
	.byte	$2B
	.byte	$39
	.byte	$2B
	.byte	$39
	.byte	$2B
	.byte	$39
	.byte	$2B
	.byte	$39
	.byte	$0C
	.byte	$39
	.byte	$00
	.byte	$39
	.byte	$00
	.byte	$3B
	.byte	$00
	.byte	$18
	.byte	$03
	.byte	$49
	.byte	$2B
	.byte	$49
	.byte	$2B
	.byte	$49
	.byte	$2B
	.byte	$49
	.byte	$2B
	.byte	$49
	.byte	$2B
	.byte	$49
	.byte	$2B
	.byte	$49
	.byte	$0B
	.byte	$49
	.byte	$00
	.byte	$4B
	.byte	$00
	.byte	$00
	.byte	$00
	.byte	$18
	.byte	$18
	.byte	$41
	.byte	$41
	.byte	$39
	.byte	$2B
	.byte	$39
	.byte	$2B
	.byte	$39
	.byte	$2B
	.byte	$39
	.byte	$2B
	.byte	$39
	.byte	$2B
	.byte	$39
	.byte	$2B
	.byte	$39
	.byte	$0C
	.byte	$39
	.byte	$00
	.byte	$39
	.byte	$00
	.byte	$3B
	.byte	$18
	.byte	$03
	.byte	$01
	.byte	$01
	.byte	$02
	.byte	$2B
	.byte	$01
	.byte	$2B
	.byte	$41
	.byte	$2B
	.byte	$01
	.byte	$2B
	.byte	$01
	.byte	$2B
	.byte	$41
	.byte	$2B
	.byte	$41
	.byte	$0F
	.byte	$41
	.byte	$00
	.byte	$01
	.byte	$03
	.byte	$01
	.byte	$41
	.byte	$02
	.byte	$02
	.byte	$08
	.byte	$25
	.byte	$3C
	.byte	$25
	.byte	$00
	.byte	$20
	.byte	$00
	.byte	$20
	.byte	$00
	.byte	$08
	.byte	$00
	.byte	$08
	.byte	$00
	.byte	$20
	.byte	$00
	.byte	$20
	.byte	$00
	.byte	$25
	.byte	$00
	.byte	$08
	.byte	$00
	.byte	$20
	.byte	$00
	.byte	$08
	.byte	$00
	.byte	$3D
	.byte	$00
	.byte	$2C
	.byte	$2C
	.byte	$2C
	.byte	$2C
	.byte	$2C
	.byte	$2C
	.byte	$2C
	.byte	$2C
	.byte	$2C
	.byte	$2C
	.byte	$2C
	.byte	$2C
	.byte	$2C
	.byte	$2C
	.byte	$2C
	.byte	$2C
	.byte	$20
	.byte	$00
	.byte	$08
	.byte	$40
	.byte	$20
	.byte	$21
	.byte	$3C
	.byte	$3D
	.byte	$20
	.byte	$3C
	.byte	$3F
	.byte	$00
	.byte	$2C
	.byte	$2C
	.byte	$2C
	.byte	$2D
	.byte	$2C
	.byte	$2C
	.byte	$2C
	.byte	$2C
	.byte	$2C
	.byte	$2C
	.byte	$2C
	.byte	$2C
	.byte	$2C
	.byte	$2C
	.byte	$40
	.byte	$40
	.byte	$21
	.byte	$21
	.byte	$08
	.byte	$08
	.byte	$3D
	.byte	$20
	.byte	$00
	.byte	$00
	.byte	$2C
	.byte	$2C
	.byte	$2C
	.byte	$2C
	.byte	$2C
	.byte	$2C
	.byte	$2C
	.byte	$2C
	.byte	$2C
	.byte	$2C
	.byte	$2C
	.byte	$2C
	.byte	$2C
	.byte	$2D
	.byte	$40
	.byte	$40
	.byte	$21
	.byte	$21
	.byte	$08
	.byte	$25
	.byte	$20
	.byte	$3C
	.byte	$00
	.byte	$00
	.byte	$2C
	.byte	$2C
	.byte	$2C
	.byte	$2C
	.byte	$2C
	.byte	$2C
	.byte	$2C
	.byte	$2C
	.byte	$2C
	.byte	$2C
	.byte	$2C
	.byte	$2C
	.byte	$2C
	.byte	$2C
	.byte	$40
	.byte	$40
	.byte	$21
	.byte	$21
	.byte	$08
	.byte	$08
	.byte	$3D
	.byte	$3C
	.byte	$00
	.byte	$00
	.byte	$2C
	.byte	$2C
	.byte	$2C
	.byte	$2C
	.byte	$2C
	.byte	$2C
	.byte	$2C
	.byte	$2C
	.byte	$2C
	.byte	$2C
	.byte	$2C
	.byte	$2C
	.byte	$2C
	.byte	$2C
	.byte	$40
	.byte	$40
	.byte	$21
	.byte	$21
	.byte	$25
	.byte	$08
	.byte	$3D
	.byte	$20
	.byte	$00
	.byte	$00
	.byte	$2C
	.byte	$2C
	.byte	$2C
	.byte	$2C
	.byte	$2C
	.byte	$2C
	.byte	$2C
	.byte	$2C
	.byte	$2C
	.byte	$2C
	.byte	$2D
	.byte	$2C
	.byte	$2C
	.byte	$2C
	.byte	$40
	.byte	$40
	.byte	$21
	.byte	$21
	.byte	$08
	.byte	$25
	.byte	$3C
	.byte	$3D
	.byte	$00
	.byte	$3C
	.byte	$2C
	.byte	$3C
	.byte	$2C
	.byte	$08
	.byte	$2C
	.byte	$20
	.byte	$2C
	.byte	$3C
	.byte	$2C
	.byte	$20
	.byte	$2C
	.byte	$3C
	.byte	$2C
	.byte	$20
	.byte	$40
	.byte	$3C
	.byte	$21
	.byte	$08
	.byte	$08
	.byte	$3C
	.byte	$3C
	.byte	$3D
	.byte	$3D
	.byte	$00
	.byte	$3D
	.byte	$00
	.byte	$20
	.byte	$00
	.byte	$08
	.byte	$00
	.byte	$3D
	.byte	$00
	.byte	$08
	.byte	$00
	.byte	$3D
	.byte	$00
	.byte	$08
	.byte	$00
	.byte	$3D
	.byte	$00
	.byte	$20
	.byte	$00
	.byte	$3D
	.byte	$08
	.byte	$08
	.byte	$3C
	.byte	$00
	.byte	$05
	.byte	$2C
	.byte	$06
	.byte	$2C
	.byte	$06
	.byte	$2C
	.byte	$06
	.byte	$2C
	.byte	$06
	.byte	$2C
	.byte	$06
	.byte	$2C
	.byte	$06
	.byte	$2C
	.byte	$06
	.byte	$2C
	.byte	$06
	.byte	$2C
	.byte	$07
	.byte	$3C
	.byte	$3D
	.byte	$3D
	.byte	$00
	.byte	$00
	.byte	$00
	.byte	$42
	.byte	$2C
	.byte	$42
	.byte	$2C
	.byte	$42
	.byte	$2C
	.byte	$42
	.byte	$2C
	.byte	$42
	.byte	$2C
	.byte	$42
	.byte	$2C
	.byte	$42
	.byte	$2C
	.byte	$42
	.byte	$2C
	.byte	$42
	.byte	$2C
	.byte	$00
	.byte	$2C
	.byte	$2C
	.byte	$2C
	.byte	$2C
	.byte	$2C
	.byte	$2C
	.byte	$2C
	.byte	$2C
	.byte	$2C
	.byte	$2C
	.byte	$2C
	.byte	$2C
	.byte	$2C
	.byte	$2C
	.byte	$2C
	.byte	$2C
	.byte	$2C
	.byte	$2C
	.byte	$2C
	.byte	$43
	.byte	$27
	.byte	$07
	.byte	$42
	.byte	$08
	.byte	$08
	.byte	$3C
	.byte	$3D
	.byte	$3F
	.byte	$00
	.byte	$2C
	.byte	$2C
	.byte	$2C
	.byte	$2C
	.byte	$2C
	.byte	$43
	.byte	$2C
	.byte	$06
	.byte	$2C
	.byte	$06
	.byte	$2C
	.byte	$06
	.byte	$2C
	.byte	$06
	.byte	$2C
	.byte	$06
	.byte	$2C
	.byte	$07
	.byte	$3C
	.byte	$3D
	.byte	$08
	.byte	$3C
	.byte	$00
	.byte	$00
	.byte	$2C
	.byte	$2C
	.byte	$2C
	.byte	$2C
	.byte	$27
	.byte	$2C
	.byte	$42
	.byte	$2C
	.byte	$42
	.byte	$2C
	.byte	$42
	.byte	$2C
	.byte	$42
	.byte	$2C
	.byte	$42
	.byte	$2C
	.byte	$42
	.byte	$2C
	.byte	$24
	.byte	$24
	.byte	$3D
	.byte	$08
	.byte	$05
	.byte	$00
	.byte	$06
	.byte	$42
	.byte	$06
	.byte	$42
	.byte	$06
	.byte	$42
	.byte	$14
	.byte	$42
	.byte	$3F
	.byte	$2C
	.byte	$2C
	.byte	$2C
	.byte	$2C
	.byte	$2C
	.byte	$43
	.byte	$27
	.byte	$07
	.byte	$42
	.byte	$08
	.byte	$3C
	.byte	$3C
	.byte	$3D
	.byte	$00
	.byte	$20
	.byte	$2C
	.byte	$3C
	.byte	$2C
	.byte	$08
	.byte	$2C
	.byte	$20
	.byte	$2C
	.byte	$3C
	.byte	$2C
	.byte	$20
	.byte	$2E
	.byte	$08
	.byte	$2C
	.byte	$3F
	.byte	$2C
	.byte	$2C
	.byte	$08
	.byte	$3C
	.byte	$3D
	.byte	$08
	.byte	$08
	.byte	$00
	.byte	$20
	.byte	$00
	.byte	$3D
	.byte	$00
	.byte	$20
	.byte	$00
	.byte	$08
	.byte	$00
	.byte	$3D
	.byte	$00
	.byte	$20
	.byte	$00
	.byte	$3C
	.byte	$3D
	.byte	$00
	.byte	$00
	.byte	$2C
	.byte	$2C
	.byte	$3D
	.byte	$00
	.byte	$08
	.byte	$40
	.byte	$2C
	.byte	$2C
	.byte	$2C
	.byte	$2C
	.byte	$2C
	.byte	$2C
	.byte	$2C
	.byte	$2C
	.byte	$2C
	.byte	$2C
	.byte	$2C
	.byte	$2C
	.byte	$2C
	.byte	$2C
	.byte	$08
	.byte	$25
	.byte	$00
	.byte	$00
	.byte	$2C
	.byte	$2E
	.byte	$2C
	.byte	$2C
	.byte	$40
	.byte	$08
	.byte	$06
	.byte	$42
	.byte	$06
	.byte	$42
	.byte	$06
	.byte	$42
	.byte	$06
	.byte	$42
	.byte	$06
	.byte	$42
	.byte	$06
	.byte	$42
	.byte	$06
	.byte	$42
	.byte	$08
	.byte	$20
	.byte	$00
	.byte	$00
	.byte	$2C
	.byte	$2C
	.byte	$2C
	.byte	$2C
	.byte	$40
	.byte	$40
	.byte	$2C
	.byte	$2C
	.byte	$2C
	.byte	$2C
	.byte	$2C
	.byte	$2C
	.byte	$2C
	.byte	$2C
	.byte	$2C
	.byte	$2C
	.byte	$2C
	.byte	$2C
	.byte	$2C
	.byte	$2D
	.byte	$08
	.byte	$25
	.byte	$00
	.byte	$00
	.byte	$2C
	.byte	$2C
	.byte	$2C
	.byte	$2C
	.byte	$22
	.byte	$1F
	.byte	$06
	.byte	$42
	.byte	$06
	.byte	$42
	.byte	$06
	.byte	$42
	.byte	$06
	.byte	$42
	.byte	$06
	.byte	$42
	.byte	$06
	.byte	$42
	.byte	$06
	.byte	$42
	.byte	$3C
	.byte	$3D
	.byte	$00
	.byte	$00
	.byte	$2C
	.byte	$2C
	.byte	$2C
	.byte	$2C
	.byte	$22
	.byte	$40
	.byte	$2C
	.byte	$2C
	.byte	$2C
	.byte	$2D
	.byte	$2C
	.byte	$2C
	.byte	$2C
	.byte	$2C
	.byte	$2C
	.byte	$2C
	.byte	$2C
	.byte	$2C
	.byte	$2F
	.byte	$2C
	.byte	$25
	.byte	$08
	.byte	$00
	.byte	$00
	.byte	$2C
	.byte	$2C
	.byte	$2C
	.byte	$2D
	.byte	$40
	.byte	$40
	.byte	$06
	.byte	$42
	.byte	$06
	.byte	$42
	.byte	$06
	.byte	$42
	.byte	$06
	.byte	$42
	.byte	$06
	.byte	$42
	.byte	$06
	.byte	$42
	.byte	$06
	.byte	$42
	.byte	$3C
	.byte	$3D
	.byte	$00
	.byte	$00
	.byte	$2C
	.byte	$2C
	.byte	$2C
	.byte	$2C
	.byte	$40
	.byte	$40
	.byte	$2C
	.byte	$08
	.byte	$2C
	.byte	$20
	.byte	$2C
	.byte	$08
	.byte	$2C
	.byte	$3C
	.byte	$2C
	.byte	$20
	.byte	$2C
	.byte	$08
	.byte	$2C
	.byte	$3C
	.byte	$3C
	.byte	$3D
	.byte	$54
	.byte	$20
	.byte	$55
	.byte	$20
	.byte	$3C
	.byte	$3D
	.byte	$08
	.byte	$3C
	.byte	$3C
	.byte	$3D
	.byte	$20
	.byte	$00
	.byte	$20
	.byte	$00
	.byte	$20
	.byte	$00
	.byte	$3C
	.byte	$3D
	.byte	$25
	.byte	$00
	.byte	$20
	.byte	$00
	.byte	$20
	.byte	$00
	.byte	$25
	.byte	$00
	.byte	$20
	.byte	$00
	.byte	$3C
	.byte	$3D
	.byte	$08
	.byte	$3C
	.byte	$20
	.byte	$20
	.byte	$00
	.byte	$00
	.byte	$2C
	.byte	$2C
	.byte	$2C
	.byte	$43
	.byte	$00
	.byte	$07
	.byte	$00
	.byte	$20
	.byte	$2C
	.byte	$08
	.byte	$08
	.byte	$00
	.byte	$00
	.byte	$00
	.byte	$2C
	.byte	$2C
	.byte	$00
	.byte	$2C
	.byte	$3D
	.byte	$25
	.byte	$08
	.byte	$3C
	.byte	$00
	.byte	$00
	.byte	$2C
	.byte	$2C
	.byte	$27
	.byte	$2C
	.byte	$42
	.byte	$2F
	.byte	$3C
	.byte	$3D
	.byte	$00
	.byte	$00
	.byte	$00
	.byte	$2C
	.byte	$2C
	.byte	$2C
	.byte	$2C
	.byte	$2C
	.byte	$2C
	.byte	$2C
	.byte	$25
	.byte	$08
	.byte	$3D
	.byte	$20
	.byte	$00
	.byte	$00
	.byte	$2C
	.byte	$2C
	.byte	$2E
	.byte	$2C
	.byte	$27
	.byte	$2C
	.byte	$20
	.byte	$08
	.byte	$08
	.byte	$00
	.byte	$30
	.byte	$2C
	.byte	$36
	.byte	$2C
	.byte	$36
	.byte	$2C
	.byte	$25
	.byte	$00
	.byte	$20
	.byte	$08
	.byte	$25
	.byte	$08
	.byte	$00
	.byte	$00
	.byte	$2C
	.byte	$2C
	.byte	$2C
	.byte	$2E
	.byte	$2C
	.byte	$2C
	.byte	$20
	.byte	$25
	.byte	$00
	.byte	$00
	.byte	$2C
	.byte	$2C
	.byte	$2D
	.byte	$2C
	.byte	$2C
	.byte	$2D
	.byte	$2C
	.byte	$2C
	.byte	$20
	.byte	$08
	.byte	$3C
	.byte	$3D
	.byte	$00
	.byte	$00
	.byte	$2C
	.byte	$2C
	.byte	$2C
	.byte	$2C
	.byte	$2C
	.byte	$2F
	.byte	$3C
	.byte	$3D
	.byte	$00
	.byte	$00
	.byte	$2C
	.byte	$2C
	.byte	$2C
	.byte	$2C
	.byte	$2C
	.byte	$2C
	.byte	$2C
	.byte	$2C
	.byte	$08
	.byte	$25
	.byte	$08
	.byte	$20
	.byte	$00
	.byte	$00
	.byte	$2C
	.byte	$2C
	.byte	$2C
	.byte	$43
	.byte	$27
	.byte	$07
	.byte	$3C
	.byte	$3D
	.byte	$08
	.byte	$00
	.byte	$30
	.byte	$2C
	.byte	$36
	.byte	$2C
	.byte	$36
	.byte	$2C
	.byte	$08
	.byte	$00
	.byte	$3C
	.byte	$3D
	.byte	$20
	.byte	$08
	.byte	$00
	.byte	$00
	.byte	$2C
	.byte	$2C
	.byte	$27
	.byte	$2C
	.byte	$42
	.byte	$2C
	.byte	$20
	.byte	$3C
	.byte	$00
	.byte	$00
	.byte	$2C
	.byte	$2C
	.byte	$2C
	.byte	$2C
	.byte	$2E
	.byte	$2C
	.byte	$2F
	.byte	$27
	.byte	$20
	.byte	$3C
	.byte	$3C
	.byte	$3D
	.byte	$00
	.byte	$00
	.byte	$2C
	.byte	$2C
	.byte	$2C
	.byte	$05
	.byte	$2C
	.byte	$07
	.byte	$3D
	.byte	$20
	.byte	$00
	.byte	$00
	.byte	$2C
	.byte	$2C
	.byte	$2C
	.byte	$2C
	.byte	$2C
	.byte	$2C
	.byte	$2C
	.byte	$2C
	.byte	$3D
	.byte	$08
	.byte	$3C
	.byte	$3D
	.byte	$00
	.byte	$0B
	.byte	$3F
	.byte	$00
	.byte	$27
	.byte	$00
	.byte	$22
	.byte	$22
	.byte	$20
	.byte	$25
	.byte	$00
	.byte	$00
	.byte	$2C
	.byte	$2C
	.byte	$2C
	.byte	$2C
	.byte	$2E
	.byte	$2C
	.byte	$2C
	.byte	$2C
	.byte	$3C
	.byte	$3D
	.byte	$25
	.byte	$20
	.byte	$2B
	.byte	$2B
	.byte	$0B
	.byte	$2B
	.byte	$00
	.byte	$0F
	.byte	$19
	.byte	$22
	.byte	$3C
	.byte	$3D
	.byte	$05
	.byte	$00
	.byte	$14
	.byte	$42
	.byte	$3F
	.byte	$2E
	.byte	$2C
	.byte	$2C
	.byte	$5F
	.byte	$27
	.byte	$25
	.byte	$08
	.byte	$20
	.byte	$3C
	.byte	$2B
	.byte	$2B
	.byte	$2B
	.byte	$2B
	.byte	$0B
	.byte	$05
	.byte	$22
	.byte	$07
	.byte	$25
	.byte	$20
	.byte	$00
	.byte	$00
	.byte	$2C
	.byte	$3F
	.byte	$2C
	.byte	$2C
	.byte	$2C
	.byte	$2C
	.byte	$2C
	.byte	$2C
	.byte	$08
	.byte	$3C
	.byte	$3D
	.byte	$01
	.byte	$3C
	.byte	$3D
	.byte	$08
	.byte	$01
	.byte	$08
	.byte	$01
	.byte	$20
	.byte	$41
	.byte	$20
	.byte	$44
	.byte	$02
	.byte	$0B
	.byte	$00
	.byte	$00
	.byte	$2C
	.byte	$3F
	.byte	$2C
	.byte	$3F
	.byte	$2E
	.byte	$2C
	.byte	$3D
	.byte	$08
	.byte	$41
	.byte	$41
	.byte	$01
	.byte	$02
	.byte	$01
	.byte	$00
	.byte	$44
	.byte	$00
	.byte	$00
	.byte	$48
	.byte	$0A
	.byte	$49
	.byte	$2B
	.byte	$49
	.byte	$0B
	.byte	$49
	.byte	$00
	.byte	$4B
	.byte	$00
	.byte	$00
	.byte	$3F
	.byte	$2C
	.byte	$08
	.byte	$3C
	.byte	$44
	.byte	$41
	.byte	$00
	.byte	$41
	.byte	$00
	.byte	$44
	.byte	$00
	.byte	$00
	.byte	$00
	.byte	$00
	.byte	$0D
	.byte	$0D
	.byte	$2B
	.byte	$2B
	.byte	$2B
	.byte	$2B
	.byte	$0B
	.byte	$0C
	.byte	$3F
	.byte	$00
	.byte	$3C
	.byte	$3D
	.byte	$3D
	.byte	$08
	.byte	$41
	.byte	$02
	.byte	$02
	.byte	$00
	.byte	$00
	.byte	$00
	.byte	$38
	.byte	$00
	.byte	$39
	.byte	$00
	.byte	$39
	.byte	$09
	.byte	$39
	.byte	$2B
	.byte	$39
	.byte	$0C
	.byte	$39
	.byte	$00
	.byte	$3B
	.byte	$04
	.byte	$40
	.byte	$40
	.byte	$21
	.byte	$21
	.byte	$44
	.byte	$41
	.byte	$00
	.byte	$02
	.byte	$00
	.byte	$00
	.byte	$00
	.byte	$00
	.byte	$48
	.byte	$09
	.byte	$49
	.byte	$2B
	.byte	$49
	.byte	$0B
	.byte	$4B
	.byte	$00
	.byte	$00
	.byte	$00
	.byte	$26
	.byte	$26
	.byte	$40
	.byte	$40
	.byte	$21
	.byte	$21
	.byte	$44
	.byte	$41
	.byte	$00
	.byte	$41
	.byte	$00
	.byte	$44
	.byte	$0D
	.byte	$38
	.byte	$2B
	.byte	$39
	.byte	$2B
	.byte	$39
	.byte	$2B
	.byte	$39
	.byte	$0F
	.byte	$39
	.byte	$00
	.byte	$3B
	.byte	$26
	.byte	$04
	.byte	$40
	.byte	$40
	.byte	$21
	.byte	$21
	.byte	$41
	.byte	$02
	.byte	$44
	.byte	$00
	.byte	$00
	.byte	$0D
	.byte	$09
	.byte	$2B
	.byte	$2B
	.byte	$2B
	.byte	$2B
	.byte	$2B
	.byte	$2B
	.byte	$2B
	.byte	$0B
	.byte	$05
	.byte	$00
	.byte	$07
	.byte	$26
	.byte	$26
	.byte	$40
	.byte	$40
	.byte	$21
	.byte	$21
	.byte	$41
	.byte	$02
	.byte	$44
	.byte	$00
	.byte	$00
	.byte	$00
	.byte	$0A
	.byte	$48
	.byte	$2B
	.byte	$49
	.byte	$2B
	.byte	$49
	.byte	$2B
	.byte	$49
	.byte	$0E
	.byte	$4B
	.byte	$22
	.byte	$37
	.byte	$26
	.byte	$26
	.byte	$40
	.byte	$40
	.byte	$21
	.byte	$21
	.byte	$41
	.byte	$41
	.byte	$41
	.byte	$02
	.byte	$02
	.byte	$00
	.byte	$00
	.byte	$11
	.byte	$00
	.byte	$15
	.byte	$00
	.byte	$13
	.byte	$0A
	.byte	$00
	.byte	$0B
	.byte	$05
	.byte	$22
	.byte	$07
	.byte	$26
	.byte	$04
	.byte	$40
	.byte	$40
	.byte	$21
	.byte	$21
	.byte	$44
	.byte	$01
	.byte	$00
	.byte	$44
	.byte	$15
	.byte	$00
	.byte	$12
	.byte	$00
	.byte	$11
	.byte	$12
	.byte	$00
	.byte	$00
	.byte	$11
	.byte	$15
	.byte	$15
	.byte	$13
	.byte	$00
	.byte	$00
	.byte	$04
	.byte	$04
	.byte	$40
	.byte	$40
	.byte	$21
	.byte	$21
	.byte	$01
	.byte	$41
	.byte	$01
	.byte	$44
	.byte	$02
	.byte	$00
	.byte	$00
	.byte	$00
	.byte	$00
	.byte	$00
	.byte	$11
	.byte	$10
	.byte	$12
	.byte	$00
	.byte	$00
	.byte	$12
	.byte	$15
	.byte	$13
	.byte	$26
	.byte	$26
	.byte	$40
	.byte	$40
	.byte	$21
	.byte	$21
	.byte	$02
	.byte	$01
	.byte	$28
	.byte	$44
	.byte	$00
	.byte	$00
	.byte	$28
	.byte	$00
	.byte	$00
	.byte	$00
	.byte	$12
	.byte	$00
	.byte	$13
	.byte	$12
	.byte	$00
	.byte	$00
	.byte	$12
	.byte	$00
	.byte	$26
	.byte	$04
	.byte	$40
	.byte	$40
	.byte	$21
	.byte	$21
	.byte	$01
	.byte	$02
	.byte	$44
	.byte	$00
	.byte	$28
	.byte	$00
	.byte	$00
	.byte	$00
	.byte	$28
	.byte	$29
	.byte	$00
	.byte	$00
	.byte	$00
	.byte	$00
	.byte	$15
	.byte	$12
	.byte	$12
	.byte	$15
	.byte	$04
	.byte	$04
	.byte	$40
	.byte	$40
	.byte	$21
	.byte	$21
	.byte	$41
	.byte	$41
	.byte	$44
	.byte	$41
	.byte	$00
	.byte	$44
	.byte	$28
	.byte	$00
	.byte	$2A
	.byte	$00
	.byte	$00
	.byte	$00
	.byte	$00
	.byte	$00
	.byte	$00
	.byte	$00
	.byte	$11
	.byte	$13
	.byte	$26
	.byte	$00
	.byte	$40
	.byte	$40
	.byte	$21
	.byte	$21
	.byte	$41
	.byte	$44
	.byte	$02
	.byte	$00
	.byte	$28
	.byte	$00
	.byte	$2A
	.byte	$00
	.byte	$00
	.byte	$00
	.byte	$00
	.byte	$11
	.byte	$11
	.byte	$00
	.byte	$11
	.byte	$13
	.byte	$00
	.byte	$00
	.byte	$00
	.byte	$00
	.byte	$40
	.byte	$40
	.byte	$21
	.byte	$21
	.byte	$01
	.byte	$41
	.byte	$02
	.byte	$44
	.byte	$00
	.byte	$00
	.byte	$00
	.byte	$00
	.byte	$00
	.byte	$00
	.byte	$12
	.byte	$11
	.byte	$11
	.byte	$00
	.byte	$00
	.byte	$00
	.byte	$00
	.byte	$00
	.byte	$00
	.byte	$26
	.byte	$40
	.byte	$40
	.byte	$21
	.byte	$21
	.byte	$01
	.byte	$41
	.byte	$01
	.byte	$01
	.byte	$02
	.byte	$01
	.byte	$11
	.byte	$02
	.byte	$15
	.byte	$00
	.byte	$15
	.byte	$12
	.byte	$00
	.byte	$00
	.byte	$00
	.byte	$00
	.byte	$00
	.byte	$00
	.byte	$00
	.byte	$00
	.byte	$40
	.byte	$40
	.byte	$21
	.byte	$21
	.byte	$41
	.byte	$00
	.byte	$01
	.byte	$00
	.byte	$02
	.byte	$00
	.byte	$00
	.byte	$00
	.byte	$00
	.byte	$00
	.byte	$00
	.byte	$00
	.byte	$15
	.byte	$00
	.byte	$00
	.byte	$00
	.byte	$00
	.byte	$09
	.byte	$09
	.byte	$26
	.byte	$40
	.byte	$40
	.byte	$21
	.byte	$21
	.byte	$01
	.byte	$00
	.byte	$41
	.byte	$24
	.byte	$02
	.byte	$00
	.byte	$00
	.byte	$00
	.byte	$00
	.byte	$00
	.byte	$3A
	.byte	$00
	.byte	$00
	.byte	$00
	.byte	$09
	.byte	$3A
	.byte	$2B
	.byte	$2B
	.byte	$2B
	.byte	$2B
	.byte	$40
	.byte	$40
	.byte	$21
	.byte	$21
	.byte	$00
	.byte	$41
	.byte	$24
	.byte	$41
	.byte	$00
	.byte	$01
	.byte	$24
	.byte	$02
	.byte	$00
	.byte	$00
	.byte	$00
	.byte	$48
	.byte	$09
	.byte	$49
	.byte	$2B
	.byte	$49
	.byte	$2B
	.byte	$49
	.byte	$2B
	.byte	$26
	.byte	$40
	.byte	$40
	.byte	$21
	.byte	$21
	.byte	$41
	.byte	$00
	.byte	$01
	.byte	$24
	.byte	$41
	.byte	$00
	.byte	$02
	.byte	$24
	.byte	$00
	.byte	$00
	.byte	$0D
	.byte	$09
	.byte	$2B
	.byte	$2B
	.byte	$2B
	.byte	$2B
	.byte	$2B
	.byte	$2B
	.byte	$26
	.byte	$2B
	.byte	$40
	.byte	$40
	.byte	$21
	.byte	$21
	.byte	$00
	.byte	$41
	.byte	$24
	.byte	$01
	.byte	$00
	.byte	$41
	.byte	$24
	.byte	$02
	.byte	$00
	.byte	$09
	.byte	$3A
	.byte	$2B
	.byte	$2B
	.byte	$2B
	.byte	$2B
	.byte	$2B
	.byte	$2B
	.byte	$2B
	.byte	$2B
	.byte	$04
	.byte	$40
	.byte	$40
	.byte	$21
	.byte	$21
	.byte	$45
	.byte	$46
	.byte	$47
	.byte	$47
	.byte	$00
	.byte	$00
	.byte	$00
	.byte	$00
	.byte	$4C
	.byte	$00
	.byte	$2B
	.byte	$00
	.byte	$2B
	.byte	$4C
	.byte	$3A
	.byte	$2B
	.byte	$2B
	.byte	$2B
	.byte	$2B
	.byte	$2B
	.byte	$40
	.byte	$40
	.byte	$21
	.byte	$21
	.byte	$45
	.byte	$45
	.byte	$46
	.byte	$45
	.byte	$47
	.byte	$46
	.byte	$00
	.byte	$47
	.byte	$00
	.byte	$00
	.byte	$00
	.byte	$00
	.byte	$00
	.byte	$00
	.byte	$00
	.byte	$00
	.byte	$4C
	.byte	$00
	.byte	$2B
	.byte	$04
	.byte	$40
	.byte	$40
	.byte	$21
	.byte	$21
	.byte	$46
	.byte	$45
	.byte	$46
	.byte	$47
	.byte	$47
	.byte	$00
	.byte	$00
	.byte	$00
	.byte	$00
	.byte	$4A
	.byte	$4A
	.byte	$2B
	.byte	$4D
	.byte	$2B
	.byte	$00
	.byte	$4D
	.byte	$00
	.byte	$00
	.byte	$00
	.byte	$00
	.byte	$40
	.byte	$40
	.byte	$21
	.byte	$21
	.byte	$47
	.byte	$45
	.byte	$00
	.byte	$47
	.byte	$00
	.byte	$00
	.byte	$00
	.byte	$00
	.byte	$4C
	.byte	$4A
	.byte	$2B
	.byte	$2B
	.byte	$2B
	.byte	$2B
	.byte	$4E
	.byte	$4D
	.byte	$00
	.byte	$00
	.byte	$00
	.byte	$00
	.byte	$40
	.byte	$40
	.byte	$21
	.byte	$21
	.byte	$46
	.byte	$45
	.byte	$46
	.byte	$47
	.byte	$47
	.byte	$00
	.byte	$00
	.byte	$00
	.byte	$4C
	.byte	$4A
	.byte	$2B
	.byte	$2B
	.byte	$2B
	.byte	$4E
	.byte	$4E
	.byte	$00
	.byte	$00
	.byte	$00
	.byte	$04
	.byte	$00
	.byte	$40
	.byte	$40
	.byte	$21
	.byte	$21
	.byte	$47
	.byte	$46
	.byte	$28
	.byte	$45
	.byte	$00
	.byte	$47
	.byte	$00
	.byte	$00
	.byte	$4C
	.byte	$00
	.byte	$2B
	.byte	$4C
	.byte	$4D
	.byte	$04
	.byte	$00
	.byte	$00
	.byte	$00
	.byte	$00
	.byte	$00
	.byte	$00
	.byte	$40
	.byte	$40
	.byte	$21
	.byte	$21
	.byte	$45
	.byte	$46
	.byte	$46
	.byte	$47
	.byte	$47
	.byte	$00
	.byte	$00
	.byte	$00
	.byte	$00
	.byte	$4A
	.byte	$00
	.byte	$4D
	.byte	$04
	.byte	$00
	.byte	$00
	.byte	$00
	.byte	$00
	.byte	$00
	.byte	$00
	.byte	$00
	.byte	$40
	.byte	$40
	.byte	$21
	.byte	$21
	.byte	$47
	.byte	$45
	.byte	$00
	.byte	$47
	.byte	$00
	.byte	$00
	.byte	$00
	.byte	$00
	.byte	$4C
	.byte	$4A
	.byte	$2B
	.byte	$2B
	.byte	$4D
	.byte	$4D
	.byte	$00
	.byte	$00
	.byte	$00
	.byte	$26
	.byte	$00
	.byte	$00
	.byte	$40
	.byte	$40
	.byte	$21
	.byte	$21
	.byte	$47
	.byte	$45
	.byte	$00
	.byte	$47
	.byte	$00
	.byte	$00
	.byte	$00
	.byte	$4A
	.byte	$4C
	.byte	$2B
	.byte	$2B
	.byte	$4E
	.byte	$4E
	.byte	$00
	.byte	$00
	.byte	$00
	.byte	$00
	.byte	$00
	.byte	$00
	.byte	$00
	.byte	$40
	.byte	$40
	.byte	$21
	.byte	$21
	.byte	$45
	.byte	$46
	.byte	$46
	.byte	$47
	.byte	$47
	.byte	$00
	.byte	$4C
	.byte	$00
	.byte	$2B
	.byte	$4C
	.byte	$4D
	.byte	$4E
	.byte	$00
	.byte	$00
	.byte	$00
	.byte	$00
	.byte	$00
	.byte	$00
	.byte	$00
	.byte	$00
	.byte	$40
	.byte	$40
	.byte	$21
	.byte	$21
	.byte	$47
	.byte	$46
	.byte	$00
	.byte	$47
	.byte	$00
	.byte	$00
	.byte	$00
	.byte	$00
	.byte	$4A
	.byte	$4A
	.byte	$4D
	.byte	$2B
	.byte	$00
	.byte	$4D
	.byte	$3A
	.byte	$00
	.byte	$00
	.byte	$00
	.byte	$00
	.byte	$00
	.byte	$40
	.byte	$40
	.byte	$21
	.byte	$21
	.byte	$46
	.byte	$45
	.byte	$45
	.byte	$47
	.byte	$47
	.byte	$00
	.byte	$00
	.byte	$4A
	.byte	$4C
	.byte	$2B
	.byte	$2B
	.byte	$4E
	.byte	$4E
	.byte	$00
	.byte	$00
	.byte	$00
	.byte	$00
	.byte	$00
	.byte	$00
	.byte	$00
	.byte	$40
	.byte	$40
	.byte	$21
	.byte	$21
	.byte	$47
	.byte	$47
	.byte	$00
	.byte	$00
	.byte	$00
	.byte	$00
	.byte	$4C
	.byte	$00
	.byte	$2B
	.byte	$4C
	.byte	$4D
	.byte	$4E
	.byte	$00
	.byte	$00
	.byte	$00
	.byte	$00
	.byte	$18
	.byte	$00
	.byte	$44
	.byte	$00
	.byte	$40
	.byte	$40
	.byte	$21
	.byte	$21
	.byte	$45
	.byte	$45
	.byte	$47
	.byte	$45
	.byte	$00
	.byte	$47
	.byte	$00
	.byte	$00
	.byte	$4A
	.byte	$4C
	.byte	$4D
	.byte	$4E
	.byte	$00
	.byte	$00
	.byte	$00
	.byte	$00
	.byte	$00
	.byte	$18
	.byte	$00
	.byte	$44
	.byte	$40
	.byte	$40
	.byte	$21
	.byte	$21
	.byte	$46
	.byte	$45
	.byte	$46
	.byte	$47
	.byte	$47
	.byte	$00
	.byte	$00
	.byte	$00
	.byte	$00
	.byte	$00
	.byte	$00
	.byte	$00
	.byte	$00
	.byte	$00
	.byte	$00
	.byte	$00
	.byte	$03
	.byte	$00
	.byte	$44
	.byte	$26
	.byte	$40
	.byte	$40
	.byte	$21
	.byte	$21
	.byte	$47
	.byte	$46
	.byte	$00
	.byte	$47
	.byte	$00
	.byte	$00
	.byte	$00
	.byte	$4A
	.byte	$4A
	.byte	$2B
	.byte	$4D
	.byte	$2B
	.byte	$00
	.byte	$4D
	.byte	$00
	.byte	$00
	.byte	$00
	.byte	$00
	.byte	$00
	.byte	$00
	.byte	$40
	.byte	$40
	.byte	$21
	.byte	$21
	.byte	$47
	.byte	$45
	.byte	$00
	.byte	$47
	.byte	$00
	.byte	$00
	.byte	$4C
	.byte	$4A
	.byte	$2B
	.byte	$2B
	.byte	$2B
	.byte	$2B
	.byte	$4E
	.byte	$4D
	.byte	$00
	.byte	$00
	.byte	$00
	.byte	$00
	.byte	$00
	.byte	$00
	.byte	$40
	.byte	$40
	.byte	$21
	.byte	$21
	.byte	$46
	.byte	$47
	.byte	$47
	.byte	$00
	.byte	$00
	.byte	$00
	.byte	$4C
	.byte	$4A
	.byte	$2B
	.byte	$2B
	.byte	$2B
	.byte	$4E
	.byte	$4E
	.byte	$00
	.byte	$00
	.byte	$00
	.byte	$00
	.byte	$00
	.byte	$26
	.byte	$00
	.byte	$40
	.byte	$40
	.byte	$21
	.byte	$21
	.byte	$45
	.byte	$45
	.byte	$47
	.byte	$45
	.byte	$00
	.byte	$47
	.byte	$4C
	.byte	$00
	.byte	$2B
	.byte	$4C
	.byte	$4D
	.byte	$4E
	.byte	$00
	.byte	$00
	.byte	$00
	.byte	$00
	.byte	$00
	.byte	$00
	.byte	$00
	.byte	$00
	.byte	$40
	.byte	$40
	.byte	$21
	.byte	$21
	.byte	$45
	.byte	$47
	.byte	$47
	.byte	$00
	.byte	$00
	.byte	$00
	.byte	$00
	.byte	$00
	.byte	$00
	.byte	$00
	.byte	$00
	.byte	$00
	.byte	$00
	.byte	$00
	.byte	$00
	.byte	$00
	.byte	$00
	.byte	$00
	.byte	$00
	.byte	$04
	.byte	$40
	.byte	$40
	.byte	$21
	.byte	$21
	.byte	$46
	.byte	$45
	.byte	$47
	.byte	$46
	.byte	$00
	.byte	$47
	.byte	$00
	.byte	$00
	.byte	$00
	.byte	$00
	.byte	$4A
	.byte	$4A
	.byte	$4D
	.byte	$2B
	.byte	$00
	.byte	$4D
	.byte	$00
	.byte	$00
	.byte	$00
	.byte	$00
	.byte	$40
	.byte	$40
	.byte	$21
	.byte	$21
	.byte	$46
	.byte	$45
	.byte	$45
	.byte	$47
	.byte	$47
	.byte	$00
	.byte	$00
	.byte	$00
	.byte	$00
	.byte	$4A
	.byte	$4C
	.byte	$2B
	.byte	$2B
	.byte	$4E
	.byte	$4E
	.byte	$00
	.byte	$00
	.byte	$26
	.byte	$00
	.byte	$00
	.byte	$40
	.byte	$40
	.byte	$21
	.byte	$21
	.byte	$46
	.byte	$45
	.byte	$47
	.byte	$46
	.byte	$00
	.byte	$47
	.byte	$00
	.byte	$00
	.byte	$4C
	.byte	$00
	.byte	$2B
	.byte	$4C
	.byte	$4D
	.byte	$4E
	.byte	$00
	.byte	$00
	.byte	$26
	.byte	$00
	.byte	$00
	.byte	$00
	.byte	$40
	.byte	$40
	.byte	$21
	.byte	$21
	.byte	$46
	.byte	$47
	.byte	$47
	.byte	$00
	.byte	$00
	.byte	$00
	.byte	$00
	.byte	$00
	.byte	$00
	.byte	$00
	.byte	$00
	.byte	$00
	.byte	$00
	.byte	$00
	.byte	$00
	.byte	$00
	.byte	$00
	.byte	$00
	.byte	$00
	.byte	$00
	.byte	$40
	.byte	$40
	.byte	$21
	.byte	$21
	.byte	$47
	.byte	$45
	.byte	$00
	.byte	$47
	.byte	$00
	.byte	$00
	.byte	$00
	.byte	$00
	.byte	$4A
	.byte	$4C
	.byte	$4D
	.byte	$2B
	.byte	$00
	.byte	$4D
	.byte	$26
	.byte	$00
	.byte	$00
	.byte	$00
	.byte	$00
	.byte	$00
	.byte	$40
	.byte	$40
	.byte	$21
	.byte	$21
	.byte	$46
	.byte	$45
	.byte	$45
	.byte	$47
	.byte	$47
	.byte	$00
	.byte	$00
	.byte	$00
	.byte	$4A
	.byte	$4C
	.byte	$2B
	.byte	$2B
	.byte	$2B
	.byte	$2B
	.byte	$4D
	.byte	$4E
	.byte	$00
	.byte	$00
	.byte	$00
	.byte	$00
	.byte	$40
	.byte	$40
	.byte	$21
	.byte	$21
	.byte	$46
	.byte	$47
	.byte	$47
	.byte	$00
	.byte	$00
	.byte	$00
	.byte	$00
	.byte	$4A
	.byte	$4A
	.byte	$2B
	.byte	$2B
	.byte	$2B
	.byte	$2B
	.byte	$04
	.byte	$4D
	.byte	$2B
	.byte	$00
	.byte	$4D
	.byte	$00
	.byte	$00
	.byte	$40
	.byte	$40
	.byte	$21
	.byte	$21
	.byte	$46
	.byte	$45
	.byte	$47
	.byte	$46
	.byte	$00
	.byte	$47
	.byte	$4C
	.byte	$4A
	.byte	$2B
	.byte	$2B
	.byte	$2B
	.byte	$2B
	.byte	$2B
	.byte	$2B
	.byte	$2B
	.byte	$4E
	.byte	$4E
	.byte	$04
	.byte	$00
	.byte	$00
	.byte	$40
	.byte	$40
	.byte	$21
	.byte	$21
	.byte	$00
	.byte	$00
	.byte	$00
	.byte	$00
	.byte	$0D
	.byte	$0D
	.byte	$2B
	.byte	$2B
	.byte	$2B
	.byte	$2B
	.byte	$2B
	.byte	$2B
	.byte	$4E
	.byte	$4D
	.byte	$00
	.byte	$00
	.byte	$24
	.byte	$24
	.byte	$00
	.byte	$00
	.byte	$40
	.byte	$40
	.byte	$21
	.byte	$21
	.byte	$47
	.byte	$45
	.byte	$00
	.byte	$46
	.byte	$09
	.byte	$45
	.byte	$2B
	.byte	$46
	.byte	$2B
	.byte	$47
	.byte	$2B
	.byte	$4E
	.byte	$4E
	.byte	$00
	.byte	$00
	.byte	$00
	.byte	$24
	.byte	$24
	.byte	$00
	.byte	$00
	.byte	$40
	.byte	$40
	.byte	$21
	.byte	$21
	.byte	$46
	.byte	$45
	.byte	$45
	.byte	$47
	.byte	$46
	.byte	$00
	.byte	$45
	.byte	$00
	.byte	$47
	.byte	$00
	.byte	$00
	.byte	$00
	.byte	$00
	.byte	$00
	.byte	$00
	.byte	$00
	.byte	$24
	.byte	$26
	.byte	$00
	.byte	$00
	.byte	$40
	.byte	$40
	.byte	$21
	.byte	$21
	.byte	$46
	.byte	$45
	.byte	$45
	.byte	$47
	.byte	$47
	.byte	$00
	.byte	$00
	.byte	$4A
	.byte	$00
	.byte	$4D
	.byte	$00
	.byte	$00
	.byte	$00
	.byte	$00
	.byte	$00
	.byte	$00
	.byte	$00
	.byte	$00
	.byte	$00
	.byte	$00
	.byte	$40
	.byte	$40
	.byte	$21
	.byte	$21
	.byte	$47
	.byte	$45
	.byte	$00
	.byte	$47
	.byte	$00
	.byte	$00
	.byte	$4C
	.byte	$4A
	.byte	$2B
	.byte	$2B
	.byte	$4D
	.byte	$4E
	.byte	$00
	.byte	$00
	.byte	$00
	.byte	$00
	.byte	$00
	.byte	$26
	.byte	$00
	.byte	$00
	.byte	$40
	.byte	$40
	.byte	$21
	.byte	$21
	.byte	$47
	.byte	$45
	.byte	$00
	.byte	$47
	.byte	$00
	.byte	$00
	.byte	$4C
	.byte	$00
	.byte	$4E
	.byte	$00
	.byte	$00
	.byte	$00
	.byte	$00
	.byte	$00
	.byte	$00
	.byte	$00
	.byte	$00
	.byte	$00
	.byte	$00
	.byte	$00
	.byte	$40
	.byte	$40
	.byte	$21
	.byte	$21
	.byte	$46
	.byte	$45
	.byte	$45
	.byte	$47
	.byte	$47
	.byte	$00
	.byte	$00
	.byte	$00
	.byte	$00
	.byte	$00
	.byte	$4A
	.byte	$4C
	.byte	$4D
	.byte	$4E
	.byte	$00
	.byte	$00
	.byte	$00
	.byte	$00
	.byte	$00
	.byte	$26
	.byte	$40
	.byte	$40
	.byte	$21
	.byte	$21
	.byte	$47
	.byte	$00
	.byte	$28
	.byte	$00
	.byte	$00
	.byte	$00
	.byte	$00
	.byte	$00
	.byte	$00
	.byte	$00
	.byte	$00
	.byte	$3A
	.byte	$00
	.byte	$00
	.byte	$3A
	.byte	$00
	.byte	$00
	.byte	$00
	.byte	$00
	.byte	$00
	.byte	$40
	.byte	$40
	.byte	$21
	.byte	$21
	.byte	$00
	.byte	$00
	.byte	$00
	.byte	$3A
	.byte	$00
	.byte	$00
	.byte	$3A
	.byte	$00
	.byte	$00
	.byte	$00
	.byte	$4A
	.byte	$4C
	.byte	$4D
	.byte	$2B
	.byte	$00
	.byte	$4D
	.byte	$00
	.byte	$00
	.byte	$00
	.byte	$00
	.byte	$40
	.byte	$40
	.byte	$21
	.byte	$21
	.byte	$47
	.byte	$08
	.byte	$00
	.byte	$25
	.byte	$00
	.byte	$20
	.byte	$00
	.byte	$08
	.byte	$00
	.byte	$25
	.byte	$00
	.byte	$08
	.byte	$4C
	.byte	$20
	.byte	$2B
	.byte	$08
	.byte	$4D
	.byte	$20
	.byte	$00
	.byte	$3C
	.byte	$40
	.byte	$40
	.byte	$21
	.byte	$21
	.byte	$01
	.byte	$00
	.byte	$01
	.byte	$18
	.byte	$41
	.byte	$01
	.byte	$01
	.byte	$41
	.byte	$41
	.byte	$01
	.byte	$01
	.byte	$41
	.byte	$02
	.byte	$01
	.byte	$00
	.byte	$01
	.byte	$00
	.byte	$41
	.byte	$00
	.byte	$41
	.byte	$40
	.byte	$41
	.byte	$21
	.byte	$02
	.byte	$00
	.byte	$00
	.byte	$00
	.byte	$00
	.byte	$00
	.byte	$00
	.byte	$3A
	.byte	$09
	.byte	$2B
	.byte	$2B
	.byte	$2B
	.byte	$2B
	.byte	$0F
	.byte	$18
	.byte	$18
	.byte	$01
	.byte	$01
	.byte	$01
	.byte	$41
	.byte	$44
	.byte	$44
	.byte	$40
	.byte	$40
	.byte	$21
	.byte	$00
	.byte	$02
	.byte	$00
	.byte	$00
	.byte	$0D
	.byte	$38
	.byte	$2B
	.byte	$39
	.byte	$2B
	.byte	$39
	.byte	$2B
	.byte	$39
	.byte	$0B
	.byte	$39
	.byte	$00
	.byte	$39
	.byte	$18
	.byte	$3B
	.byte	$41
	.byte	$18
	.byte	$41
	.byte	$41
	.byte	$44
	.byte	$41
	.byte	$01
	.byte	$02
	.byte	$44
	.byte	$00
	.byte	$00
	.byte	$00
	.byte	$0A
	.byte	$00
	.byte	$2B
	.byte	$0A
	.byte	$2B
	.byte	$2B
	.byte	$2B
	.byte	$2B
	.byte	$0C
	.byte	$0B
	.byte	$00
	.byte	$00
	.byte	$40
	.byte	$40
	.byte	$03
	.byte	$21
	.byte	$44
	.byte	$18
	.byte	$41
	.byte	$01
	.byte	$41
	.byte	$44
	.byte	$44
	.byte	$00
	.byte	$00
	.byte	$00
	.byte	$48
	.byte	$00
	.byte	$49
	.byte	$09
	.byte	$49
	.byte	$2B
	.byte	$4B
	.byte	$0B
	.byte	$00
	.byte	$00
	.byte	$40
	.byte	$40
	.byte	$21
	.byte	$03
	.byte	$04
	.byte	$02
	.byte	$02
	.byte	$41
	.byte	$00
	.byte	$44
	.byte	$00
	.byte	$00
	.byte	$38
	.byte	$00
	.byte	$39
	.byte	$09
	.byte	$39
	.byte	$2B
	.byte	$39
	.byte	$2B
	.byte	$39
	.byte	$0E
	.byte	$3B
	.byte	$00
	.byte	$40
	.byte	$03
	.byte	$21
	.byte	$01
	.byte	$03
	.byte	$02
	.byte	$44
	.byte	$01
	.byte	$00
	.byte	$01
	.byte	$00
	.byte	$44
	.byte	$00
	.byte	$00
	.byte	$0A
	.byte	$09
	.byte	$2B
	.byte	$2B
	.byte	$2B
	.byte	$2B
	.byte	$0C
	.byte	$0F
	.byte	$00
	.byte	$18
	.byte	$40
	.byte	$01
	.byte	$18
	.byte	$41
	.byte	$41
	.byte	$02
	.byte	$01
	.byte	$01
	.byte	$44
	.byte	$41
	.byte	$00
	.byte	$02
	.byte	$0D
	.byte	$09
	.byte	$2B
	.byte	$2B
	.byte	$2B
	.byte	$2B
	.byte	$18
	.byte	$2B
	.byte	$01
	.byte	$0B
	.byte	$01
	.byte	$03
	.byte	$02
	.byte	$01
	.byte	$40
	.byte	$01
	.byte	$21
	.byte	$44
	.byte	$01
	.byte	$41
	.byte	$41
	.byte	$44
	.byte	$02
	.byte	$00
	.byte	$0A
	.byte	$48
	.byte	$2B
	.byte	$49
	.byte	$2B
	.byte	$49
	.byte	$2B
	.byte	$49
	.byte	$0E
	.byte	$4B
	.byte	$18
	.byte	$00
	.byte	$41
	.byte	$03
	.byte	$41
	.byte	$41
	.byte	$01
	.byte	$01
	.byte	$02
	.byte	$13
	.byte	$00
	.byte	$00
	.byte	$00
	.byte	$00
	.byte	$09
	.byte	$0A
	.byte	$2B
	.byte	$2B
	.byte	$2B
	.byte	$2B
	.byte	$2B
	.byte	$2B
	.byte	$2B
	.byte	$2B
	.byte	$0F
	.byte	$0B
	.byte	$40
	.byte	$40
	.byte	$18
	.byte	$21
	.byte	$41
	.byte	$18
	.byte	$02
	.byte	$01
	.byte	$00
	.byte	$02
	.byte	$00
	.byte	$00
	.byte	$0D
	.byte	$48
	.byte	$2B
	.byte	$49
	.byte	$2B
	.byte	$49
	.byte	$2B
	.byte	$49
	.byte	$2B
	.byte	$49
	.byte	$0C
	.byte	$18
	.byte	$18
	.byte	$01
	.byte	$41
	.byte	$01
	.byte	$02
	.byte	$44
	.byte	$02
	.byte	$01
	.byte	$00
	.byte	$44
	.byte	$00
	.byte	$00
	.byte	$0D
	.byte	$09
	.byte	$2B
	.byte	$2B
	.byte	$03
	.byte	$2B
	.byte	$41
	.byte	$2B
	.byte	$41
	.byte	$03
	.byte	$41
	.byte	$41
	.byte	$02
	.byte	$01
	.byte	$40
	.byte	$01
	.byte	$21
	.byte	$44
	.byte	$02
	.byte	$44
	.byte	$00
	.byte	$00
	.byte	$38
	.byte	$00
	.byte	$39
	.byte	$0A
	.byte	$39
	.byte	$2B
	.byte	$39
	.byte	$2B
	.byte	$39
	.byte	$2B
	.byte	$39
	.byte	$0E
	.byte	$3B
	.byte	$00
	.byte	$18
	.byte	$40
	.byte	$41
	.byte	$03
	.byte	$44
	.byte	$01
	.byte	$01
	.byte	$00
	.byte	$44
	.byte	$15
	.byte	$00
	.byte	$00
	.byte	$09
	.byte	$0A
	.byte	$3A
	.byte	$2B
	.byte	$2B
	.byte	$2B
	.byte	$2B
	.byte	$2B
	.byte	$0C
	.byte	$0F
	.byte	$00
	.byte	$03
	.byte	$40
	.byte	$01
	.byte	$18
	.byte	$41
	.byte	$02
	.byte	$02
	.byte	$13
	.byte	$00
	.byte	$00
	.byte	$00
	.byte	$00
	.byte	$18
	.byte	$00
	.byte	$01
	.byte	$0A
	.byte	$01
	.byte	$2B
	.byte	$01
	.byte	$18
	.byte	$01
	.byte	$01
	.byte	$01
	.byte	$01
	.byte	$02
	.byte	$41
	.byte	$00
	.byte	$44
	.byte	$40
	.byte	$21
	.byte	$21
	.byte	$01
	.byte	$41
	.byte	$41
	.byte	$41
	.byte	$01
	.byte	$01
	.byte	$01
	.byte	$44
	.byte	$01
	.byte	$00
	.byte	$02
	.byte	$00
	.byte	$00
	.byte	$00
	.byte	$00
	.byte	$00
	.byte	$00
	.byte	$00
	.byte	$00
	.byte	$00
	.byte	$40
	.byte	$40
	.byte	$21
	.byte	$21
	.byte	$41
	.byte	$41
	.byte	$41
	.byte	$41
	.byte	$41
	.byte	$41
	.byte	$44
	.byte	$44
	.byte	$00
	.byte	$00
	.byte	$00
	.byte	$00
	.byte	$00
	.byte	$00
	.byte	$5C
	.byte	$5C
	.byte	$59
	.byte	$59
	.byte	$58
	.byte	$58
	.byte	$40
	.byte	$40
	.byte	$21
	.byte	$21
	.byte	$41
	.byte	$41
	.byte	$01
	.byte	$02
	.byte	$44
	.byte	$00
	.byte	$00
	.byte	$00
	.byte	$00
	.byte	$00
	.byte	$00
	.byte	$00
	.byte	$00
	.byte	$00
	.byte	$5C
	.byte	$5C
	.byte	$59
	.byte	$59
	.byte	$58
	.byte	$58
	.byte	$40
	.byte	$40
	.byte	$21
	.byte	$21
	.byte	$02
	.byte	$01
	.byte	$00
	.byte	$44
	.byte	$00
	.byte	$00
	.byte	$00
	.byte	$00
	.byte	$00
	.byte	$00
	.byte	$00
	.byte	$00
	.byte	$00
	.byte	$00
	.byte	$5C
	.byte	$5C
	.byte	$59
	.byte	$59
	.byte	$58
	.byte	$58
	.byte	$40
	.byte	$40
	.byte	$21
	.byte	$21
	.byte	$41
	.byte	$02
	.byte	$44
	.byte	$00
	.byte	$00
	.byte	$00
	.byte	$00
	.byte	$00
	.byte	$00
	.byte	$00
	.byte	$00
	.byte	$00
	.byte	$00
	.byte	$00
	.byte	$5C
	.byte	$5C
	.byte	$59
	.byte	$59
	.byte	$58
	.byte	$58
	.byte	$40
	.byte	$40
	.byte	$21
	.byte	$21
	.byte	$01
	.byte	$01
	.byte	$44
	.byte	$01
	.byte	$00
	.byte	$44
	.byte	$00
	.byte	$00
	.byte	$00
	.byte	$00
	.byte	$00
	.byte	$00
	.byte	$00
	.byte	$00
	.byte	$5C
	.byte	$5C
	.byte	$59
	.byte	$59
	.byte	$58
	.byte	$58
	.byte	$40
	.byte	$40
	.byte	$21
	.byte	$21
	.byte	$01
	.byte	$01
	.byte	$01
	.byte	$01
	.byte	$01
	.byte	$01
	.byte	$44
	.byte	$02
	.byte	$00
	.byte	$00
	.byte	$00
	.byte	$00
	.byte	$00
	.byte	$00
	.byte	$5C
	.byte	$5C
	.byte	$59
	.byte	$59
	.byte	$58
	.byte	$58
	.byte	$40
	.byte	$40
	.byte	$21
	.byte	$21
	.byte	$41
	.byte	$01
	.byte	$01
	.byte	$41
	.byte	$41
	.byte	$44
	.byte	$02
	.byte	$00
	.byte	$00
	.byte	$00
	.byte	$00
	.byte	$00
	.byte	$00
	.byte	$00
	.byte	$5C
	.byte	$5C
	.byte	$59
	.byte	$59
	.byte	$58
	.byte	$58
	.byte	$40
	.byte	$40
	.byte	$21
	.byte	$21
	.byte	$41
	.byte	$02
	.byte	$44
	.byte	$00
	.byte	$00
	.byte	$00
	.byte	$00
	.byte	$00
	.byte	$00
	.byte	$00
	.byte	$00
	.byte	$00
	.byte	$00
	.byte	$00
	.byte	$5C
	.byte	$5C
	.byte	$59
	.byte	$59
	.byte	$58
	.byte	$58
	.byte	$40
	.byte	$40
	.byte	$21
	.byte	$21
	.byte	$02
	.byte	$01
	.byte	$00
	.byte	$44
	.byte	$00
	.byte	$00
	.byte	$00
	.byte	$00
	.byte	$00
	.byte	$00
	.byte	$00
	.byte	$00
	.byte	$00
	.byte	$00
	.byte	$5C
	.byte	$5C
	.byte	$59
	.byte	$59
	.byte	$58
	.byte	$58
	.byte	$40
	.byte	$40
	.byte	$21
	.byte	$21
	.byte	$01
	.byte	$5C
	.byte	$01
	.byte	$24
	.byte	$01
	.byte	$5C
	.byte	$41
	.byte	$24
	.byte	$01
	.byte	$5C
	.byte	$01
	.byte	$24
	.byte	$41
	.byte	$00
	.byte	$44
	.byte	$24
	.byte	$59
	.byte	$59
	.byte	$58
	.byte	$58
	.byte	$40
	.byte	$40
	.byte	$21
	.byte	$21
	.byte	$5C
	.byte	$01
	.byte	$24
	.byte	$41
	.byte	$5C
	.byte	$01
	.byte	$24
	.byte	$01
	.byte	$5C
	.byte	$41
	.byte	$24
	.byte	$02
	.byte	$00
	.byte	$00
	.byte	$5C
	.byte	$5C
	.byte	$59
	.byte	$59
	.byte	$05
	.byte	$58
	.byte	$40
	.byte	$40
	.byte	$21
	.byte	$21
	.byte	$01
	.byte	$41
	.byte	$02
	.byte	$01
	.byte	$00
	.byte	$02
	.byte	$00
	.byte	$00
	.byte	$00
	.byte	$00
	.byte	$00
	.byte	$00
	.byte	$00
	.byte	$00
	.byte	$5C
	.byte	$5C
	.byte	$59
	.byte	$59
	.byte	$58
	.byte	$58
	.byte	$40
	.byte	$40
	.byte	$21
	.byte	$21
	.byte	$41
	.byte	$41
	.byte	$01
	.byte	$01
	.byte	$01
	.byte	$41
	.byte	$44
	.byte	$01
	.byte	$00
	.byte	$44
	.byte	$00
	.byte	$00
	.byte	$00
	.byte	$00
	.byte	$5C
	.byte	$5C
	.byte	$59
	.byte	$59
	.byte	$05
	.byte	$58
	.byte	$40
	.byte	$40
	.byte	$21
	.byte	$21
	.byte	$01
	.byte	$01
	.byte	$41
	.byte	$01
	.byte	$01
	.byte	$02
	.byte	$44
	.byte	$00
	.byte	$00
	.byte	$00
	.byte	$00
	.byte	$00
	.byte	$00
	.byte	$00
	.byte	$5C
	.byte	$5C
	.byte	$59
	.byte	$59
	.byte	$58
	.byte	$58
	.byte	$40
	.byte	$40
	.byte	$21
	.byte	$21
	.byte	$41
	.byte	$01
	.byte	$41
	.byte	$01
	.byte	$44
	.byte	$01
	.byte	$00
	.byte	$02
	.byte	$00
	.byte	$00
	.byte	$00
	.byte	$00
	.byte	$00
	.byte	$00
	.byte	$5C
	.byte	$5C
	.byte	$05
	.byte	$59
	.byte	$06
	.byte	$58
	.byte	$40
	.byte	$40
	.byte	$21
	.byte	$21
	.byte	$01
	.byte	$41
	.byte	$44
	.byte	$01
	.byte	$00
	.byte	$44
	.byte	$00
	.byte	$00
	.byte	$00
	.byte	$00
	.byte	$00
	.byte	$00
	.byte	$00
	.byte	$00
	.byte	$5C
	.byte	$04
	.byte	$59
	.byte	$59
	.byte	$58
	.byte	$58
	.byte	$40
	.byte	$40
	.byte	$21
	.byte	$21
	.byte	$01
	.byte	$41
	.byte	$01
	.byte	$41
	.byte	$44
	.byte	$41
	.byte	$00
	.byte	$44
	.byte	$00
	.byte	$00
	.byte	$00
	.byte	$00
	.byte	$00
	.byte	$00
	.byte	$04
	.byte	$5C
	.byte	$59
	.byte	$59
	.byte	$58
	.byte	$58
	.byte	$40
	.byte	$40
	.byte	$21
	.byte	$21
	.byte	$01
	.byte	$09
	.byte	$01
	.byte	$5A
	.byte	$41
	.byte	$00
	.byte	$41
	.byte	$00
	.byte	$02
	.byte	$00
	.byte	$00
	.byte	$00
	.byte	$00
	.byte	$00
	.byte	$5C
	.byte	$5C
	.byte	$59
	.byte	$05
	.byte	$58
	.byte	$06
	.byte	$40
	.byte	$40
	.byte	$21
	.byte	$21
	.byte	$2B
	.byte	$2B
	.byte	$5A
	.byte	$5A
	.byte	$00
	.byte	$00
	.byte	$00
	.byte	$00
	.byte	$00
	.byte	$00
	.byte	$00
	.byte	$00
	.byte	$00
	.byte	$00
	.byte	$5C
	.byte	$5C
	.byte	$59
	.byte	$59
	.byte	$58
	.byte	$58
	.byte	$40
	.byte	$40
	.byte	$21
	.byte	$21
	.byte	$2B
	.byte	$2B
	.byte	$5B
	.byte	$5B
	.byte	$00
	.byte	$00
	.byte	$00
	.byte	$00
	.byte	$00
	.byte	$00
	.byte	$00
	.byte	$00
	.byte	$00
	.byte	$00
	.byte	$5C
	.byte	$5C
	.byte	$59
	.byte	$59
	.byte	$05
	.byte	$58
	.byte	$40
	.byte	$40
	.byte	$21
	.byte	$21
	.byte	$2B
	.byte	$5E
	.byte	$5B
	.byte	$5B
	.byte	$00
	.byte	$00
	.byte	$00
	.byte	$00
	.byte	$00
	.byte	$00
	.byte	$00
	.byte	$00
	.byte	$00
	.byte	$00
	.byte	$5C
	.byte	$5C
	.byte	$59
	.byte	$05
	.byte	$58
	.byte	$06
	.byte	$40
	.byte	$40
	.byte	$21
	.byte	$21
	.byte	$5A
	.byte	$5A
	.byte	$00
	.byte	$00
	.byte	$00
	.byte	$00
	.byte	$00
	.byte	$00
	.byte	$00
	.byte	$00
	.byte	$00
	.byte	$00
	.byte	$00
	.byte	$00
	.byte	$5C
	.byte	$5C
	.byte	$59
	.byte	$59
	.byte	$58
	.byte	$58
	.byte	$40
	.byte	$40
	.byte	$21
	.byte	$21
	.byte	$5D
	.byte	$2B
	.byte	$5B
	.byte	$5D
	.byte	$00
	.byte	$5B
	.byte	$00
	.byte	$00
	.byte	$00
	.byte	$00
	.byte	$00
	.byte	$00
	.byte	$00
	.byte	$00
	.byte	$50
	.byte	$52
	.byte	$59
	.byte	$05
	.byte	$58
	.byte	$06
	.byte	$40
	.byte	$40
	.byte	$21
	.byte	$21
	.byte	$0A
	.byte	$00
	.byte	$2B
	.byte	$0A
	.byte	$5B
	.byte	$5A
	.byte	$00
	.byte	$00
	.byte	$00
	.byte	$00
	.byte	$00
	.byte	$00
	.byte	$00
	.byte	$00
	.byte	$51
	.byte	$52
	.byte	$59
	.byte	$59
	.byte	$58
	.byte	$58
	.byte	$40
	.byte	$40
	.byte	$21
	.byte	$21
	.byte	$00
	.byte	$0D
	.byte	$09
	.byte	$2B
	.byte	$5A
	.byte	$5A
	.byte	$00
	.byte	$00
	.byte	$00
	.byte	$00
	.byte	$00
	.byte	$00
	.byte	$00
	.byte	$00
	.byte	$51
	.byte	$53
	.byte	$05
	.byte	$59
	.byte	$06
	.byte	$58
	.byte	$40
	.byte	$40
	.byte	$21
	.byte	$21
	.byte	$0D
	.byte	$00
	.byte	$2B
	.byte	$0A
	.byte	$5A
	.byte	$5A
	.byte	$00
	.byte	$00
	.byte	$00
	.byte	$00
	.byte	$00
	.byte	$00
	.byte	$00
	.byte	$00
	.byte	$5C
	.byte	$5C
	.byte	$59
	.byte	$59
	.byte	$58
	.byte	$58
	.byte	$40
	.byte	$40
	.byte	$21
	.byte	$21
	.byte	$00
	.byte	$09
	.byte	$09
	.byte	$5E
	.byte	$5B
	.byte	$5B
	.byte	$00
	.byte	$00
	.byte	$00
	.byte	$00
	.byte	$00
	.byte	$00
	.byte	$00
	.byte	$00
	.byte	$5C
	.byte	$5C
	.byte	$59
	.byte	$59
	.byte	$58
	.byte	$58
	.byte	$40
	.byte	$40
	.byte	$21
	.byte	$21
	.byte	$0A
	.byte	$0D
	.byte	$5A
	.byte	$5A
	.byte	$5B
	.byte	$00
	.byte	$00
	.byte	$00
	.byte	$00
	.byte	$00
	.byte	$00
	.byte	$00
	.byte	$00
	.byte	$00
	.byte	$5C
	.byte	$5C
	.byte	$59
	.byte	$59
	.byte	$58
	.byte	$58
	.byte	$40
	.byte	$40
	.byte	$21
	.byte	$21
	.byte	$0D
	.byte	$09
	.byte	$5A
	.byte	$5A
	.byte	$00
	.byte	$00
	.byte	$00
	.byte	$00
	.byte	$00
	.byte	$00
	.byte	$00
	.byte	$00
	.byte	$00
	.byte	$00
	.byte	$5C
	.byte	$5C
	.byte	$59
	.byte	$59
	.byte	$04
	.byte	$04
	.byte	$40
	.byte	$40
	.byte	$21
	.byte	$21
	.byte	$0A
	.byte	$0D
	.byte	$5A
	.byte	$5A
	.byte	$00
	.byte	$00
	.byte	$00
	.byte	$00
	.byte	$00
	.byte	$00
	.byte	$00
	.byte	$00
	.byte	$00
	.byte	$00
	.byte	$5C
	.byte	$5C
	.byte	$59
	.byte	$59
	.byte	$58
	.byte	$58
	.byte	$40
	.byte	$40
	.byte	$21
	.byte	$21
	.byte	$0D
	.byte	$0D
	.byte	$5A
	.byte	$5A
	.byte	$00
	.byte	$00
	.byte	$00
	.byte	$00
	.byte	$00
	.byte	$00
	.byte	$00
	.byte	$00
	.byte	$00
	.byte	$00
	.byte	$5C
	.byte	$5C
	.byte	$59
	.byte	$59
	.byte	$58
	.byte	$58
	.byte	$40
	.byte	$40
	.byte	$21
	.byte	$21
	.byte	$09
	.byte	$2B
	.byte	$5A
	.byte	$5A
	.byte	$00
	.byte	$00
	.byte	$00
	.byte	$00
	.byte	$00
	.byte	$00
	.byte	$00
	.byte	$00
	.byte	$00
	.byte	$00
	.byte	$5C
	.byte	$5C
	.byte	$04
	.byte	$04
	.byte	$58
	.byte	$05
	.byte	$40
	.byte	$40
	.byte	$21
	.byte	$21
	.byte	$2B
	.byte	$2B
	.byte	$5A
	.byte	$5A
	.byte	$00
	.byte	$5B
	.byte	$00
	.byte	$00
	.byte	$00
	.byte	$00
	.byte	$00
	.byte	$00
	.byte	$00
	.byte	$00
	.byte	$5C
	.byte	$04
	.byte	$26
	.byte	$59
	.byte	$58
	.byte	$58
	.byte	$40
	.byte	$40
	.byte	$21
	.byte	$21
	.byte	$0A
	.byte	$0D
	.byte	$5D
	.byte	$2B
	.byte	$5B
	.byte	$5B
	.byte	$00
	.byte	$00
	.byte	$00
	.byte	$00
	.byte	$00
	.byte	$04
	.byte	$26
	.byte	$00
	.byte	$05
	.byte	$5C
	.byte	$06
	.byte	$59
	.byte	$06
	.byte	$58
	.byte	$40
	.byte	$40
	.byte	$21
	.byte	$21
	.byte	$09
	.byte	$00
	.byte	$2B
	.byte	$0A
	.byte	$5B
	.byte	$5B
	.byte	$00
	.byte	$00
	.byte	$00
	.byte	$00
	.byte	$00
	.byte	$00
	.byte	$00
	.byte	$00
	.byte	$5C
	.byte	$5C
	.byte	$59
	.byte	$59
	.byte	$58
	.byte	$58
	.byte	$40
	.byte	$40
	.byte	$21
	.byte	$21
	.byte	$00
	.byte	$09
	.byte	$09
	.byte	$2B
	.byte	$5A
	.byte	$5A
	.byte	$00
	.byte	$00
	.byte	$00
	.byte	$00
	.byte	$00
	.byte	$00
	.byte	$00
	.byte	$00
	.byte	$5C
	.byte	$5C
	.byte	$59
	.byte	$59
	.byte	$58
	.byte	$58
	.byte	$40
	.byte	$40
	.byte	$21
	.byte	$21
	.byte	$0A
	.byte	$0D
	.byte	$2B
	.byte	$2B
	.byte	$5A
	.byte	$5A
	.byte	$00
	.byte	$00
	.byte	$00
	.byte	$00
	.byte	$00
	.byte	$00
	.byte	$00
	.byte	$00
	.byte	$5C
	.byte	$5C
	.byte	$59
	.byte	$59
	.byte	$58
	.byte	$58
	.byte	$40
	.byte	$40
	.byte	$21
	.byte	$21
	.byte	$00
	.byte	$41
	.byte	$0A
	.byte	$44
	.byte	$5D
	.byte	$2B
	.byte	$5B
	.byte	$5B
	.byte	$00
	.byte	$00
	.byte	$00
	.byte	$00
	.byte	$00
	.byte	$00
	.byte	$5C
	.byte	$5C
	.byte	$59
	.byte	$59
	.byte	$58
	.byte	$58
	.byte	$40
	.byte	$40
	.byte	$21
	.byte	$21
	.byte	$41
	.byte	$01
	.byte	$01
	.byte	$41
	.byte	$02
	.byte	$41
	.byte	$5B
	.byte	$50
	.byte	$00
	.byte	$00
	.byte	$00
	.byte	$00
	.byte	$00
	.byte	$00
	.byte	$5C
	.byte	$5C
	.byte	$59
	.byte	$59
	.byte	$58
	.byte	$58
	.byte	$40
	.byte	$40
	.byte	$21
	.byte	$21
	.byte	$01
	.byte	$20
	.byte	$41
	.byte	$3C
	.byte	$02
	.byte	$20
	.byte	$52
	.byte	$52
	.byte	$00
	.byte	$42
	.byte	$00
	.byte	$42
	.byte	$00
	.byte	$42
	.byte	$50
	.byte	$52
	.byte	$59
	.byte	$3C
	.byte	$58
	.byte	$08
	.byte	$40
	.byte	$40
	.byte	$21
	.byte	$21
	.byte	$3C
	.byte	$3D
	.byte	$3D
	.byte	$00
	.byte	$08
	.byte	$00
	.byte	$53
	.byte	$00
	.byte	$3F
	.byte	$00
	.byte	$2C
	.byte	$2C
	.byte	$2C
	.byte	$2C
	.byte	$53
	.byte	$00
	.byte	$3D
	.byte	$00
	.byte	$3C
	.byte	$3D
	.byte	$40
	.byte	$40
	.byte	$21
	.byte	$21
	.byte	$20
	.byte	$08
	.byte	$00
	.byte	$00
	.byte	$2C
	.byte	$2C
	.byte	$2C
	.byte	$2C
	.byte	$2C
	.byte	$2C
	.byte	$2C
	.byte	$2C
	.byte	$2C
	.byte	$2C
	.byte	$2E
	.byte	$2C
	.byte	$2F
	.byte	$27
	.byte	$22
	.byte	$20
	.byte	$40
	.byte	$40
	.byte	$21
	.byte	$21
	.byte	$20
	.byte	$3C
	.byte	$00
	.byte	$00
	.byte	$2C
	.byte	$2C
	.byte	$2D
	.byte	$2C
	.byte	$2C
	.byte	$2D
	.byte	$2C
	.byte	$2C
	.byte	$43
	.byte	$27
	.byte	$06
	.byte	$42
	.byte	$07
	.byte	$42
	.byte	$20
	.byte	$20
	.byte	$40
	.byte	$40
	.byte	$21
	.byte	$21
	.byte	$3D
	.byte	$20
	.byte	$00
	.byte	$00
	.byte	$2C
	.byte	$2C
	.byte	$2C
	.byte	$2C
	.byte	$2C
	.byte	$2C
	.byte	$2C
	.byte	$2C
	.byte	$2D
	.byte	$2C
	.byte	$2C
	.byte	$2D
	.byte	$2D
	.byte	$2E
	.byte	$3C
	.byte	$3D
	.byte	$40
	.byte	$40
	.byte	$21
	.byte	$21
	.byte	$08
	.byte	$3C
	.byte	$00
	.byte	$00
	.byte	$2C
	.byte	$2C
	.byte	$2C
	.byte	$2C
	.byte	$2C
	.byte	$2C
	.byte	$2C
	.byte	$2C
	.byte	$2C
	.byte	$2C
	.byte	$2C
	.byte	$2C
	.byte	$2D
	.byte	$2C
	.byte	$20
	.byte	$3C
	.byte	$40
	.byte	$40
	.byte	$21
	.byte	$21
	.byte	$3D
	.byte	$20
	.byte	$00
	.byte	$00
	.byte	$2E
	.byte	$2C
	.byte	$2C
	.byte	$2C
	.byte	$2C
	.byte	$2C
	.byte	$2C
	.byte	$2C
	.byte	$2C
	.byte	$2C
	.byte	$2C
	.byte	$43
	.byte	$2C
	.byte	$07
	.byte	$3D
	.byte	$20
	.byte	$40
	.byte	$40
	.byte	$21
	.byte	$21
	.byte	$08
	.byte	$20
	.byte	$00
	.byte	$00
	.byte	$2C
	.byte	$2C
	.byte	$2C
	.byte	$2C
	.byte	$2C
	.byte	$2C
	.byte	$2C
	.byte	$20
	.byte	$2C
	.byte	$20
	.byte	$27
	.byte	$20
	.byte	$42
	.byte	$20
	.byte	$3C
	.byte	$3D
	.byte	$40
	.byte	$40
	.byte	$21
	.byte	$21
	.byte	$3C
	.byte	$3D
	.byte	$00
	.byte	$00
	.byte	$2C
	.byte	$2C
	.byte	$2C
	.byte	$2C
	.byte	$2C
	.byte	$2C
	.byte	$20
	.byte	$08
	.byte	$00
	.byte	$00
	.byte	$00
	.byte	$2C
	.byte	$00
	.byte	$2C
	.byte	$1F
	.byte	$3D
	.byte	$02
	.byte	$03
	.byte	$40
	.byte	$44
	.byte	$20
	.byte	$00
	.byte	$00
	.byte	$00
	.byte	$2C
	.byte	$2C
	.byte	$2C
	.byte	$2C
	.byte	$2C
	.byte	$2C
	.byte	$3C
	.byte	$3D
	.byte	$00
	.byte	$00
	.byte	$2C
	.byte	$2C
	.byte	$2C
	.byte	$2C
	.byte	$08
	.byte	$00
	.byte	$3D
	.byte	$00
	.byte	$3C
	.byte	$3D
	.byte	$20
	.byte	$3C
	.byte	$3F
	.byte	$00
	.byte	$2C
	.byte	$2C
	.byte	$2C
	.byte	$2E
	.byte	$2C
	.byte	$2C
	.byte	$08
	.byte	$3C
	.byte	$00
	.byte	$00
	.byte	$2C
	.byte	$2C
	.byte	$2C
	.byte	$2C
	.byte	$2C
	.byte	$2C
	.byte	$2C
	.byte	$2C
	.byte	$20
	.byte	$20
	.byte	$3D
	.byte	$20
	.byte	$22
	.byte	$00
	.byte	$30
	.byte	$2C
	.byte	$36
	.byte	$2C
	.byte	$36
	.byte	$2C
	.byte	$3D
	.byte	$08
	.byte	$00
	.byte	$00
	.byte	$2C
	.byte	$2C
	.byte	$2C
	.byte	$2C
	.byte	$2C
	.byte	$2C
	.byte	$2C
	.byte	$2F
	.byte	$20
	.byte	$20
	.byte	$3C
	.byte	$3D
	.byte	$00
	.byte	$00
	.byte	$2C
	.byte	$2C
	.byte	$2C
	.byte	$2C
	.byte	$2F
	.byte	$2C
	.byte	$3C
	.byte	$3D
	.byte	$00
	.byte	$00
	.byte	$56
	.byte	$27
	.byte	$57
	.byte	$42
	.byte	$05
	.byte	$42
	.byte	$07
	.byte	$22
	.byte	$3C
	.byte	$3D
	.byte	$20
	.byte	$08
	.byte	$22
	.byte	$00
	.byte	$30
	.byte	$2C
	.byte	$36
	.byte	$2C
	.byte	$36
	.byte	$2C
	.byte	$08
	.byte	$20
	.byte	$00
	.byte	$00
	.byte	$2C
	.byte	$2E
	.byte	$2C
	.byte	$2C
	.byte	$2C
	.byte	$2C
	.byte	$22
	.byte	$1A
	.byte	$20
	.byte	$08
	.byte	$3C
	.byte	$3D
	.byte	$00
	.byte	$00
	.byte	$2C
	.byte	$2C
	.byte	$2C
	.byte	$2C
	.byte	$2C
	.byte	$2C
	.byte	$08
	.byte	$3C
	.byte	$00
	.byte	$00
	.byte	$2C
	.byte	$2C
	.byte	$2C
	.byte	$2C
	.byte	$2C
	.byte	$2C
	.byte	$22
	.byte	$22
	.byte	$20
	.byte	$3C
	.byte	$20
	.byte	$3C
	.byte	$22
	.byte	$00
	.byte	$30
	.byte	$2C
	.byte	$36
	.byte	$2C
	.byte	$36
	.byte	$2C
	.byte	$3D
	.byte	$08
	.byte	$00
	.byte	$00
	.byte	$2C
	.byte	$2C
	.byte	$2C
	.byte	$2C
	.byte	$05
	.byte	$27
	.byte	$07
	.byte	$42
	.byte	$3D
	.byte	$20
	.byte	$3D
	.byte	$20
	.byte	$00
	.byte	$00
	.byte	$2C
	.byte	$2C
	.byte	$2C
	.byte	$2C
	.byte	$2C
	.byte	$2C
	.byte	$25
	.byte	$08
	.byte	$00
	.byte	$25
	.byte	$2C
	.byte	$20
	.byte	$2C
	.byte	$3F
	.byte	$2C
	.byte	$2C
	.byte	$2C
	.byte	$3C
	.byte	$3C
	.byte	$3D
	.byte	$20
	.byte	$3C
	.byte	$00
	.byte	$00
	.byte	$2C
	.byte	$2C
	.byte	$2C
	.byte	$2C
	.byte	$2C
	.byte	$2C
	.byte	$08
	.byte	$3C
	.byte	$20
	.byte	$00
	.byte	$08
	.byte	$00
	.byte	$00
	.byte	$00
	.byte	$2C
	.byte	$2C
	.byte	$3D
	.byte	$00
	.byte	$3C
	.byte	$3D
	.byte	$3D
	.byte	$20
	.byte	$00
	.byte	$00
	.byte	$2C
	.byte	$2E
	.byte	$2C
	.byte	$2C
	.byte	$2C
	.byte	$2C
	.byte	$3D
	.byte	$08
	.byte	$00
	.byte	$00
	.byte	$2C
	.byte	$2C
	.byte	$2C
	.byte	$2C
	.byte	$2C
	.byte	$2C
	.byte	$2C
	.byte	$2F
	.byte	$08
	.byte	$20
	.byte	$00
	.byte	$2C
	.byte	$00
	.byte	$2C
	.byte	$2C
	.byte	$2C
	.byte	$2C
	.byte	$2C
	.byte	$2C
	.byte	$2C
	.byte	$08
	.byte	$20
	.byte	$22
	.byte	$00
	.byte	$30
	.byte	$2C
	.byte	$36
	.byte	$2C
	.byte	$36
	.byte	$2C
	.byte	$22
	.byte	$00
	.byte	$3C
	.byte	$3D
	.byte	$20
	.byte	$3C
	.byte	$3F
	.byte	$00
	.byte	$2C
	.byte	$2C
	.byte	$2C
	.byte	$2C
	.byte	$2C
	.byte	$2C
	.byte	$08
	.byte	$20
	.byte	$00
	.byte	$00
	.byte	$2C
	.byte	$2C
	.byte	$2C
	.byte	$2C
	.byte	$05
	.byte	$27
	.byte	$07
	.byte	$22
	.byte	$20
	.byte	$3C
	.byte	$3D
	.byte	$20
	.byte	$22
	.byte	$00
	.byte	$30
	.byte	$2C
	.byte	$36
	.byte	$2C
	.byte	$36
	.byte	$2F
	.byte	$3C
	.byte	$3D
	.byte	$00
	.byte	$00
	.byte	$2C
	.byte	$2C
	.byte	$2C
	.byte	$2C
	.byte	$2C
	.byte	$2C
	.byte	$37
	.byte	$22
	.byte	$3D
	.byte	$20
	.byte	$00
	.byte	$2C
	.byte	$00
	.byte	$2C
	.byte	$2C
	.byte	$46
	.byte	$46
	.byte	$45
	.byte	$47
	.byte	$46
	.byte	$08
	.byte	$3C
	.byte	$00
	.byte	$00
	.byte	$2C
	.byte	$2C
	.byte	$2C
	.byte	$2C
	.byte	$05
	.byte	$27
	.byte	$07
	.byte	$42
	.byte	$3C
	.byte	$3D
	.byte	$3C
	.byte	$3D
	.byte	$3F
	.byte	$00
	.byte	$27
	.byte	$2C
	.byte	$46
	.byte	$27
	.byte	$47
	.byte	$47
	.byte	$3D
	.byte	$08
	.byte	$22
	.byte	$00
	.byte	$30
	.byte	$2C
	.byte	$36
	.byte	$2C
	.byte	$36
	.byte	$2C
	.byte	$22
	.byte	$2F
	.byte	$20
	.byte	$20
	.byte	$20
	.byte	$08
	.byte	$00
	.byte	$00
	.byte	$2C
	.byte	$2C
	.byte	$2C
	.byte	$2C
	.byte	$27
	.byte	$2C
	.byte	$3C
	.byte	$3D
	.byte	$00
	.byte	$3C
	.byte	$2C
	.byte	$20
	.byte	$2E
	.byte	$3F
	.byte	$2C
	.byte	$2C
	.byte	$27
	.byte	$3C
	.byte	$3C
	.byte	$3D
	.byte	$20
	.byte	$3C
	.byte	$00
	.byte	$00
	.byte	$2C
	.byte	$3F
	.byte	$2C
	.byte	$2C
	.byte	$2C
	.byte	$2C
	.byte	$08
	.byte	$3C
	.byte	$3D
	.byte	$29
	.byte	$08
	.byte	$00
	.byte	$00
	.byte	$00
	.byte	$2C
	.byte	$3F
	.byte	$3D
	.byte	$40
	.byte	$3C
	.byte	$3D
	.byte	$3D
	.byte	$20
	.byte	$28
	.byte	$29
	.byte	$2A
	.byte	$00
	.byte	$3F
	.byte	$29
	.byte	$3F
	.byte	$00
	.byte	$3D
	.byte	$08
	.byte	$2A
	.byte	$00
	.byte	$00
	.byte	$00
	.byte	$00
	.byte	$00
	.byte	$00
	.byte	$00
	.byte	$40
	.byte	$40
	.byte	$20
	.byte	$3C
	.byte	$3C
	.byte	$3D
	.byte	$00
	.byte	$00
	.byte	$00
	.byte	$00
	.byte	$00
	.byte	$00
	.byte	$2F
	.byte	$29
	.byte	$20
	.byte	$3C
	.byte	$00
	.byte	$29
	.byte	$2A
	.byte	$00
	.byte	$28
	.byte	$29
	.byte	$2A
	.byte	$00
	.byte	$40
	.byte	$05
	.byte	$3D
	.byte	$20
	.byte	$20
	.byte	$08
	.byte	$00
	.byte	$00
	.byte	$2A
	.byte	$00
	.byte	$28
	.byte	$00
	.byte	$00
	.byte	$00
	.byte	$3D
	.byte	$08
	.byte	$2A
	.byte	$00
	.byte	$00
	.byte	$29
	.byte	$2A
	.byte	$00
	.byte	$00
	.byte	$00
	.byte	$40
	.byte	$40
	.byte	$3C
	.byte	$3D
	.byte	$20
	.byte	$3C
	.byte	$2A
	.byte	$00
	.byte	$28
	.byte	$00
	.byte	$00
	.byte	$00
	.byte	$00
	.byte	$29
	.byte	$20
	.byte	$08
	.byte	$00
	.byte	$00
	.byte	$2A
	.byte	$00
	.byte	$28
	.byte	$00
	.byte	$00
	.byte	$00
	.byte	$40
	.byte	$40
	.byte	$20
	.byte	$25
	.byte	$3D
	.byte	$08
	.byte	$00
	.byte	$00
	.byte	$00
	.byte	$00
	.byte	$28
	.byte	$00
	.byte	$2F
	.byte	$00
	.byte	$08
	.byte	$25
	.byte	$00
	.byte	$00
	.byte	$28
	.byte	$00
	.byte	$2A
	.byte	$00
	.byte	$00
	.byte	$00
	.byte	$40
	.byte	$05
	.byte	$22
	.byte	$20
	.byte	$20
	.byte	$3C
	.byte	$2A
	.byte	$00
	.byte	$00
	.byte	$00
	.byte	$2A
	.byte	$00
	.byte	$00
	.byte	$00
	.byte	$2A
	.byte	$00
	.byte	$00
	.byte	$00
	.byte	$2A
	.byte	$00
	.byte	$00
	.byte	$00
	.byte	$00
	.byte	$00
	.byte	$40
	.byte	$40
	.byte	$21
	.byte	$21
	.byte	$3D
	.byte	$22
	.byte	$00
	.byte	$20
	.byte	$00
	.byte	$08
	.byte	$00
	.byte	$3C
	.byte	$2A
	.byte	$20
	.byte	$28
	.byte	$08
	.byte	$2A
	.byte	$25
	.byte	$00
	.byte	$08
	.byte	$2A
	.byte	$3C
	.byte	$28
	.byte	$22
	.byte	$40
	.byte	$25
	.byte	$21
	.byte	$20
_main_ts_tmaps_0:
	.byte	$00
	.byte	$01
	.byte	$05
	.byte	$09
	.byte	$09
	.byte	$0F
	.byte	$13
	.byte	$15
	.byte	$17
	.byte	$00
	.byte	$1E
	.byte	$21
	.byte	$24
	.byte	$00
	.byte	$29
	.byte	$2B
	.byte	$2C
	.byte	$00
	.byte	$31
	.byte	$00
	.byte	$13
	.byte	$2E
	.byte	$34
	.byte	$35
	.byte	$37
	.byte	$3B
	.byte	$3F
	.byte	$43
	.byte	$47
	.byte	$4B
	.byte	$4F
	.byte	$53
	.byte	$54
	.byte	$58
	.byte	$5A
	.byte	$5E
	.byte	$60
	.byte	$61
	.byte	$37
	.byte	$66
	.byte	$68
	.byte	$00
	.byte	$00
	.byte	$29
	.byte	$67
	.byte	$6B
	.byte	$6C
	.byte	$70
	.byte	$74
	.byte	$76
	.byte	$7A
	.byte	$78
	.byte	$7E
	.byte	$7A
	.byte	$76
	.byte	$82
	.byte	$86
	.byte	$8A
	.byte	$09
	.byte	$8A
	.byte	$8E
	.byte	$92
	.byte	$95
	.byte	$6B
	.byte	$97
	.byte	$98
	.byte	$00
	.byte	$9C
	.byte	$9E
	.byte	$01
	.byte	$A2
	.byte	$05
	.byte	$A6
	.byte	$AA
	.byte	$AC
	.byte	$AA
	.byte	$B2
	.byte	$B5
	.byte	$B9
	.byte	$AF
	.byte	$BD
	.byte	$BE
	.byte	$BE
	.byte	$BE
	.byte	$C5
	.byte	$C9
	.byte	$CD
	.byte	$D1
	.byte	$D5
	.byte	$D7
	.byte	$29
	.byte	$DA
	.byte	$DB
	.byte	$29
	.byte	$29
	.byte	$9C
_main_ts_tmaps_1:
	.byte	$00
	.byte	$02
	.byte	$06
	.byte	$0A
	.byte	$0A
	.byte	$10
	.byte	$14
	.byte	$16
	.byte	$18
	.byte	$1B
	.byte	$00
	.byte	$22
	.byte	$25
	.byte	$00
	.byte	$29
	.byte	$2A
	.byte	$2C
	.byte	$2F
	.byte	$00
	.byte	$2D
	.byte	$14
	.byte	$00
	.byte	$0E
	.byte	$36
	.byte	$38
	.byte	$3C
	.byte	$40
	.byte	$44
	.byte	$48
	.byte	$4C
	.byte	$50
	.byte	$53
	.byte	$55
	.byte	$58
	.byte	$5B
	.byte	$5E
	.byte	$60
	.byte	$62
	.byte	$38
	.byte	$67
	.byte	$00
	.byte	$00
	.byte	$6A
	.byte	$29
	.byte	$67
	.byte	$66
	.byte	$6D
	.byte	$71
	.byte	$75
	.byte	$77
	.byte	$7B
	.byte	$79
	.byte	$7F
	.byte	$7B
	.byte	$77
	.byte	$83
	.byte	$87
	.byte	$8B
	.byte	$38
	.byte	$8B
	.byte	$8F
	.byte	$62
	.byte	$95
	.byte	$00
	.byte	$97
	.byte	$99
	.byte	$67
	.byte	$9D
	.byte	$9F
	.byte	$02
	.byte	$A3
	.byte	$06
	.byte	$A7
	.byte	$AB
	.byte	$AD
	.byte	$AB
	.byte	$B3
	.byte	$B6
	.byte	$BA
	.byte	$AF
	.byte	$BE
	.byte	$C1
	.byte	$BE
	.byte	$C2
	.byte	$C6
	.byte	$CA
	.byte	$CE
	.byte	$D2
	.byte	$D6
	.byte	$D8
	.byte	$29
	.byte	$D9
	.byte	$DC
	.byte	$29
	.byte	$29
	.byte	$9D
_main_ts_tmaps_2:
	.byte	$00
	.byte	$03
	.byte	$07
	.byte	$0B
	.byte	$0D
	.byte	$11
	.byte	$13
	.byte	$0F
	.byte	$19
	.byte	$1C
	.byte	$1F
	.byte	$00
	.byte	$26
	.byte	$27
	.byte	$2A
	.byte	$00
	.byte	$2D
	.byte	$30
	.byte	$2D
	.byte	$00
	.byte	$32
	.byte	$00
	.byte	$00
	.byte	$00
	.byte	$39
	.byte	$3D
	.byte	$41
	.byte	$45
	.byte	$49
	.byte	$4D
	.byte	$51
	.byte	$39
	.byte	$56
	.byte	$59
	.byte	$5C
	.byte	$5F
	.byte	$00
	.byte	$63
	.byte	$34
	.byte	$00
	.byte	$00
	.byte	$00
	.byte	$00
	.byte	$29
	.byte	$67
	.byte	$6B
	.byte	$6E
	.byte	$72
	.byte	$76
	.byte	$78
	.byte	$74
	.byte	$7C
	.byte	$80
	.byte	$7C
	.byte	$76
	.byte	$84
	.byte	$88
	.byte	$88
	.byte	$00
	.byte	$8C
	.byte	$90
	.byte	$93
	.byte	$96
	.byte	$67
	.byte	$59
	.byte	$9A
	.byte	$00
	.byte	$13
	.byte	$A0
	.byte	$03
	.byte	$A4
	.byte	$07
	.byte	$A8
	.byte	$A8
	.byte	$AE
	.byte	$B0
	.byte	$AF
	.byte	$B7
	.byte	$BB
	.byte	$AF
	.byte	$BF
	.byte	$C0
	.byte	$C0
	.byte	$C3
	.byte	$C7
	.byte	$CB
	.byte	$CF
	.byte	$D3
	.byte	$D6
	.byte	$D8
	.byte	$D9
	.byte	$00
	.byte	$DC
	.byte	$D9
	.byte	$29
	.byte	$0F
_main_ts_tmaps_3:
	.byte	$00
	.byte	$04
	.byte	$08
	.byte	$0C
	.byte	$0E
	.byte	$12
	.byte	$14
	.byte	$10
	.byte	$1A
	.byte	$1D
	.byte	$20
	.byte	$23
	.byte	$00
	.byte	$28
	.byte	$2B
	.byte	$00
	.byte	$2E
	.byte	$2E
	.byte	$31
	.byte	$00
	.byte	$33
	.byte	$00
	.byte	$00
	.byte	$00
	.byte	$3A
	.byte	$3E
	.byte	$42
	.byte	$46
	.byte	$4A
	.byte	$4E
	.byte	$52
	.byte	$3A
	.byte	$57
	.byte	$59
	.byte	$5D
	.byte	$5F
	.byte	$00
	.byte	$64
	.byte	$65
	.byte	$67
	.byte	$00
	.byte	$69
	.byte	$00
	.byte	$29
	.byte	$67
	.byte	$67
	.byte	$6F
	.byte	$73
	.byte	$77
	.byte	$79
	.byte	$75
	.byte	$7D
	.byte	$81
	.byte	$7D
	.byte	$77
	.byte	$85
	.byte	$89
	.byte	$89
	.byte	$00
	.byte	$8D
	.byte	$91
	.byte	$94
	.byte	$96
	.byte	$6B
	.byte	$59
	.byte	$9B
	.byte	$67
	.byte	$14
	.byte	$A1
	.byte	$04
	.byte	$A5
	.byte	$08
	.byte	$A9
	.byte	$A9
	.byte	$AF
	.byte	$B1
	.byte	$B4
	.byte	$B8
	.byte	$BC
	.byte	$AF
	.byte	$C0
	.byte	$C0
	.byte	$C0
	.byte	$C4
	.byte	$C8
	.byte	$CC
	.byte	$D0
	.byte	$D4
	.byte	$D5
	.byte	$D7
	.byte	$DA
	.byte	$00
	.byte	$DB
	.byte	$29
	.byte	$DA
	.byte	$10
_main_ts_pals:
	.byte	$00
	.byte	$00
	.byte	$00
	.byte	$00
	.byte	$00
	.byte	$00
	.byte	$00
	.byte	$00
	.byte	$02
	.byte	$00
	.byte	$00
	.byte	$00
	.byte	$00
	.byte	$00
	.byte	$00
	.byte	$00
	.byte	$00
	.byte	$00
	.byte	$00
	.byte	$00
	.byte	$00
	.byte	$00
	.byte	$00
	.byte	$00
	.byte	$00
	.byte	$02
	.byte	$02
	.byte	$02
	.byte	$02
	.byte	$02
	.byte	$02
	.byte	$00
	.byte	$02
	.byte	$03
	.byte	$02
	.byte	$00
	.byte	$02
	.byte	$02
	.byte	$00
	.byte	$01
	.byte	$00
	.byte	$00
	.byte	$00
	.byte	$00
	.byte	$01
	.byte	$01
	.byte	$01
	.byte	$01
	.byte	$00
	.byte	$00
	.byte	$00
	.byte	$00
	.byte	$00
	.byte	$00
	.byte	$00
	.byte	$02
	.byte	$01
	.byte	$01
	.byte	$00
	.byte	$01
	.byte	$02
	.byte	$02
	.byte	$00
	.byte	$01
	.byte	$03
	.byte	$00
	.byte	$01
	.byte	$00
	.byte	$00
	.byte	$01
	.byte	$01
	.byte	$01
	.byte	$01
	.byte	$01
	.byte	$01
	.byte	$01
	.byte	$01
	.byte	$01
	.byte	$01
	.byte	$00
	.byte	$02
	.byte	$02
	.byte	$02
	.byte	$02
	.byte	$00
	.byte	$00
	.byte	$00
	.byte	$00
	.byte	$01
	.byte	$01
	.byte	$00
	.byte	$00
	.byte	$01
	.byte	$00
	.byte	$00
	.byte	$00
_attr_lookup_0_0:
	.byte	$00
	.byte	$00
	.byte	$00
	.byte	$00
	.byte	$00
	.byte	$00
	.byte	$00
	.byte	$00
	.byte	$02
	.byte	$00
	.byte	$00
	.byte	$00
	.byte	$00
	.byte	$00
	.byte	$00
	.byte	$00
	.byte	$00
	.byte	$00
	.byte	$00
	.byte	$00
	.byte	$00
	.byte	$00
	.byte	$00
	.byte	$00
	.byte	$00
	.byte	$02
	.byte	$02
	.byte	$02
	.byte	$02
	.byte	$02
	.byte	$02
	.byte	$00
	.byte	$02
	.byte	$03
	.byte	$02
	.byte	$00
	.byte	$02
	.byte	$02
	.byte	$00
	.byte	$01
	.byte	$00
	.byte	$00
	.byte	$00
	.byte	$00
	.byte	$01
	.byte	$01
	.byte	$01
	.byte	$01
	.byte	$00
	.byte	$00
	.byte	$00
	.byte	$00
	.byte	$00
	.byte	$00
	.byte	$00
	.byte	$02
	.byte	$01
	.byte	$01
	.byte	$00
	.byte	$01
	.byte	$02
	.byte	$02
	.byte	$00
	.byte	$01
	.byte	$03
	.byte	$00
	.byte	$01
	.byte	$00
	.byte	$00
	.byte	$01
	.byte	$01
	.byte	$01
	.byte	$01
	.byte	$01
	.byte	$01
	.byte	$01
	.byte	$01
	.byte	$01
	.byte	$01
	.byte	$00
	.byte	$02
	.byte	$02
	.byte	$02
	.byte	$02
	.byte	$00
	.byte	$00
	.byte	$00
	.byte	$00
	.byte	$01
	.byte	$01
	.byte	$00
	.byte	$00
	.byte	$01
	.byte	$00
	.byte	$00
	.byte	$00
_attr_lookup_0_1:
	.byte	$00
	.byte	$00
	.byte	$00
	.byte	$00
	.byte	$00
	.byte	$00
	.byte	$00
	.byte	$00
	.byte	$08
	.byte	$00
	.byte	$00
	.byte	$00
	.byte	$00
	.byte	$00
	.byte	$00
	.byte	$00
	.byte	$00
	.byte	$00
	.byte	$00
	.byte	$00
	.byte	$00
	.byte	$00
	.byte	$00
	.byte	$00
	.byte	$00
	.byte	$08
	.byte	$08
	.byte	$08
	.byte	$08
	.byte	$08
	.byte	$08
	.byte	$00
	.byte	$08
	.byte	$0C
	.byte	$08
	.byte	$00
	.byte	$08
	.byte	$08
	.byte	$00
	.byte	$04
	.byte	$00
	.byte	$00
	.byte	$00
	.byte	$00
	.byte	$04
	.byte	$04
	.byte	$04
	.byte	$04
	.byte	$00
	.byte	$00
	.byte	$00
	.byte	$00
	.byte	$00
	.byte	$00
	.byte	$00
	.byte	$08
	.byte	$04
	.byte	$04
	.byte	$00
	.byte	$04
	.byte	$08
	.byte	$08
	.byte	$00
	.byte	$04
	.byte	$0C
	.byte	$00
	.byte	$04
	.byte	$00
	.byte	$00
	.byte	$04
	.byte	$04
	.byte	$04
	.byte	$04
	.byte	$04
	.byte	$04
	.byte	$04
	.byte	$04
	.byte	$04
	.byte	$04
	.byte	$00
	.byte	$08
	.byte	$08
	.byte	$08
	.byte	$08
	.byte	$00
	.byte	$00
	.byte	$00
	.byte	$00
	.byte	$04
	.byte	$04
	.byte	$00
	.byte	$00
	.byte	$04
	.byte	$00
	.byte	$00
	.byte	$00
_attr_lookup_0_2:
	.byte	$00
	.byte	$00
	.byte	$00
	.byte	$00
	.byte	$00
	.byte	$00
	.byte	$00
	.byte	$00
	.byte	$20
	.byte	$00
	.byte	$00
	.byte	$00
	.byte	$00
	.byte	$00
	.byte	$00
	.byte	$00
	.byte	$00
	.byte	$00
	.byte	$00
	.byte	$00
	.byte	$00
	.byte	$00
	.byte	$00
	.byte	$00
	.byte	$00
	.byte	$20
	.byte	$20
	.byte	$20
	.byte	$20
	.byte	$20
	.byte	$20
	.byte	$00
	.byte	$20
	.byte	$30
	.byte	$20
	.byte	$00
	.byte	$20
	.byte	$20
	.byte	$00
	.byte	$10
	.byte	$00
	.byte	$00
	.byte	$00
	.byte	$00
	.byte	$10
	.byte	$10
	.byte	$10
	.byte	$10
	.byte	$00
	.byte	$00
	.byte	$00
	.byte	$00
	.byte	$00
	.byte	$00
	.byte	$00
	.byte	$20
	.byte	$10
	.byte	$10
	.byte	$00
	.byte	$10
	.byte	$20
	.byte	$20
	.byte	$00
	.byte	$10
	.byte	$30
	.byte	$00
	.byte	$10
	.byte	$00
	.byte	$00
	.byte	$10
	.byte	$10
	.byte	$10
	.byte	$10
	.byte	$10
	.byte	$10
	.byte	$10
	.byte	$10
	.byte	$10
	.byte	$10
	.byte	$00
	.byte	$20
	.byte	$20
	.byte	$20
	.byte	$20
	.byte	$00
	.byte	$00
	.byte	$00
	.byte	$00
	.byte	$10
	.byte	$10
	.byte	$00
	.byte	$00
	.byte	$10
	.byte	$00
	.byte	$00
	.byte	$00
_attr_lookup_0_3:
	.byte	$00
	.byte	$00
	.byte	$00
	.byte	$00
	.byte	$00
	.byte	$00
	.byte	$00
	.byte	$00
	.byte	$80
	.byte	$00
	.byte	$00
	.byte	$00
	.byte	$00
	.byte	$00
	.byte	$00
	.byte	$00
	.byte	$00
	.byte	$00
	.byte	$00
	.byte	$00
	.byte	$00
	.byte	$00
	.byte	$00
	.byte	$00
	.byte	$00
	.byte	$80
	.byte	$80
	.byte	$80
	.byte	$80
	.byte	$80
	.byte	$80
	.byte	$00
	.byte	$80
	.byte	$C0
	.byte	$80
	.byte	$00
	.byte	$80
	.byte	$80
	.byte	$00
	.byte	$40
	.byte	$00
	.byte	$00
	.byte	$00
	.byte	$00
	.byte	$40
	.byte	$40
	.byte	$40
	.byte	$40
	.byte	$00
	.byte	$00
	.byte	$00
	.byte	$00
	.byte	$00
	.byte	$00
	.byte	$00
	.byte	$80
	.byte	$40
	.byte	$40
	.byte	$00
	.byte	$40
	.byte	$80
	.byte	$80
	.byte	$00
	.byte	$40
	.byte	$C0
	.byte	$00
	.byte	$40
	.byte	$00
	.byte	$00
	.byte	$40
	.byte	$40
	.byte	$40
	.byte	$40
	.byte	$40
	.byte	$40
	.byte	$40
	.byte	$40
	.byte	$40
	.byte	$40
	.byte	$00
	.byte	$80
	.byte	$80
	.byte	$80
	.byte	$80
	.byte	$00
	.byte	$00
	.byte	$00
	.byte	$00
	.byte	$40
	.byte	$40
	.byte	$00
	.byte	$00
	.byte	$40
	.byte	$00
	.byte	$00
	.byte	$00
.segment	"ROM02"
.segment	"ROM03"
_title_rle:
	.byte	$01
	.byte	$40
	.byte	$01
	.byte	$3F
	.byte	$41
	.byte	$42
	.byte	$45
	.byte	$46
	.byte	$49
	.byte	$4A
	.byte	$41
	.byte	$42
	.byte	$4D
	.byte	$4E
	.byte	$45
	.byte	$46
	.byte	$49
	.byte	$4A
	.byte	$41
	.byte	$42
	.byte	$49
	.byte	$4A
	.byte	$41
	.byte	$42
	.byte	$4D
	.byte	$4E
	.byte	$45
	.byte	$46
	.byte	$4D
	.byte	$4E
	.byte	$49
	.byte	$4A
	.byte	$41
	.byte	$42
	.byte	$49
	.byte	$4A
	.byte	$43
	.byte	$44
	.byte	$47
	.byte	$48
	.byte	$4B
	.byte	$4C
	.byte	$43
	.byte	$44
	.byte	$4B
	.byte	$4B
	.byte	$47
	.byte	$48
	.byte	$4B
	.byte	$4C
	.byte	$43
	.byte	$44
	.byte	$4B
	.byte	$4C
	.byte	$43
	.byte	$44
	.byte	$4B
	.byte	$4B
	.byte	$47
	.byte	$48
	.byte	$4B
	.byte	$01
	.byte	$02
	.byte	$4C
	.byte	$43
	.byte	$44
	.byte	$4B
	.byte	$4C
	.byte	$4F
	.byte	$50
	.byte	$53
	.byte	$54
	.byte	$57
	.byte	$58
	.byte	$59
	.byte	$5A
	.byte	$57
	.byte	$58
	.byte	$4F
	.byte	$50
	.byte	$53
	.byte	$54
	.byte	$4F
	.byte	$50
	.byte	$53
	.byte	$54
	.byte	$59
	.byte	$5A
	.byte	$4F
	.byte	$50
	.byte	$53
	.byte	$54
	.byte	$57
	.byte	$58
	.byte	$59
	.byte	$5A
	.byte	$4F
	.byte	$50
	.byte	$53
	.byte	$54
	.byte	$51
	.byte	$52
	.byte	$55
	.byte	$56
	.byte	$51
	.byte	$51
	.byte	$5B
	.byte	$5C
	.byte	$51
	.byte	$01
	.byte	$02
	.byte	$52
	.byte	$55
	.byte	$56
	.byte	$51
	.byte	$52
	.byte	$55
	.byte	$56
	.byte	$5B
	.byte	$5C
	.byte	$51
	.byte	$52
	.byte	$55
	.byte	$56
	.byte	$51
	.byte	$51
	.byte	$5B
	.byte	$5C
	.byte	$51
	.byte	$52
	.byte	$55
	.byte	$56
	.byte	$5D
	.byte	$5E
	.byte	$61
	.byte	$62
	.byte	$5D
	.byte	$5E
	.byte	$65
	.byte	$66
	.byte	$61
	.byte	$62
	.byte	$5D
	.byte	$5E
	.byte	$69
	.byte	$6A
	.byte	$65
	.byte	$66
	.byte	$69
	.byte	$6A
	.byte	$61
	.byte	$62
	.byte	$5D
	.byte	$5E
	.byte	$61
	.byte	$62
	.byte	$5D
	.byte	$5E
	.byte	$69
	.byte	$6A
	.byte	$65
	.byte	$66
	.byte	$61
	.byte	$62
	.byte	$5F
	.byte	$60
	.byte	$00
	.byte	$64
	.byte	$5F
	.byte	$60
	.byte	$67
	.byte	$68
	.byte	$00
	.byte	$64
	.byte	$5F
	.byte	$60
	.byte	$00
	.byte	$00
	.byte	$67
	.byte	$68
	.byte	$00
	.byte	$01
	.byte	$02
	.byte	$64
	.byte	$5F
	.byte	$60
	.byte	$00
	.byte	$64
	.byte	$5F
	.byte	$60
	.byte	$00
	.byte	$00
	.byte	$67
	.byte	$68
	.byte	$00
	.byte	$64
	.byte	$00
	.byte	$01
	.byte	$21
	.byte	$6B
	.byte	$6C
	.byte	$6D
	.byte	$6C
	.byte	$01
	.byte	$02
	.byte	$6E
	.byte	$6C
	.byte	$6C
	.byte	$6F
	.byte	$6C
	.byte	$01
	.byte	$03
	.byte	$70
	.byte	$71
	.byte	$71
	.byte	$72
	.byte	$6F
	.byte	$6C
	.byte	$01
	.byte	$03
	.byte	$6E
	.byte	$6C
	.byte	$01
	.byte	$02
	.byte	$73
	.byte	$00
	.byte	$01
	.byte	$03
	.byte	$74
	.byte	$75
	.byte	$77
	.byte	$78
	.byte	$78
	.byte	$75
	.byte	$77
	.byte	$7A
	.byte	$7C
	.byte	$78
	.byte	$78
	.byte	$7E
	.byte	$7F
	.byte	$75
	.byte	$77
	.byte	$75
	.byte	$7C
	.byte	$7A
	.byte	$7C
	.byte	$7A
	.byte	$7C
	.byte	$75
	.byte	$77
	.byte	$75
	.byte	$77
	.byte	$75
	.byte	$77
	.byte	$84
	.byte	$00
	.byte	$01
	.byte	$03
	.byte	$74
	.byte	$76
	.byte	$79
	.byte	$7A
	.byte	$76
	.byte	$76
	.byte	$7B
	.byte	$76
	.byte	$7D
	.byte	$76
	.byte	$76
	.byte	$51
	.byte	$80
	.byte	$76
	.byte	$81
	.byte	$76
	.byte	$01
	.byte	$06
	.byte	$7B
	.byte	$82
	.byte	$83
	.byte	$82
	.byte	$83
	.byte	$84
	.byte	$00
	.byte	$01
	.byte	$03
	.byte	$74
	.byte	$85
	.byte	$77
	.byte	$76
	.byte	$76
	.byte	$85
	.byte	$77
	.byte	$76
	.byte	$8A
	.byte	$76
	.byte	$85
	.byte	$77
	.byte	$8C
	.byte	$85
	.byte	$8D
	.byte	$85
	.byte	$8F
	.byte	$7A
	.byte	$8F
	.byte	$7A
	.byte	$8F
	.byte	$85
	.byte	$77
	.byte	$7A
	.byte	$8F
	.byte	$7A
	.byte	$8F
	.byte	$94
	.byte	$00
	.byte	$01
	.byte	$03
	.byte	$86
	.byte	$87
	.byte	$79
	.byte	$88
	.byte	$88
	.byte	$89
	.byte	$79
	.byte	$88
	.byte	$01
	.byte	$02
	.byte	$8B
	.byte	$79
	.byte	$7E
	.byte	$8B
	.byte	$8E
	.byte	$8B
	.byte	$90
	.byte	$88
	.byte	$91
	.byte	$92
	.byte	$90
	.byte	$93
	.byte	$79
	.byte	$88
	.byte	$90
	.byte	$88
	.byte	$90
	.byte	$95
	.byte	$00
	.byte	$01
	.byte	$03
	.byte	$96
	.byte	$97
	.byte	$98
	.byte	$01
	.byte	$02
	.byte	$99
	.byte	$98
	.byte	$01
	.byte	$07
	.byte	$9A
	.byte	$9B
	.byte	$01
	.byte	$03
	.byte	$9C
	.byte	$98
	.byte	$9D
	.byte	$98
	.byte	$01
	.byte	$04
	.byte	$9E
	.byte	$00
	.byte	$01
	.byte	$FE
	.byte	$00
	.byte	$01
	.byte	$F2
	.byte	$88
	.byte	$AA
	.byte	$01
	.byte	$05
	.byte	$22
	.byte	$88
	.byte	$AA
	.byte	$01
	.byte	$05
	.byte	$22
	.byte	$00
	.byte	$01
	.byte	$1F
	.byte	$01
	.byte	$00
_plate1_rle:
	.byte	$01
	.byte	$00
	.byte	$01
	.byte	$89
	.byte	$41
	.byte	$42
	.byte	$45
	.byte	$01
	.byte	$06
	.byte	$47
	.byte	$45
	.byte	$01
	.byte	$06
	.byte	$47
	.byte	$45
	.byte	$48
	.byte	$00
	.byte	$01
	.byte	$0B
	.byte	$43
	.byte	$44
	.byte	$46
	.byte	$01
	.byte	$11
	.byte	$00
	.byte	$01
	.byte	$0F
	.byte	$49
	.byte	$4A
	.byte	$00
	.byte	$00
	.byte	$49
	.byte	$4A
	.byte	$00
	.byte	$00
	.byte	$49
	.byte	$4A
	.byte	$00
	.byte	$01
	.byte	$15
	.byte	$4B
	.byte	$4C
	.byte	$00
	.byte	$00
	.byte	$4B
	.byte	$4C
	.byte	$00
	.byte	$00
	.byte	$4B
	.byte	$4C
	.byte	$00
	.byte	$01
	.byte	$09
	.byte	$4D
	.byte	$00
	.byte	$01
	.byte	$05
	.byte	$51
	.byte	$00
	.byte	$01
	.byte	$03
	.byte	$52
	.byte	$53
	.byte	$00
	.byte	$00
	.byte	$52
	.byte	$53
	.byte	$00
	.byte	$00
	.byte	$52
	.byte	$53
	.byte	$00
	.byte	$00
	.byte	$56
	.byte	$57
	.byte	$00
	.byte	$01
	.byte	$05
	.byte	$4E
	.byte	$4F
	.byte	$00
	.byte	$00
	.byte	$50
	.byte	$00
	.byte	$01
	.byte	$06
	.byte	$54
	.byte	$55
	.byte	$00
	.byte	$00
	.byte	$54
	.byte	$55
	.byte	$00
	.byte	$00
	.byte	$54
	.byte	$55
	.byte	$00
	.byte	$00
	.byte	$58
	.byte	$59
	.byte	$00
	.byte	$01
	.byte	$05
	.byte	$5A
	.byte	$5A
	.byte	$5B
	.byte	$00
	.byte	$01
	.byte	$02
	.byte	$5E
	.byte	$00
	.byte	$01
	.byte	$04
	.byte	$5F
	.byte	$60
	.byte	$00
	.byte	$00
	.byte	$5F
	.byte	$60
	.byte	$00
	.byte	$00
	.byte	$5F
	.byte	$60
	.byte	$00
	.byte	$00
	.byte	$63
	.byte	$64
	.byte	$00
	.byte	$01
	.byte	$05
	.byte	$5A
	.byte	$5A
	.byte	$4E
	.byte	$4F
	.byte	$5C
	.byte	$5D
	.byte	$00
	.byte	$01
	.byte	$05
	.byte	$61
	.byte	$62
	.byte	$00
	.byte	$00
	.byte	$61
	.byte	$62
	.byte	$00
	.byte	$00
	.byte	$61
	.byte	$62
	.byte	$00
	.byte	$00
	.byte	$65
	.byte	$66
	.byte	$00
	.byte	$01
	.byte	$05
	.byte	$5A
	.byte	$01
	.byte	$05
	.byte	$5B
	.byte	$00
	.byte	$01
	.byte	$02
	.byte	$41
	.byte	$42
	.byte	$68
	.byte	$69
	.byte	$6C
	.byte	$45
	.byte	$6E
	.byte	$6F
	.byte	$6C
	.byte	$47
	.byte	$72
	.byte	$73
	.byte	$6C
	.byte	$45
	.byte	$01
	.byte	$03
	.byte	$47
	.byte	$00
	.byte	$01
	.byte	$03
	.byte	$67
	.byte	$5A
	.byte	$01
	.byte	$04
	.byte	$4E
	.byte	$4F
	.byte	$00
	.byte	$00
	.byte	$43
	.byte	$44
	.byte	$6A
	.byte	$6B
	.byte	$6D
	.byte	$46
	.byte	$70
	.byte	$71
	.byte	$6D
	.byte	$46
	.byte	$74
	.byte	$75
	.byte	$6D
	.byte	$46
	.byte	$01
	.byte	$03
	.byte	$76
	.byte	$00
	.byte	$01
	.byte	$FE
	.byte	$00
	.byte	$01
	.byte	$FE
	.byte	$00
	.byte	$01
	.byte	$0D
	.byte	$08
	.byte	$0A
	.byte	$01
	.byte	$03
	.byte	$02
	.byte	$00
	.byte	$01
	.byte	$02
	.byte	$88
	.byte	$01
	.byte	$02
	.byte	$08
	.byte	$00
	.byte	$01
	.byte	$03
	.byte	$0A
	.byte	$01
	.byte	$03
	.byte	$02
	.byte	$00
	.byte	$01
	.byte	$1F
	.byte	$01
	.byte	$00
_plate2_rle:
	.byte	$01
	.byte	$00
	.byte	$01
	.byte	$81
	.byte	$41
	.byte	$00
	.byte	$00
	.byte	$42
	.byte	$43
	.byte	$44
	.byte	$45
	.byte	$46
	.byte	$00
	.byte	$01
	.byte	$05
	.byte	$49
	.byte	$4A
	.byte	$4C
	.byte	$01
	.byte	$03
	.byte	$4D
	.byte	$4E
	.byte	$51
	.byte	$00
	.byte	$01
	.byte	$0C
	.byte	$43
	.byte	$44
	.byte	$47
	.byte	$48
	.byte	$00
	.byte	$01
	.byte	$05
	.byte	$4B
	.byte	$4C
	.byte	$01
	.byte	$04
	.byte	$4F
	.byte	$50
	.byte	$52
	.byte	$53
	.byte	$00
	.byte	$00
	.byte	$54
	.byte	$55
	.byte	$00
	.byte	$01
	.byte	$04
	.byte	$56
	.byte	$00
	.byte	$00
	.byte	$43
	.byte	$44
	.byte	$57
	.byte	$58
	.byte	$00
	.byte	$01
	.byte	$02
	.byte	$5B
	.byte	$5C
	.byte	$5D
	.byte	$5F
	.byte	$60
	.byte	$62
	.byte	$63
	.byte	$4C
	.byte	$4C
	.byte	$4D
	.byte	$4E
	.byte	$6A
	.byte	$60
	.byte	$62
	.byte	$63
	.byte	$55
	.byte	$00
	.byte	$01
	.byte	$08
	.byte	$43
	.byte	$44
	.byte	$59
	.byte	$5A
	.byte	$00
	.byte	$00
	.byte	$54
	.byte	$55
	.byte	$42
	.byte	$5E
	.byte	$00
	.byte	$61
	.byte	$64
	.byte	$65
	.byte	$66
	.byte	$67
	.byte	$68
	.byte	$69
	.byte	$00
	.byte	$61
	.byte	$64
	.byte	$65
	.byte	$00
	.byte	$01
	.byte	$09
	.byte	$43
	.byte	$44
	.byte	$6C
	.byte	$6C
	.byte	$00
	.byte	$01
	.byte	$07
	.byte	$6F
	.byte	$70
	.byte	$71
	.byte	$72
	.byte	$75
	.byte	$76
	.byte	$71
	.byte	$72
	.byte	$6F
	.byte	$70
	.byte	$00
	.byte	$01
	.byte	$05
	.byte	$6B
	.byte	$00
	.byte	$01
	.byte	$02
	.byte	$43
	.byte	$44
	.byte	$6D
	.byte	$6E
	.byte	$00
	.byte	$01
	.byte	$07
	.byte	$62
	.byte	$63
	.byte	$73
	.byte	$74
	.byte	$77
	.byte	$78
	.byte	$73
	.byte	$74
	.byte	$62
	.byte	$63
	.byte	$00
	.byte	$01
	.byte	$09
	.byte	$6F
	.byte	$70
	.byte	$7B
	.byte	$7C
	.byte	$00
	.byte	$00
	.byte	$7F
	.byte	$80
	.byte	$00
	.byte	$00
	.byte	$81
	.byte	$82
	.byte	$85
	.byte	$82
	.byte	$85
	.byte	$82
	.byte	$85
	.byte	$82
	.byte	$85
	.byte	$82
	.byte	$87
	.byte	$88
	.byte	$87
	.byte	$88
	.byte	$00
	.byte	$01
	.byte	$03
	.byte	$79
	.byte	$7A
	.byte	$00
	.byte	$00
	.byte	$62
	.byte	$63
	.byte	$7D
	.byte	$7E
	.byte	$00
	.byte	$00
	.byte	$43
	.byte	$44
	.byte	$00
	.byte	$00
	.byte	$83
	.byte	$84
	.byte	$86
	.byte	$84
	.byte	$86
	.byte	$84
	.byte	$86
	.byte	$84
	.byte	$86
	.byte	$84
	.byte	$89
	.byte	$8A
	.byte	$89
	.byte	$8A
	.byte	$00
	.byte	$01
	.byte	$03
	.byte	$4C
	.byte	$4C
	.byte	$8C
	.byte	$00
	.byte	$8F
	.byte	$90
	.byte	$93
	.byte	$94
	.byte	$8F
	.byte	$90
	.byte	$8F
	.byte	$90
	.byte	$93
	.byte	$97
	.byte	$99
	.byte	$9A
	.byte	$01
	.byte	$0C
	.byte	$00
	.byte	$01
	.byte	$03
	.byte	$8B
	.byte	$4C
	.byte	$8D
	.byte	$8E
	.byte	$91
	.byte	$92
	.byte	$95
	.byte	$96
	.byte	$91
	.byte	$92
	.byte	$91
	.byte	$92
	.byte	$95
	.byte	$98
	.byte	$9B
	.byte	$9C
	.byte	$9D
	.byte	$01
	.byte	$0A
	.byte	$9E
	.byte	$00
	.byte	$01
	.byte	$FE
	.byte	$00
	.byte	$01
	.byte	$FE
	.byte	$00
	.byte	$01
	.byte	$10
	.byte	$44
	.byte	$00
	.byte	$01
	.byte	$06
	.byte	$0A
	.byte	$02
	.byte	$00
	.byte	$00
	.byte	$08
	.byte	$0A
	.byte	$0A
	.byte	$0F
	.byte	$01
	.byte	$02
	.byte	$03
	.byte	$00
	.byte	$01
	.byte	$1F
	.byte	$01
	.byte	$00
_hud_rle:
	.byte	$01
	.byte	$00
	.byte	$01
	.byte	$1E
	.byte	$FE
	.byte	$00
	.byte	$01
	.byte	$FE
	.byte	$00
	.byte	$01
	.byte	$FE
	.byte	$00
	.byte	$01
	.byte	$FE
	.byte	$00
	.byte	$01
	.byte	$42
	.byte	$EA
	.byte	$EE
	.byte	$01
	.byte	$1D
	.byte	$EB
	.byte	$EF
	.byte	$00
	.byte	$00
	.byte	$F0
	.byte	$F2
	.byte	$00
	.byte	$01
	.byte	$07
	.byte	$F3
	.byte	$F4
	.byte	$F5
	.byte	$F2
	.byte	$00
	.byte	$01
	.byte	$08
	.byte	$F1
	.byte	$F2
	.byte	$00
	.byte	$01
	.byte	$02
	.byte	$EF
	.byte	$EC
	.byte	$EE
	.byte	$01
	.byte	$1D
	.byte	$ED
	.byte	$00
	.byte	$01
	.byte	$3F
	.byte	$01
	.byte	$00
_map_rle:
	.byte	$01
	.byte	$00
	.byte	$01
	.byte	$FE
	.byte	$00
	.byte	$01
	.byte	$65
	.byte	$F0
	.byte	$F1
	.byte	$01
	.byte	$13
	.byte	$F2
	.byte	$00
	.byte	$01
	.byte	$09
	.byte	$F3
	.byte	$FA
	.byte	$E3
	.byte	$E9
	.byte	$01
	.byte	$0A
	.byte	$EB
	.byte	$E9
	.byte	$F7
	.byte	$E3
	.byte	$E9
	.byte	$E9
	.byte	$E2
	.byte	$F3
	.byte	$00
	.byte	$01
	.byte	$09
	.byte	$F3
	.byte	$E1
	.byte	$E8
	.byte	$01
	.byte	$06
	.byte	$F6
	.byte	$E1
	.byte	$E8
	.byte	$E9
	.byte	$F6
	.byte	$E8
	.byte	$E8
	.byte	$F6
	.byte	$F6
	.byte	$E9
	.byte	$E9
	.byte	$F8
	.byte	$F3
	.byte	$00
	.byte	$01
	.byte	$09
	.byte	$F3
	.byte	$F9
	.byte	$E9
	.byte	$E9
	.byte	$FB
	.byte	$E1
	.byte	$E9
	.byte	$01
	.byte	$02
	.byte	$FD
	.byte	$E8
	.byte	$E8
	.byte	$F7
	.byte	$E1
	.byte	$E9
	.byte	$E8
	.byte	$E9
	.byte	$FD
	.byte	$F6
	.byte	$E8
	.byte	$E1
	.byte	$F3
	.byte	$00
	.byte	$01
	.byte	$09
	.byte	$F3
	.byte	$FA
	.byte	$FB
	.byte	$E3
	.byte	$FB
	.byte	$FB
	.byte	$FC
	.byte	$FC
	.byte	$FB
	.byte	$FD
	.byte	$FB
	.byte	$FD
	.byte	$FB
	.byte	$FC
	.byte	$FB
	.byte	$01
	.byte	$02
	.byte	$E1
	.byte	$FB
	.byte	$E3
	.byte	$FD
	.byte	$F3
	.byte	$00
	.byte	$01
	.byte	$09
	.byte	$F4
	.byte	$F1
	.byte	$01
	.byte	$13
	.byte	$F5
	.byte	$00
	.byte	$01
	.byte	$FE
	.byte	$00
	.byte	$01
	.byte	$B6
	.byte	$A0
	.byte	$01
	.byte	$05
	.byte	$00
	.byte	$00
	.byte	$22
	.byte	$00
	.byte	$01
	.byte	$03
	.byte	$88
	.byte	$00
	.byte	$00
	.byte	$0A
	.byte	$01
	.byte	$05
	.byte	$00
	.byte	$01
	.byte	$18
	.byte	$01
	.byte	$00
_ending_rle:
	.byte	$01
	.byte	$00
	.byte	$01
	.byte	$C7
	.byte	$41
	.byte	$41
	.byte	$42
	.byte	$43
	.byte	$46
	.byte	$47
	.byte	$4A
	.byte	$4B
	.byte	$4E
	.byte	$4F
	.byte	$43
	.byte	$01
	.byte	$05
	.byte	$00
	.byte	$01
	.byte	$0F
	.byte	$41
	.byte	$41
	.byte	$44
	.byte	$45
	.byte	$48
	.byte	$49
	.byte	$4C
	.byte	$4D
	.byte	$50
	.byte	$51
	.byte	$52
	.byte	$43
	.byte	$01
	.byte	$04
	.byte	$00
	.byte	$01
	.byte	$0F
	.byte	$41
	.byte	$01
	.byte	$02
	.byte	$53
	.byte	$55
	.byte	$56
	.byte	$59
	.byte	$5A
	.byte	$5D
	.byte	$5E
	.byte	$43
	.byte	$01
	.byte	$05
	.byte	$00
	.byte	$01
	.byte	$0F
	.byte	$41
	.byte	$01
	.byte	$02
	.byte	$54
	.byte	$57
	.byte	$58
	.byte	$5B
	.byte	$5C
	.byte	$5F
	.byte	$43
	.byte	$01
	.byte	$06
	.byte	$00
	.byte	$01
	.byte	$0F
	.byte	$41
	.byte	$01
	.byte	$03
	.byte	$63
	.byte	$64
	.byte	$67
	.byte	$68
	.byte	$6B
	.byte	$43
	.byte	$46
	.byte	$47
	.byte	$43
	.byte	$01
	.byte	$03
	.byte	$00
	.byte	$01
	.byte	$0F
	.byte	$60
	.byte	$41
	.byte	$61
	.byte	$62
	.byte	$65
	.byte	$66
	.byte	$69
	.byte	$6A
	.byte	$43
	.byte	$45
	.byte	$48
	.byte	$43
	.byte	$01
	.byte	$04
	.byte	$00
	.byte	$01
	.byte	$0F
	.byte	$6C
	.byte	$6D
	.byte	$70
	.byte	$71
	.byte	$74
	.byte	$75
	.byte	$77
	.byte	$78
	.byte	$79
	.byte	$7A
	.byte	$43
	.byte	$43
	.byte	$46
	.byte	$47
	.byte	$43
	.byte	$43
	.byte	$00
	.byte	$01
	.byte	$0F
	.byte	$6E
	.byte	$6F
	.byte	$72
	.byte	$73
	.byte	$76
	.byte	$41
	.byte	$01
	.byte	$03
	.byte	$42
	.byte	$43
	.byte	$45
	.byte	$48
	.byte	$43
	.byte	$01
	.byte	$02
	.byte	$00
	.byte	$01
	.byte	$FE
	.byte	$00
	.byte	$01
	.byte	$FE
	.byte	$00
	.byte	$01
	.byte	$13
	.byte	$50
	.byte	$01
	.byte	$03
	.byte	$00
	.byte	$01
	.byte	$03
	.byte	$55
	.byte	$01
	.byte	$03
	.byte	$00
	.byte	$01
	.byte	$03
	.byte	$05
	.byte	$01
	.byte	$03
	.byte	$00
	.byte	$01
	.byte	$21
	.byte	$01
	.byte	$00
.segment	"ROM04"
_enems_t_0:
	.byte	$00
	.byte	$00
	.byte	$00
	.byte	$00
	.byte	$00
	.byte	$00
	.byte	$12
	.byte	$00
	.byte	$00
	.byte	$12
	.byte	$00
	.byte	$00
	.byte	$12
	.byte	$23
	.byte	$00
	.byte	$12
	.byte	$12
	.byte	$00
	.byte	$12
	.byte	$23
	.byte	$00
	.byte	$33
	.byte	$00
	.byte	$00
	.byte	$12
	.byte	$12
	.byte	$00
	.byte	$10
	.byte	$12
	.byte	$00
	.byte	$10
	.byte	$00
	.byte	$00
	.byte	$10
	.byte	$10
	.byte	$00
	.byte	$10
	.byte	$10
	.byte	$00
	.byte	$11
	.byte	$11
	.byte	$00
	.byte	$33
	.byte	$00
	.byte	$00
	.byte	$33
	.byte	$C0
	.byte	$00
	.byte	$00
	.byte	$00
	.byte	$00
	.byte	$00
	.byte	$00
	.byte	$00
	.byte	$11
	.byte	$00
	.byte	$00
	.byte	$00
	.byte	$00
	.byte	$00
	.byte	$C0
	.byte	$00
	.byte	$00
	.byte	$12
	.byte	$C0
	.byte	$C0
	.byte	$C0
	.byte	$11
	.byte	$C0
	.byte	$C0
	.byte	$C0
	.byte	$C0
	.byte	$C0
	.byte	$C0
	.byte	$C0
	.byte	$C0
	.byte	$C0
	.byte	$C0
	.byte	$C0
	.byte	$C0
	.byte	$C0
	.byte	$C0
	.byte	$C0
	.byte	$C0
	.byte	$C0
	.byte	$C0
	.byte	$00
	.byte	$12
	.byte	$23
	.byte	$00
	.byte	$10
	.byte	$00
	.byte	$00
	.byte	$00
	.byte	$00
	.byte	$00
	.byte	$00
	.byte	$00
	.byte	$00
	.byte	$C0
	.byte	$00
	.byte	$00
	.byte	$23
	.byte	$00
	.byte	$00
	.byte	$11
	.byte	$00
	.byte	$00
	.byte	$00
	.byte	$00
	.byte	$00
	.byte	$12
	.byte	$12
	.byte	$00
	.byte	$33
	.byte	$00
	.byte	$00
	.byte	$33
	.byte	$33
	.byte	$00
	.byte	$C0
	.byte	$C0
	.byte	$00
	.byte	$33
	.byte	$33
	.byte	$00
	.byte	$33
	.byte	$33
	.byte	$00
	.byte	$33
	.byte	$00
	.byte	$00
	.byte	$00
	.byte	$00
	.byte	$00
	.byte	$33
	.byte	$33
	.byte	$00
	.byte	$33
	.byte	$00
	.byte	$00
	.byte	$12
	.byte	$11
	.byte	$00
	.byte	$12
	.byte	$00
	.byte	$00
	.byte	$33
	.byte	$33
	.byte	$00
	.byte	$12
	.byte	$00
	.byte	$00
	.byte	$23
	.byte	$00
	.byte	$00
	.byte	$00
	.byte	$00
	.byte	$00
	.byte	$33
	.byte	$00
	.byte	$00
	.byte	$33
	.byte	$00
	.byte	$00
	.byte	$00
	.byte	$00
	.byte	$00
	.byte	$11
	.byte	$11
	.byte	$00
	.byte	$23
	.byte	$C0
	.byte	$C0
	.byte	$12
	.byte	$00
	.byte	$00
	.byte	$33
	.byte	$C0
	.byte	$00
	.byte	$11
	.byte	$00
	.byte	$11
	.byte	$C0
	.byte	$11
	.byte	$00
	.byte	$00
	.byte	$00
	.byte	$00
	.byte	$C0
	.byte	$C0
	.byte	$00
	.byte	$C0
	.byte	$C0
	.byte	$C0
	.byte	$C0
	.byte	$C0
	.byte	$C0
	.byte	$C0
	.byte	$C0
	.byte	$C0
	.byte	$C0
	.byte	$33
	.byte	$23
	.byte	$C0
	.byte	$C0
	.byte	$00
	.byte	$C0
	.byte	$C0
	.byte	$00
	.byte	$C0
	.byte	$C0
	.byte	$00
	.byte	$00
	.byte	$00
	.byte	$00
	.byte	$C0
	.byte	$C0
	.byte	$00
	.byte	$C0
	.byte	$C0
	.byte	$C0
	.byte	$C0
	.byte	$C0
	.byte	$C0
	.byte	$23
	.byte	$00
	.byte	$00
	.byte	$33
	.byte	$33
	.byte	$00
	.byte	$11
	.byte	$00
	.byte	$12
	.byte	$00
	.byte	$00
	.byte	$00
	.byte	$12
	.byte	$C0
	.byte	$C0
_enems_yx1_0:
	.byte	$00
	.byte	$00
	.byte	$00
	.byte	$00
	.byte	$00
	.byte	$00
	.byte	$63
	.byte	$00
	.byte	$00
	.byte	$74
	.byte	$00
	.byte	$00
	.byte	$28
	.byte	$B5
	.byte	$00
	.byte	$66
	.byte	$7B
	.byte	$00
	.byte	$43
	.byte	$92
	.byte	$00
	.byte	$49
	.byte	$00
	.byte	$00
	.byte	$38
	.byte	$63
	.byte	$00
	.byte	$CA
	.byte	$47
	.byte	$00
	.byte	$C9
	.byte	$00
	.byte	$00
	.byte	$BB
	.byte	$CC
	.byte	$00
	.byte	$CA
	.byte	$C5
	.byte	$00
	.byte	$CE
	.byte	$C5
	.byte	$00
	.byte	$6A
	.byte	$00
	.byte	$00
	.byte	$48
	.byte	$D5
	.byte	$00
	.byte	$00
	.byte	$00
	.byte	$00
	.byte	$00
	.byte	$00
	.byte	$00
	.byte	$AA
	.byte	$00
	.byte	$00
	.byte	$00
	.byte	$00
	.byte	$00
	.byte	$CC
	.byte	$00
	.byte	$00
	.byte	$36
	.byte	$C8
	.byte	$CD
	.byte	$CD
	.byte	$BA
	.byte	$C2
	.byte	$C6
	.byte	$CA
	.byte	$C2
	.byte	$C3
	.byte	$C8
	.byte	$CD
	.byte	$C2
	.byte	$CC
	.byte	$C6
	.byte	$C2
	.byte	$CC
	.byte	$C7
	.byte	$C6
	.byte	$CA
	.byte	$C2
	.byte	$C2
	.byte	$CE
	.byte	$00
	.byte	$3B
	.byte	$37
	.byte	$00
	.byte	$98
	.byte	$00
	.byte	$00
	.byte	$00
	.byte	$00
	.byte	$00
	.byte	$00
	.byte	$00
	.byte	$00
	.byte	$BC
	.byte	$00
	.byte	$00
	.byte	$51
	.byte	$00
	.byte	$00
	.byte	$CE
	.byte	$00
	.byte	$00
	.byte	$00
	.byte	$00
	.byte	$00
	.byte	$31
	.byte	$C1
	.byte	$00
	.byte	$C1
	.byte	$00
	.byte	$00
	.byte	$A4
	.byte	$88
	.byte	$00
	.byte	$B3
	.byte	$B7
	.byte	$81
	.byte	$C3
	.byte	$CB
	.byte	$00
	.byte	$77
	.byte	$9A
	.byte	$00
	.byte	$97
	.byte	$00
	.byte	$00
	.byte	$00
	.byte	$00
	.byte	$00
	.byte	$B8
	.byte	$45
	.byte	$00
	.byte	$86
	.byte	$00
	.byte	$00
	.byte	$68
	.byte	$73
	.byte	$00
	.byte	$53
	.byte	$00
	.byte	$00
	.byte	$B9
	.byte	$AC
	.byte	$82
	.byte	$3E
	.byte	$00
	.byte	$00
	.byte	$88
	.byte	$00
	.byte	$00
	.byte	$00
	.byte	$00
	.byte	$00
	.byte	$99
	.byte	$00
	.byte	$00
	.byte	$96
	.byte	$00
	.byte	$00
	.byte	$00
	.byte	$00
	.byte	$00
	.byte	$C9
	.byte	$BA
	.byte	$00
	.byte	$7E
	.byte	$B5
	.byte	$BC
	.byte	$3A
	.byte	$00
	.byte	$00
	.byte	$9A
	.byte	$D4
	.byte	$00
	.byte	$C7
	.byte	$7B
	.byte	$6C
	.byte	$CE
	.byte	$CB
	.byte	$00
	.byte	$A3
	.byte	$A8
	.byte	$AD
	.byte	$C5
	.byte	$C9
	.byte	$00
	.byte	$C5
	.byte	$CA
	.byte	$C2
	.byte	$C6
	.byte	$C5
	.byte	$CD
	.byte	$C4
	.byte	$C9
	.byte	$CD
	.byte	$C2
	.byte	$79
	.byte	$A1
	.byte	$C7
	.byte	$C3
	.byte	$00
	.byte	$B7
	.byte	$B9
	.byte	$8C
	.byte	$B3
	.byte	$BA
	.byte	$00
	.byte	$95
	.byte	$96
	.byte	$00
	.byte	$C6
	.byte	$CA
	.byte	$00
	.byte	$C2
	.byte	$C5
	.byte	$CC
	.byte	$C4
	.byte	$C6
	.byte	$CC
	.byte	$CB
	.byte	$00
	.byte	$00
	.byte	$8B
	.byte	$74
	.byte	$00
	.byte	$6D
	.byte	$2C
	.byte	$81
	.byte	$28
	.byte	$74
	.byte	$7C
	.byte	$3C
	.byte	$C8
	.byte	$C2
_enems_yx2_0:
	.byte	$00
	.byte	$00
	.byte	$00
	.byte	$00
	.byte	$00
	.byte	$00
	.byte	$CA
	.byte	$00
	.byte	$00
	.byte	$BE
	.byte	$00
	.byte	$00
	.byte	$C8
	.byte	$B1
	.byte	$00
	.byte	$C6
	.byte	$AB
	.byte	$00
	.byte	$68
	.byte	$99
	.byte	$00
	.byte	$48
	.byte	$00
	.byte	$00
	.byte	$98
	.byte	$A3
	.byte	$00
	.byte	$CE
	.byte	$97
	.byte	$00
	.byte	$C6
	.byte	$00
	.byte	$00
	.byte	$B5
	.byte	$CF
	.byte	$00
	.byte	$C6
	.byte	$C2
	.byte	$00
	.byte	$C9
	.byte	$CA
	.byte	$00
	.byte	$5A
	.byte	$00
	.byte	$00
	.byte	$49
	.byte	$C5
	.byte	$00
	.byte	$00
	.byte	$00
	.byte	$00
	.byte	$00
	.byte	$00
	.byte	$00
	.byte	$A3
	.byte	$00
	.byte	$00
	.byte	$00
	.byte	$00
	.byte	$00
	.byte	$BC
	.byte	$00
	.byte	$00
	.byte	$A6
	.byte	$B8
	.byte	$BD
	.byte	$BD
	.byte	$B5
	.byte	$B2
	.byte	$B6
	.byte	$BA
	.byte	$B2
	.byte	$B3
	.byte	$B8
	.byte	$BD
	.byte	$B2
	.byte	$BC
	.byte	$B6
	.byte	$B2
	.byte	$BC
	.byte	$B7
	.byte	$B6
	.byte	$BA
	.byte	$B2
	.byte	$B2
	.byte	$BE
	.byte	$00
	.byte	$9B
	.byte	$C7
	.byte	$00
	.byte	$93
	.byte	$00
	.byte	$00
	.byte	$00
	.byte	$00
	.byte	$00
	.byte	$00
	.byte	$00
	.byte	$00
	.byte	$AC
	.byte	$00
	.byte	$00
	.byte	$C1
	.byte	$00
	.byte	$00
	.byte	$CD
	.byte	$00
	.byte	$00
	.byte	$00
	.byte	$00
	.byte	$00
	.byte	$CE
	.byte	$3E
	.byte	$00
	.byte	$B1
	.byte	$00
	.byte	$00
	.byte	$94
	.byte	$78
	.byte	$00
	.byte	$A3
	.byte	$A7
	.byte	$8A
	.byte	$B3
	.byte	$BB
	.byte	$00
	.byte	$67
	.byte	$8A
	.byte	$00
	.byte	$87
	.byte	$00
	.byte	$00
	.byte	$00
	.byte	$00
	.byte	$00
	.byte	$A8
	.byte	$35
	.byte	$00
	.byte	$76
	.byte	$00
	.byte	$00
	.byte	$62
	.byte	$77
	.byte	$00
	.byte	$B3
	.byte	$00
	.byte	$00
	.byte	$A9
	.byte	$9C
	.byte	$88
	.byte	$CE
	.byte	$00
	.byte	$00
	.byte	$8E
	.byte	$00
	.byte	$00
	.byte	$00
	.byte	$00
	.byte	$00
	.byte	$89
	.byte	$00
	.byte	$00
	.byte	$86
	.byte	$00
	.byte	$00
	.byte	$00
	.byte	$00
	.byte	$00
	.byte	$C2
	.byte	$BC
	.byte	$00
	.byte	$73
	.byte	$A5
	.byte	$AC
	.byte	$CB
	.byte	$00
	.byte	$00
	.byte	$99
	.byte	$C4
	.byte	$00
	.byte	$CB
	.byte	$8B
	.byte	$64
	.byte	$BE
	.byte	$C5
	.byte	$00
	.byte	$93
	.byte	$98
	.byte	$9D
	.byte	$B5
	.byte	$B9
	.byte	$00
	.byte	$B5
	.byte	$BA
	.byte	$B2
	.byte	$B6
	.byte	$B5
	.byte	$BD
	.byte	$B4
	.byte	$B9
	.byte	$BD
	.byte	$B2
	.byte	$69
	.byte	$AA
	.byte	$B7
	.byte	$B3
	.byte	$00
	.byte	$A7
	.byte	$A9
	.byte	$85
	.byte	$A3
	.byte	$AA
	.byte	$00
	.byte	$55
	.byte	$56
	.byte	$00
	.byte	$B6
	.byte	$BA
	.byte	$00
	.byte	$B2
	.byte	$B5
	.byte	$BC
	.byte	$B4
	.byte	$B6
	.byte	$BC
	.byte	$4B
	.byte	$00
	.byte	$00
	.byte	$7B
	.byte	$64
	.byte	$00
	.byte	$63
	.byte	$3C
	.byte	$C4
	.byte	$38
	.byte	$84
	.byte	$8C
	.byte	$BE
	.byte	$B8
	.byte	$B2
_enems_mn_0:
	.byte	$00
	.byte	$00
	.byte	$00
	.byte	$00
	.byte	$00
	.byte	$00
	.byte	$02
	.byte	$00
	.byte	$00
	.byte	$02
	.byte	$00
	.byte	$00
	.byte	$02
	.byte	$02
	.byte	$00
	.byte	$01
	.byte	$02
	.byte	$00
	.byte	$01
	.byte	$01
	.byte	$00
	.byte	$00
	.byte	$00
	.byte	$00
	.byte	$02
	.byte	$01
	.byte	$00
	.byte	$01
	.byte	$02
	.byte	$00
	.byte	$01
	.byte	$00
	.byte	$00
	.byte	$02
	.byte	$01
	.byte	$00
	.byte	$01
	.byte	$01
	.byte	$00
	.byte	$01
	.byte	$02
	.byte	$00
	.byte	$00
	.byte	$00
	.byte	$00
	.byte	$00
	.byte	$00
	.byte	$00
	.byte	$00
	.byte	$00
	.byte	$00
	.byte	$00
	.byte	$00
	.byte	$00
	.byte	$02
	.byte	$00
	.byte	$00
	.byte	$00
	.byte	$00
	.byte	$00
	.byte	$00
	.byte	$00
	.byte	$00
	.byte	$02
	.byte	$02
	.byte	$00
	.byte	$00
	.byte	$01
	.byte	$01
	.byte	$00
	.byte	$04
	.byte	$02
	.byte	$04
	.byte	$03
	.byte	$02
	.byte	$01
	.byte	$04
	.byte	$02
	.byte	$00
	.byte	$02
	.byte	$00
	.byte	$01
	.byte	$00
	.byte	$02
	.byte	$02
	.byte	$03
	.byte	$00
	.byte	$02
	.byte	$01
	.byte	$00
	.byte	$01
	.byte	$00
	.byte	$00
	.byte	$00
	.byte	$00
	.byte	$00
	.byte	$00
	.byte	$00
	.byte	$00
	.byte	$00
	.byte	$00
	.byte	$00
	.byte	$01
	.byte	$00
	.byte	$00
	.byte	$01
	.byte	$00
	.byte	$00
	.byte	$00
	.byte	$00
	.byte	$00
	.byte	$02
	.byte	$02
	.byte	$00
	.byte	$00
	.byte	$00
	.byte	$00
	.byte	$00
	.byte	$00
	.byte	$00
	.byte	$00
	.byte	$04
	.byte	$02
	.byte	$00
	.byte	$00
	.byte	$00
	.byte	$00
	.byte	$00
	.byte	$00
	.byte	$00
	.byte	$00
	.byte	$00
	.byte	$00
	.byte	$00
	.byte	$00
	.byte	$00
	.byte	$00
	.byte	$00
	.byte	$00
	.byte	$00
	.byte	$00
	.byte	$02
	.byte	$01
	.byte	$00
	.byte	$02
	.byte	$00
	.byte	$00
	.byte	$00
	.byte	$00
	.byte	$02
	.byte	$01
	.byte	$00
	.byte	$00
	.byte	$02
	.byte	$00
	.byte	$00
	.byte	$00
	.byte	$00
	.byte	$00
	.byte	$00
	.byte	$00
	.byte	$00
	.byte	$00
	.byte	$00
	.byte	$00
	.byte	$00
	.byte	$00
	.byte	$00
	.byte	$02
	.byte	$01
	.byte	$00
	.byte	$01
	.byte	$00
	.byte	$02
	.byte	$02
	.byte	$00
	.byte	$00
	.byte	$00
	.byte	$02
	.byte	$00
	.byte	$01
	.byte	$04
	.byte	$02
	.byte	$04
	.byte	$02
	.byte	$00
	.byte	$01
	.byte	$03
	.byte	$00
	.byte	$00
	.byte	$04
	.byte	$00
	.byte	$02
	.byte	$00
	.byte	$01
	.byte	$02
	.byte	$00
	.byte	$04
	.byte	$01
	.byte	$00
	.byte	$02
	.byte	$03
	.byte	$00
	.byte	$01
	.byte	$00
	.byte	$01
	.byte	$00
	.byte	$00
	.byte	$01
	.byte	$02
	.byte	$06
	.byte	$02
	.byte	$00
	.byte	$01
	.byte	$01
	.byte	$00
	.byte	$00
	.byte	$02
	.byte	$00
	.byte	$03
	.byte	$01
	.byte	$00
	.byte	$00
	.byte	$01
	.byte	$02
	.byte	$01
	.byte	$00
	.byte	$00
	.byte	$00
	.byte	$00
	.byte	$00
	.byte	$02
	.byte	$04
	.byte	$02
	.byte	$02
	.byte	$06
	.byte	$03
	.byte	$02
	.byte	$01
	.byte	$02
_hotspots_t_0:
	.byte	$0C
	.byte	$20
	.byte	$00
	.byte	$00
	.byte	$00
	.byte	$00
	.byte	$00
	.byte	$01
	.byte	$00
	.byte	$00
	.byte	$00
	.byte	$00
	.byte	$00
	.byte	$00
	.byte	$00
	.byte	$01
	.byte	$20
	.byte	$0F
	.byte	$00
	.byte	$22
	.byte	$21
	.byte	$00
	.byte	$00
	.byte	$00
	.byte	$00
	.byte	$00
	.byte	$01
	.byte	$00
	.byte	$00
	.byte	$21
	.byte	$00
	.byte	$01
	.byte	$01
	.byte	$06
	.byte	$00
	.byte	$00
	.byte	$01
	.byte	$00
	.byte	$00
	.byte	$01
	.byte	$01
	.byte	$00
	.byte	$00
	.byte	$05
	.byte	$21
	.byte	$00
	.byte	$01
	.byte	$00
	.byte	$04
	.byte	$00
	.byte	$00
	.byte	$01
	.byte	$21
	.byte	$00
	.byte	$00
	.byte	$00
	.byte	$00
	.byte	$07
	.byte	$00
	.byte	$21
	.byte	$00
	.byte	$0D
	.byte	$20
	.byte	$00
	.byte	$00
	.byte	$00
	.byte	$00
	.byte	$00
	.byte	$00
	.byte	$00
	.byte	$00
	.byte	$01
	.byte	$00
	.byte	$00
	.byte	$00
	.byte	$00
	.byte	$21
	.byte	$0E
	.byte	$20
	.byte	$01
_hotspots_yx_0:
	.byte	$68
	.byte	$B3
	.byte	$00
	.byte	$00
	.byte	$00
	.byte	$00
	.byte	$00
	.byte	$B9
	.byte	$00
	.byte	$00
	.byte	$00
	.byte	$00
	.byte	$00
	.byte	$00
	.byte	$00
	.byte	$6D
	.byte	$88
	.byte	$A6
	.byte	$00
	.byte	$4D
	.byte	$99
	.byte	$00
	.byte	$00
	.byte	$00
	.byte	$00
	.byte	$00
	.byte	$B6
	.byte	$00
	.byte	$00
	.byte	$7A
	.byte	$00
	.byte	$37
	.byte	$AC
	.byte	$62
	.byte	$00
	.byte	$00
	.byte	$81
	.byte	$00
	.byte	$00
	.byte	$4C
	.byte	$85
	.byte	$00
	.byte	$00
	.byte	$79
	.byte	$41
	.byte	$00
	.byte	$45
	.byte	$00
	.byte	$AE
	.byte	$00
	.byte	$00
	.byte	$5D
	.byte	$C8
	.byte	$00
	.byte	$00
	.byte	$00
	.byte	$00
	.byte	$4D
	.byte	$00
	.byte	$C7
	.byte	$00
	.byte	$54
	.byte	$97
	.byte	$00
	.byte	$00
	.byte	$00
	.byte	$00
	.byte	$00
	.byte	$00
	.byte	$00
	.byte	$00
	.byte	$55
	.byte	$00
	.byte	$00
	.byte	$00
	.byte	$00
	.byte	$AE
	.byte	$B9
	.byte	$B8
	.byte	$B5
_sspl_00_a:
	.byte	$FC
	.byte	$F8
	.byte	$01
	.byte	$00
	.byte	$04
	.byte	$F8
	.byte	$02
	.byte	$00
	.byte	$FC
	.byte	$00
	.byte	$03
	.byte	$00
	.byte	$04
	.byte	$00
	.byte	$04
	.byte	$00
	.byte	$FC
	.byte	$08
	.byte	$05
	.byte	$00
	.byte	$04
	.byte	$08
	.byte	$06
	.byte	$00
	.byte	$80
_sspl_00_b:
	.byte	$FC
	.byte	$F8
	.byte	$02
	.byte	$40
	.byte	$04
	.byte	$F8
	.byte	$01
	.byte	$40
	.byte	$FC
	.byte	$00
	.byte	$04
	.byte	$40
	.byte	$04
	.byte	$00
	.byte	$03
	.byte	$40
	.byte	$FC
	.byte	$08
	.byte	$06
	.byte	$40
	.byte	$04
	.byte	$08
	.byte	$05
	.byte	$40
	.byte	$80
_sspl_01_a:
	.byte	$FC
	.byte	$F8
	.byte	$07
	.byte	$00
	.byte	$04
	.byte	$F8
	.byte	$08
	.byte	$00
	.byte	$FC
	.byte	$00
	.byte	$09
	.byte	$00
	.byte	$04
	.byte	$00
	.byte	$0A
	.byte	$00
	.byte	$FC
	.byte	$08
	.byte	$0B
	.byte	$00
	.byte	$04
	.byte	$08
	.byte	$0C
	.byte	$00
	.byte	$80
_sspl_01_b:
	.byte	$FC
	.byte	$F8
	.byte	$08
	.byte	$40
	.byte	$04
	.byte	$F8
	.byte	$07
	.byte	$40
	.byte	$FC
	.byte	$00
	.byte	$0A
	.byte	$40
	.byte	$04
	.byte	$00
	.byte	$09
	.byte	$40
	.byte	$FC
	.byte	$08
	.byte	$0C
	.byte	$40
	.byte	$04
	.byte	$08
	.byte	$0B
	.byte	$40
	.byte	$80
_sspl_02_a:
	.byte	$FC
	.byte	$F8
	.byte	$0D
	.byte	$00
	.byte	$04
	.byte	$F8
	.byte	$0E
	.byte	$00
	.byte	$FC
	.byte	$00
	.byte	$0F
	.byte	$00
	.byte	$04
	.byte	$00
	.byte	$10
	.byte	$00
	.byte	$FC
	.byte	$08
	.byte	$11
	.byte	$00
	.byte	$04
	.byte	$08
	.byte	$12
	.byte	$00
	.byte	$80
_sspl_02_b:
	.byte	$FC
	.byte	$F8
	.byte	$0E
	.byte	$40
	.byte	$04
	.byte	$F8
	.byte	$0D
	.byte	$40
	.byte	$FC
	.byte	$00
	.byte	$10
	.byte	$40
	.byte	$04
	.byte	$00
	.byte	$0F
	.byte	$40
	.byte	$FC
	.byte	$08
	.byte	$12
	.byte	$40
	.byte	$04
	.byte	$08
	.byte	$11
	.byte	$40
	.byte	$80
_sspl_03_a:
	.byte	$FC
	.byte	$F8
	.byte	$13
	.byte	$00
	.byte	$04
	.byte	$F8
	.byte	$14
	.byte	$00
	.byte	$FC
	.byte	$00
	.byte	$15
	.byte	$00
	.byte	$04
	.byte	$00
	.byte	$16
	.byte	$00
	.byte	$FC
	.byte	$08
	.byte	$17
	.byte	$00
	.byte	$04
	.byte	$08
	.byte	$18
	.byte	$00
	.byte	$80
_sspl_03_b:
	.byte	$FC
	.byte	$F8
	.byte	$14
	.byte	$40
	.byte	$04
	.byte	$F8
	.byte	$13
	.byte	$40
	.byte	$FC
	.byte	$00
	.byte	$16
	.byte	$40
	.byte	$04
	.byte	$00
	.byte	$15
	.byte	$40
	.byte	$FC
	.byte	$08
	.byte	$18
	.byte	$40
	.byte	$04
	.byte	$08
	.byte	$17
	.byte	$40
	.byte	$80
_sspl_04_a:
	.byte	$FC
	.byte	$F8
	.byte	$19
	.byte	$00
	.byte	$04
	.byte	$F8
	.byte	$1A
	.byte	$00
	.byte	$FC
	.byte	$00
	.byte	$1B
	.byte	$00
	.byte	$04
	.byte	$00
	.byte	$1C
	.byte	$00
	.byte	$FC
	.byte	$08
	.byte	$1D
	.byte	$00
	.byte	$04
	.byte	$08
	.byte	$1E
	.byte	$00
	.byte	$80
_sspl_04_b:
	.byte	$FC
	.byte	$F8
	.byte	$1A
	.byte	$40
	.byte	$04
	.byte	$F8
	.byte	$19
	.byte	$40
	.byte	$FC
	.byte	$00
	.byte	$1C
	.byte	$40
	.byte	$04
	.byte	$00
	.byte	$1B
	.byte	$40
	.byte	$FC
	.byte	$08
	.byte	$1E
	.byte	$40
	.byte	$04
	.byte	$08
	.byte	$1D
	.byte	$40
	.byte	$80
_sspl_05_a:
	.byte	$FC
	.byte	$F8
	.byte	$1F
	.byte	$00
	.byte	$04
	.byte	$F8
	.byte	$20
	.byte	$00
	.byte	$FC
	.byte	$00
	.byte	$21
	.byte	$00
	.byte	$04
	.byte	$00
	.byte	$22
	.byte	$00
	.byte	$FC
	.byte	$08
	.byte	$23
	.byte	$00
	.byte	$04
	.byte	$08
	.byte	$24
	.byte	$00
	.byte	$80
_sspl_05_b:
	.byte	$FC
	.byte	$F8
	.byte	$20
	.byte	$40
	.byte	$04
	.byte	$F8
	.byte	$1F
	.byte	$40
	.byte	$FC
	.byte	$00
	.byte	$22
	.byte	$40
	.byte	$04
	.byte	$00
	.byte	$21
	.byte	$40
	.byte	$FC
	.byte	$08
	.byte	$24
	.byte	$40
	.byte	$04
	.byte	$08
	.byte	$23
	.byte	$40
	.byte	$80
_sspl_06_a:
	.byte	$FC
	.byte	$F8
	.byte	$25
	.byte	$00
	.byte	$04
	.byte	$F8
	.byte	$26
	.byte	$00
	.byte	$FC
	.byte	$00
	.byte	$27
	.byte	$00
	.byte	$04
	.byte	$00
	.byte	$28
	.byte	$00
	.byte	$FC
	.byte	$08
	.byte	$29
	.byte	$00
	.byte	$04
	.byte	$08
	.byte	$2A
	.byte	$00
	.byte	$80
_sspl_06_b:
	.byte	$FC
	.byte	$F8
	.byte	$26
	.byte	$40
	.byte	$04
	.byte	$F8
	.byte	$25
	.byte	$40
	.byte	$FC
	.byte	$00
	.byte	$28
	.byte	$40
	.byte	$04
	.byte	$00
	.byte	$27
	.byte	$40
	.byte	$FC
	.byte	$08
	.byte	$2A
	.byte	$40
	.byte	$04
	.byte	$08
	.byte	$29
	.byte	$40
	.byte	$80
_sspl_07_a:
	.byte	$FC
	.byte	$F8
	.byte	$2B
	.byte	$00
	.byte	$04
	.byte	$F8
	.byte	$2C
	.byte	$00
	.byte	$FC
	.byte	$00
	.byte	$2D
	.byte	$00
	.byte	$04
	.byte	$00
	.byte	$2E
	.byte	$00
	.byte	$FC
	.byte	$08
	.byte	$2F
	.byte	$00
	.byte	$04
	.byte	$08
	.byte	$30
	.byte	$00
	.byte	$80
_sspl_07_b:
	.byte	$FC
	.byte	$F8
	.byte	$2C
	.byte	$40
	.byte	$04
	.byte	$F8
	.byte	$2B
	.byte	$40
	.byte	$FC
	.byte	$00
	.byte	$2E
	.byte	$40
	.byte	$04
	.byte	$00
	.byte	$2D
	.byte	$40
	.byte	$FC
	.byte	$08
	.byte	$30
	.byte	$40
	.byte	$04
	.byte	$08
	.byte	$2F
	.byte	$40
	.byte	$80
_sspl_08_a:
	.byte	$FC
	.byte	$F8
	.byte	$31
	.byte	$00
	.byte	$04
	.byte	$F8
	.byte	$32
	.byte	$00
	.byte	$FC
	.byte	$00
	.byte	$33
	.byte	$00
	.byte	$04
	.byte	$00
	.byte	$34
	.byte	$00
	.byte	$FC
	.byte	$08
	.byte	$35
	.byte	$00
	.byte	$04
	.byte	$08
	.byte	$36
	.byte	$00
	.byte	$80
_sspl_08_b:
	.byte	$FC
	.byte	$F8
	.byte	$32
	.byte	$40
	.byte	$04
	.byte	$F8
	.byte	$31
	.byte	$40
	.byte	$FC
	.byte	$00
	.byte	$34
	.byte	$40
	.byte	$04
	.byte	$00
	.byte	$33
	.byte	$40
	.byte	$FC
	.byte	$08
	.byte	$36
	.byte	$40
	.byte	$04
	.byte	$08
	.byte	$35
	.byte	$40
	.byte	$80
_sspl_09_a:
	.byte	$FC
	.byte	$F8
	.byte	$37
	.byte	$00
	.byte	$04
	.byte	$F8
	.byte	$38
	.byte	$00
	.byte	$FC
	.byte	$00
	.byte	$39
	.byte	$00
	.byte	$04
	.byte	$00
	.byte	$3A
	.byte	$00
	.byte	$FC
	.byte	$08
	.byte	$3B
	.byte	$00
	.byte	$04
	.byte	$08
	.byte	$3C
	.byte	$00
	.byte	$80
_sspl_09_b:
	.byte	$FC
	.byte	$F8
	.byte	$38
	.byte	$40
	.byte	$04
	.byte	$F8
	.byte	$37
	.byte	$40
	.byte	$FC
	.byte	$00
	.byte	$3A
	.byte	$40
	.byte	$04
	.byte	$00
	.byte	$39
	.byte	$40
	.byte	$FC
	.byte	$08
	.byte	$3C
	.byte	$40
	.byte	$04
	.byte	$08
	.byte	$3B
	.byte	$40
	.byte	$80
_sspl_0A_a:
	.byte	$FC
	.byte	$F8
	.byte	$3D
	.byte	$00
	.byte	$04
	.byte	$F8
	.byte	$3E
	.byte	$00
	.byte	$FC
	.byte	$00
	.byte	$3F
	.byte	$00
	.byte	$04
	.byte	$00
	.byte	$40
	.byte	$00
	.byte	$FC
	.byte	$08
	.byte	$41
	.byte	$00
	.byte	$04
	.byte	$08
	.byte	$42
	.byte	$00
	.byte	$80
_sspl_0A_b:
	.byte	$FC
	.byte	$F8
	.byte	$3E
	.byte	$40
	.byte	$04
	.byte	$F8
	.byte	$3D
	.byte	$40
	.byte	$FC
	.byte	$00
	.byte	$40
	.byte	$40
	.byte	$04
	.byte	$00
	.byte	$3F
	.byte	$40
	.byte	$FC
	.byte	$08
	.byte	$42
	.byte	$40
	.byte	$04
	.byte	$08
	.byte	$41
	.byte	$40
	.byte	$80
_sspl_0B_a:
	.byte	$FC
	.byte	$F8
	.byte	$43
	.byte	$00
	.byte	$04
	.byte	$F8
	.byte	$44
	.byte	$00
	.byte	$FC
	.byte	$00
	.byte	$45
	.byte	$00
	.byte	$04
	.byte	$00
	.byte	$46
	.byte	$00
	.byte	$FC
	.byte	$08
	.byte	$47
	.byte	$00
	.byte	$04
	.byte	$08
	.byte	$48
	.byte	$00
	.byte	$80
_sspl_0B_b:
	.byte	$FC
	.byte	$F8
	.byte	$44
	.byte	$40
	.byte	$04
	.byte	$F8
	.byte	$43
	.byte	$40
	.byte	$FC
	.byte	$00
	.byte	$46
	.byte	$40
	.byte	$04
	.byte	$00
	.byte	$45
	.byte	$40
	.byte	$FC
	.byte	$08
	.byte	$48
	.byte	$40
	.byte	$04
	.byte	$08
	.byte	$47
	.byte	$40
	.byte	$80
_sspl_0C_a:
	.byte	$FC
	.byte	$F8
	.byte	$49
	.byte	$00
	.byte	$04
	.byte	$F8
	.byte	$4A
	.byte	$00
	.byte	$FC
	.byte	$00
	.byte	$4B
	.byte	$00
	.byte	$04
	.byte	$00
	.byte	$4C
	.byte	$00
	.byte	$FC
	.byte	$08
	.byte	$4D
	.byte	$00
	.byte	$04
	.byte	$08
	.byte	$4E
	.byte	$00
	.byte	$80
_sspl_0C_b:
	.byte	$FC
	.byte	$F8
	.byte	$4A
	.byte	$40
	.byte	$04
	.byte	$F8
	.byte	$49
	.byte	$40
	.byte	$FC
	.byte	$00
	.byte	$4C
	.byte	$40
	.byte	$04
	.byte	$00
	.byte	$4B
	.byte	$40
	.byte	$FC
	.byte	$08
	.byte	$4E
	.byte	$40
	.byte	$04
	.byte	$08
	.byte	$4D
	.byte	$40
	.byte	$80
_sspl_0D_a:
	.byte	$FC
	.byte	$F8
	.byte	$4F
	.byte	$00
	.byte	$04
	.byte	$F8
	.byte	$4F
	.byte	$00
	.byte	$FC
	.byte	$00
	.byte	$50
	.byte	$00
	.byte	$04
	.byte	$00
	.byte	$51
	.byte	$00
	.byte	$FC
	.byte	$08
	.byte	$52
	.byte	$00
	.byte	$04
	.byte	$08
	.byte	$53
	.byte	$00
	.byte	$80
_sspl_0D_b:
	.byte	$FC
	.byte	$F8
	.byte	$4F
	.byte	$40
	.byte	$04
	.byte	$F8
	.byte	$4F
	.byte	$40
	.byte	$FC
	.byte	$00
	.byte	$51
	.byte	$40
	.byte	$04
	.byte	$00
	.byte	$50
	.byte	$40
	.byte	$FC
	.byte	$08
	.byte	$53
	.byte	$40
	.byte	$04
	.byte	$08
	.byte	$52
	.byte	$40
	.byte	$80
_sspl_0E_a:
	.byte	$FC
	.byte	$F8
	.byte	$54
	.byte	$00
	.byte	$04
	.byte	$F8
	.byte	$55
	.byte	$00
	.byte	$FC
	.byte	$00
	.byte	$56
	.byte	$00
	.byte	$04
	.byte	$00
	.byte	$57
	.byte	$00
	.byte	$FC
	.byte	$08
	.byte	$58
	.byte	$00
	.byte	$04
	.byte	$08
	.byte	$59
	.byte	$00
	.byte	$80
_sspl_0E_b:
	.byte	$FC
	.byte	$F8
	.byte	$55
	.byte	$40
	.byte	$04
	.byte	$F8
	.byte	$54
	.byte	$40
	.byte	$FC
	.byte	$00
	.byte	$57
	.byte	$40
	.byte	$04
	.byte	$00
	.byte	$56
	.byte	$40
	.byte	$FC
	.byte	$08
	.byte	$59
	.byte	$40
	.byte	$04
	.byte	$08
	.byte	$58
	.byte	$40
	.byte	$80
_sspl_0F_a:
	.byte	$FC
	.byte	$F8
	.byte	$5A
	.byte	$00
	.byte	$04
	.byte	$F8
	.byte	$32
	.byte	$00
	.byte	$FC
	.byte	$00
	.byte	$5B
	.byte	$00
	.byte	$04
	.byte	$00
	.byte	$5C
	.byte	$00
	.byte	$FC
	.byte	$08
	.byte	$5D
	.byte	$00
	.byte	$04
	.byte	$08
	.byte	$5E
	.byte	$00
	.byte	$80
_sspl_0F_b:
	.byte	$FC
	.byte	$F8
	.byte	$32
	.byte	$40
	.byte	$04
	.byte	$F8
	.byte	$5A
	.byte	$40
	.byte	$FC
	.byte	$00
	.byte	$5C
	.byte	$40
	.byte	$04
	.byte	$00
	.byte	$5B
	.byte	$40
	.byte	$FC
	.byte	$08
	.byte	$5E
	.byte	$40
	.byte	$04
	.byte	$08
	.byte	$5D
	.byte	$40
	.byte	$80
_sspld_00:
	.byte	$FC
	.byte	$F8
	.byte	$5F
	.byte	$00
	.byte	$04
	.byte	$F8
	.byte	$60
	.byte	$00
	.byte	$FC
	.byte	$00
	.byte	$61
	.byte	$00
	.byte	$04
	.byte	$00
	.byte	$62
	.byte	$00
	.byte	$FC
	.byte	$08
	.byte	$63
	.byte	$00
	.byte	$04
	.byte	$08
	.byte	$64
	.byte	$00
	.byte	$80
_sspld_01:
	.byte	$FC
	.byte	$F8
	.byte	$65
	.byte	$00
	.byte	$04
	.byte	$F8
	.byte	$66
	.byte	$00
	.byte	$FC
	.byte	$00
	.byte	$67
	.byte	$00
	.byte	$04
	.byte	$00
	.byte	$68
	.byte	$00
	.byte	$FC
	.byte	$08
	.byte	$69
	.byte	$00
	.byte	$04
	.byte	$08
	.byte	$6A
	.byte	$00
	.byte	$80
_sspld_02:
	.byte	$FC
	.byte	$F8
	.byte	$6B
	.byte	$00
	.byte	$04
	.byte	$F8
	.byte	$6C
	.byte	$00
	.byte	$FC
	.byte	$00
	.byte	$6D
	.byte	$00
	.byte	$04
	.byte	$00
	.byte	$6E
	.byte	$00
	.byte	$FC
	.byte	$08
	.byte	$6F
	.byte	$00
	.byte	$04
	.byte	$08
	.byte	$70
	.byte	$00
	.byte	$80
_sspld_03:
	.byte	$FC
	.byte	$F8
	.byte	$71
	.byte	$00
	.byte	$04
	.byte	$F8
	.byte	$72
	.byte	$00
	.byte	$FC
	.byte	$00
	.byte	$73
	.byte	$00
	.byte	$04
	.byte	$00
	.byte	$74
	.byte	$00
	.byte	$FC
	.byte	$08
	.byte	$75
	.byte	$00
	.byte	$04
	.byte	$08
	.byte	$76
	.byte	$00
	.byte	$80
_sspld_04:
	.byte	$FC
	.byte	$F8
	.byte	$6C
	.byte	$40
	.byte	$04
	.byte	$F8
	.byte	$77
	.byte	$00
	.byte	$FC
	.byte	$00
	.byte	$78
	.byte	$00
	.byte	$04
	.byte	$00
	.byte	$79
	.byte	$00
	.byte	$FC
	.byte	$08
	.byte	$7A
	.byte	$00
	.byte	$04
	.byte	$08
	.byte	$7B
	.byte	$00
	.byte	$80
_sspld_05:
	.byte	$FC
	.byte	$F8
	.byte	$7C
	.byte	$03
	.byte	$04
	.byte	$F8
	.byte	$7D
	.byte	$03
	.byte	$FC
	.byte	$00
	.byte	$7E
	.byte	$03
	.byte	$04
	.byte	$00
	.byte	$7F
	.byte	$03
	.byte	$FC
	.byte	$08
	.byte	$80
	.byte	$03
	.byte	$04
	.byte	$08
	.byte	$81
	.byte	$03
	.byte	$80
_sspld_06:
	.byte	$FC
	.byte	$F8
	.byte	$82
	.byte	$03
	.byte	$04
	.byte	$F8
	.byte	$82
	.byte	$43
	.byte	$FC
	.byte	$00
	.byte	$83
	.byte	$03
	.byte	$04
	.byte	$00
	.byte	$83
	.byte	$43
	.byte	$FC
	.byte	$08
	.byte	$82
	.byte	$83
	.byte	$04
	.byte	$08
	.byte	$82
	.byte	$C3
	.byte	$80
_sspld_07:
	.byte	$FC
	.byte	$F8
	.byte	$4F
	.byte	$00
	.byte	$04
	.byte	$F8
	.byte	$4F
	.byte	$00
	.byte	$FC
	.byte	$00
	.byte	$84
	.byte	$03
	.byte	$04
	.byte	$00
	.byte	$84
	.byte	$43
	.byte	$FC
	.byte	$08
	.byte	$4F
	.byte	$00
	.byte	$04
	.byte	$08
	.byte	$4F
	.byte	$00
	.byte	$80
_ssena_00_a:
	.byte	$00
	.byte	$F8
	.byte	$85
	.byte	$01
	.byte	$08
	.byte	$F8
	.byte	$86
	.byte	$01
	.byte	$00
	.byte	$00
	.byte	$87
	.byte	$01
	.byte	$08
	.byte	$00
	.byte	$88
	.byte	$01
	.byte	$00
	.byte	$08
	.byte	$89
	.byte	$01
	.byte	$08
	.byte	$08
	.byte	$8A
	.byte	$01
	.byte	$80
_ssena_00_b:
	.byte	$00
	.byte	$F8
	.byte	$86
	.byte	$41
	.byte	$08
	.byte	$F8
	.byte	$85
	.byte	$41
	.byte	$00
	.byte	$00
	.byte	$88
	.byte	$41
	.byte	$08
	.byte	$00
	.byte	$87
	.byte	$41
	.byte	$00
	.byte	$08
	.byte	$8A
	.byte	$41
	.byte	$08
	.byte	$08
	.byte	$89
	.byte	$41
	.byte	$80
_ssena_01_a:
	.byte	$00
	.byte	$F8
	.byte	$8B
	.byte	$01
	.byte	$08
	.byte	$F8
	.byte	$8C
	.byte	$01
	.byte	$00
	.byte	$00
	.byte	$8D
	.byte	$01
	.byte	$08
	.byte	$00
	.byte	$8E
	.byte	$01
	.byte	$00
	.byte	$08
	.byte	$8F
	.byte	$01
	.byte	$08
	.byte	$08
	.byte	$90
	.byte	$01
	.byte	$80
_ssena_01_b:
	.byte	$00
	.byte	$F8
	.byte	$8C
	.byte	$41
	.byte	$08
	.byte	$F8
	.byte	$8B
	.byte	$41
	.byte	$00
	.byte	$00
	.byte	$8E
	.byte	$41
	.byte	$08
	.byte	$00
	.byte	$8D
	.byte	$41
	.byte	$00
	.byte	$08
	.byte	$90
	.byte	$41
	.byte	$08
	.byte	$08
	.byte	$8F
	.byte	$41
	.byte	$80
_ssena_02_a:
	.byte	$00
	.byte	$F8
	.byte	$85
	.byte	$01
	.byte	$08
	.byte	$F8
	.byte	$86
	.byte	$01
	.byte	$00
	.byte	$00
	.byte	$87
	.byte	$01
	.byte	$08
	.byte	$00
	.byte	$91
	.byte	$01
	.byte	$00
	.byte	$08
	.byte	$92
	.byte	$01
	.byte	$08
	.byte	$08
	.byte	$93
	.byte	$01
	.byte	$80
_ssena_02_b:
	.byte	$00
	.byte	$F8
	.byte	$86
	.byte	$41
	.byte	$08
	.byte	$F8
	.byte	$85
	.byte	$41
	.byte	$00
	.byte	$00
	.byte	$91
	.byte	$41
	.byte	$08
	.byte	$00
	.byte	$87
	.byte	$41
	.byte	$00
	.byte	$08
	.byte	$93
	.byte	$41
	.byte	$08
	.byte	$08
	.byte	$92
	.byte	$41
	.byte	$80
_ssena_03_a:
	.byte	$00
	.byte	$F8
	.byte	$8B
	.byte	$01
	.byte	$08
	.byte	$F8
	.byte	$8C
	.byte	$01
	.byte	$00
	.byte	$00
	.byte	$8D
	.byte	$01
	.byte	$08
	.byte	$00
	.byte	$8E
	.byte	$01
	.byte	$00
	.byte	$08
	.byte	$94
	.byte	$01
	.byte	$08
	.byte	$08
	.byte	$95
	.byte	$01
	.byte	$80
_ssena_03_b:
	.byte	$00
	.byte	$F8
	.byte	$8C
	.byte	$41
	.byte	$08
	.byte	$F8
	.byte	$8B
	.byte	$41
	.byte	$00
	.byte	$00
	.byte	$8E
	.byte	$41
	.byte	$08
	.byte	$00
	.byte	$8D
	.byte	$41
	.byte	$00
	.byte	$08
	.byte	$95
	.byte	$41
	.byte	$08
	.byte	$08
	.byte	$94
	.byte	$41
	.byte	$80
_ssena_04_a:
	.byte	$00
	.byte	$F8
	.byte	$96
	.byte	$01
	.byte	$08
	.byte	$F8
	.byte	$97
	.byte	$01
	.byte	$00
	.byte	$00
	.byte	$98
	.byte	$02
	.byte	$08
	.byte	$00
	.byte	$99
	.byte	$02
	.byte	$00
	.byte	$08
	.byte	$9A
	.byte	$02
	.byte	$08
	.byte	$08
	.byte	$9B
	.byte	$02
	.byte	$80
_ssena_04_b:
	.byte	$00
	.byte	$F8
	.byte	$97
	.byte	$41
	.byte	$08
	.byte	$F8
	.byte	$96
	.byte	$41
	.byte	$00
	.byte	$00
	.byte	$99
	.byte	$42
	.byte	$08
	.byte	$00
	.byte	$98
	.byte	$42
	.byte	$00
	.byte	$08
	.byte	$9B
	.byte	$42
	.byte	$08
	.byte	$08
	.byte	$9A
	.byte	$42
	.byte	$80
_ssena_05_a:
	.byte	$00
	.byte	$F8
	.byte	$9C
	.byte	$01
	.byte	$08
	.byte	$F8
	.byte	$9D
	.byte	$02
	.byte	$00
	.byte	$00
	.byte	$9E
	.byte	$02
	.byte	$08
	.byte	$00
	.byte	$9F
	.byte	$02
	.byte	$00
	.byte	$08
	.byte	$A0
	.byte	$02
	.byte	$08
	.byte	$08
	.byte	$A1
	.byte	$02
	.byte	$80
_ssena_05_b:
	.byte	$00
	.byte	$F8
	.byte	$9D
	.byte	$42
	.byte	$08
	.byte	$F8
	.byte	$9C
	.byte	$41
	.byte	$00
	.byte	$00
	.byte	$9F
	.byte	$42
	.byte	$08
	.byte	$00
	.byte	$9E
	.byte	$42
	.byte	$00
	.byte	$08
	.byte	$A1
	.byte	$42
	.byte	$08
	.byte	$08
	.byte	$A0
	.byte	$42
	.byte	$80
_ssena_06_a:
	.byte	$00
	.byte	$F8
	.byte	$A2
	.byte	$01
	.byte	$08
	.byte	$F8
	.byte	$A3
	.byte	$02
	.byte	$00
	.byte	$00
	.byte	$A4
	.byte	$02
	.byte	$08
	.byte	$00
	.byte	$A5
	.byte	$02
	.byte	$00
	.byte	$08
	.byte	$A6
	.byte	$02
	.byte	$08
	.byte	$08
	.byte	$A7
	.byte	$02
	.byte	$80
_ssena_06_b:
	.byte	$00
	.byte	$F8
	.byte	$A3
	.byte	$42
	.byte	$08
	.byte	$F8
	.byte	$A2
	.byte	$41
	.byte	$00
	.byte	$00
	.byte	$A5
	.byte	$42
	.byte	$08
	.byte	$00
	.byte	$A4
	.byte	$42
	.byte	$00
	.byte	$08
	.byte	$A7
	.byte	$42
	.byte	$08
	.byte	$08
	.byte	$A6
	.byte	$42
	.byte	$80
_ssenx_a:
	.byte	$00
	.byte	$F6
	.byte	$A2
	.byte	$01
	.byte	$08
	.byte	$F6
	.byte	$A3
	.byte	$02
	.byte	$00
	.byte	$FE
	.byte	$A4
	.byte	$02
	.byte	$08
	.byte	$FE
	.byte	$A5
	.byte	$02
	.byte	$00
	.byte	$06
	.byte	$A6
	.byte	$02
	.byte	$08
	.byte	$06
	.byte	$A7
	.byte	$02
	.byte	$80
_ssenx_b:
	.byte	$00
	.byte	$F6
	.byte	$A3
	.byte	$42
	.byte	$08
	.byte	$F6
	.byte	$A2
	.byte	$41
	.byte	$00
	.byte	$FE
	.byte	$A5
	.byte	$42
	.byte	$08
	.byte	$FE
	.byte	$A4
	.byte	$42
	.byte	$00
	.byte	$06
	.byte	$A7
	.byte	$42
	.byte	$08
	.byte	$06
	.byte	$A6
	.byte	$42
	.byte	$80
_ssenb_00:
	.byte	$FC
	.byte	$00
	.byte	$A8
	.byte	$03
	.byte	$04
	.byte	$00
	.byte	$A9
	.byte	$03
	.byte	$0C
	.byte	$00
	.byte	$A8
	.byte	$43
	.byte	$FC
	.byte	$08
	.byte	$AA
	.byte	$03
	.byte	$04
	.byte	$08
	.byte	$AB
	.byte	$03
	.byte	$0C
	.byte	$08
	.byte	$AA
	.byte	$43
	.byte	$80
_ssenb_01:
	.byte	$FC
	.byte	$00
	.byte	$AC
	.byte	$03
	.byte	$04
	.byte	$00
	.byte	$AD
	.byte	$03
	.byte	$0C
	.byte	$00
	.byte	$AC
	.byte	$43
	.byte	$FC
	.byte	$08
	.byte	$AE
	.byte	$03
	.byte	$04
	.byte	$08
	.byte	$AF
	.byte	$03
	.byte	$0C
	.byte	$08
	.byte	$AE
	.byte	$43
	.byte	$80
_ssenb_02:
	.byte	$FC
	.byte	$00
	.byte	$B0
	.byte	$03
	.byte	$04
	.byte	$00
	.byte	$B1
	.byte	$03
	.byte	$0C
	.byte	$00
	.byte	$B0
	.byte	$43
	.byte	$FC
	.byte	$08
	.byte	$B2
	.byte	$03
	.byte	$04
	.byte	$08
	.byte	$B3
	.byte	$03
	.byte	$0C
	.byte	$08
	.byte	$B2
	.byte	$43
	.byte	$80
_ssenb_03:
	.byte	$FC
	.byte	$00
	.byte	$A8
	.byte	$01
	.byte	$04
	.byte	$00
	.byte	$B4
	.byte	$01
	.byte	$0C
	.byte	$00
	.byte	$A8
	.byte	$41
	.byte	$FC
	.byte	$08
	.byte	$AA
	.byte	$01
	.byte	$04
	.byte	$08
	.byte	$B5
	.byte	$01
	.byte	$0C
	.byte	$08
	.byte	$AA
	.byte	$41
	.byte	$80
_ssenb_04:
	.byte	$FC
	.byte	$00
	.byte	$AC
	.byte	$01
	.byte	$04
	.byte	$00
	.byte	$B6
	.byte	$01
	.byte	$0C
	.byte	$00
	.byte	$AC
	.byte	$41
	.byte	$FC
	.byte	$08
	.byte	$AE
	.byte	$01
	.byte	$04
	.byte	$08
	.byte	$B7
	.byte	$01
	.byte	$0C
	.byte	$08
	.byte	$AE
	.byte	$41
	.byte	$80
_ssenb_05:
	.byte	$FC
	.byte	$00
	.byte	$B0
	.byte	$01
	.byte	$04
	.byte	$00
	.byte	$B8
	.byte	$01
	.byte	$0C
	.byte	$00
	.byte	$B0
	.byte	$41
	.byte	$FC
	.byte	$08
	.byte	$B2
	.byte	$01
	.byte	$04
	.byte	$08
	.byte	$B9
	.byte	$01
	.byte	$0C
	.byte	$08
	.byte	$B2
	.byte	$41
	.byte	$80
_ssenc_00:
	.byte	$00
	.byte	$00
	.byte	$BA
	.byte	$03
	.byte	$08
	.byte	$00
	.byte	$BA
	.byte	$43
	.byte	$00
	.byte	$08
	.byte	$BB
	.byte	$03
	.byte	$08
	.byte	$08
	.byte	$BB
	.byte	$43
	.byte	$80
_ssenc_01:
	.byte	$00
	.byte	$00
	.byte	$BA
	.byte	$03
	.byte	$08
	.byte	$00
	.byte	$BA
	.byte	$43
	.byte	$00
	.byte	$08
	.byte	$BC
	.byte	$03
	.byte	$08
	.byte	$08
	.byte	$BC
	.byte	$43
	.byte	$80
_ssenc_02:
	.byte	$00
	.byte	$00
	.byte	$BD
	.byte	$03
	.byte	$08
	.byte	$00
	.byte	$BE
	.byte	$03
	.byte	$00
	.byte	$08
	.byte	$BF
	.byte	$03
	.byte	$08
	.byte	$08
	.byte	$C0
	.byte	$03
	.byte	$80
_ssenc_03:
	.byte	$00
	.byte	$00
	.byte	$C1
	.byte	$03
	.byte	$08
	.byte	$00
	.byte	$C2
	.byte	$03
	.byte	$00
	.byte	$08
	.byte	$BF
	.byte	$03
	.byte	$08
	.byte	$08
	.byte	$C0
	.byte	$03
	.byte	$80
_ssenc_04:
	.byte	$00
	.byte	$00
	.byte	$C3
	.byte	$21
	.byte	$08
	.byte	$00
	.byte	$C4
	.byte	$21
	.byte	$00
	.byte	$08
	.byte	$C5
	.byte	$21
	.byte	$08
	.byte	$08
	.byte	$C5
	.byte	$61
	.byte	$80
_ssenc_05:
	.byte	$00
	.byte	$00
	.byte	$C6
	.byte	$03
	.byte	$08
	.byte	$00
	.byte	$C7
	.byte	$03
	.byte	$00
	.byte	$08
	.byte	$C8
	.byte	$03
	.byte	$08
	.byte	$08
	.byte	$C9
	.byte	$03
	.byte	$80
_ssit_00:
	.byte	$00
	.byte	$00
	.byte	$CA
	.byte	$03
	.byte	$08
	.byte	$00
	.byte	$CB
	.byte	$03
	.byte	$00
	.byte	$08
	.byte	$CC
	.byte	$03
	.byte	$08
	.byte	$08
	.byte	$CD
	.byte	$03
	.byte	$80
_ssit_01:
	.byte	$00
	.byte	$00
	.byte	$CE
	.byte	$01
	.byte	$08
	.byte	$00
	.byte	$CF
	.byte	$01
	.byte	$00
	.byte	$08
	.byte	$D0
	.byte	$01
	.byte	$08
	.byte	$08
	.byte	$D1
	.byte	$01
	.byte	$80
_ssit_02:
	.byte	$00
	.byte	$00
	.byte	$D2
	.byte	$03
	.byte	$08
	.byte	$00
	.byte	$D2
	.byte	$43
	.byte	$00
	.byte	$08
	.byte	$D2
	.byte	$83
	.byte	$08
	.byte	$08
	.byte	$D2
	.byte	$C3
	.byte	$80
_ssit_03:
	.byte	$00
	.byte	$00
	.byte	$D3
	.byte	$03
	.byte	$08
	.byte	$00
	.byte	$D4
	.byte	$03
	.byte	$00
	.byte	$08
	.byte	$D5
	.byte	$03
	.byte	$08
	.byte	$08
	.byte	$D6
	.byte	$03
	.byte	$80
_ssit_04:
	.byte	$00
	.byte	$00
	.byte	$D7
	.byte	$03
	.byte	$08
	.byte	$00
	.byte	$D8
	.byte	$03
	.byte	$00
	.byte	$08
	.byte	$D9
	.byte	$03
	.byte	$08
	.byte	$08
	.byte	$DA
	.byte	$03
	.byte	$80
_ssit_05:
	.byte	$00
	.byte	$00
	.byte	$DB
	.byte	$01
	.byte	$08
	.byte	$00
	.byte	$DC
	.byte	$01
	.byte	$00
	.byte	$08
	.byte	$DD
	.byte	$01
	.byte	$08
	.byte	$08
	.byte	$DE
	.byte	$01
	.byte	$80
_ssit_06:
	.byte	$00
	.byte	$00
	.byte	$DF
	.byte	$01
	.byte	$08
	.byte	$00
	.byte	$E0
	.byte	$01
	.byte	$00
	.byte	$08
	.byte	$E1
	.byte	$01
	.byte	$08
	.byte	$08
	.byte	$E2
	.byte	$01
	.byte	$80
_ssit_07:
	.byte	$00
	.byte	$00
	.byte	$E3
	.byte	$01
	.byte	$08
	.byte	$00
	.byte	$E3
	.byte	$41
	.byte	$00
	.byte	$08
	.byte	$E3
	.byte	$81
	.byte	$08
	.byte	$08
	.byte	$E3
	.byte	$C1
	.byte	$80
_spr_pl:
	.addr	_sspl_00_a
	.addr	_sspl_01_a
	.addr	_sspl_02_a
	.addr	_sspl_03_a
	.addr	_sspl_04_a
	.addr	_sspl_05_a
	.addr	_sspl_06_a
	.addr	_sspl_07_a
	.addr	_sspl_06_a
	.addr	_sspl_08_a
	.addr	_sspl_09_a
	.addr	_sspl_0A_a
	.addr	_sspl_0B_a
	.addr	_sspl_0C_a
	.addr	_sspl_0D_a
	.addr	_sspl_0D_a
	.addr	_sspl_0C_a
	.addr	_sspl_0B_a
	.addr	_sspl_0A_a
	.addr	_sspl_09_a
	.addr	_sspl_08_a
	.addr	_sspl_0E_a
	.addr	_sspl_0E_a
	.addr	_sspl_0E_a
	.addr	_sspl_0E_a
	.addr	_sspl_0E_a
	.addr	_sspl_0F_a
	.addr	_sspl_00_b
	.addr	_sspl_01_b
	.addr	_sspl_02_b
	.addr	_sspl_03_b
	.addr	_sspl_04_b
	.addr	_sspl_05_b
	.addr	_sspl_06_b
	.addr	_sspl_07_b
	.addr	_sspl_06_b
	.addr	_sspl_08_b
	.addr	_sspl_09_b
	.addr	_sspl_0A_b
	.addr	_sspl_0B_b
	.addr	_sspl_0C_b
	.addr	_sspl_0D_b
	.addr	_sspl_0D_b
	.addr	_sspl_0C_b
	.addr	_sspl_0B_b
	.addr	_sspl_0A_b
	.addr	_sspl_09_b
	.addr	_sspl_08_b
	.addr	_sspl_0E_b
	.addr	_sspl_0E_b
	.addr	_sspl_0E_b
	.addr	_sspl_0E_b
	.addr	_sspl_0E_b
	.addr	_sspl_0F_b
	.addr	_sspld_00
	.addr	_sspld_01
	.addr	_sspld_02
	.addr	_sspld_03
	.addr	_sspld_04
	.addr	_sspld_05
	.addr	_sspld_06
	.addr	_sspld_07
_spr_en:
	.addr	_ssena_00_a
	.addr	_ssena_01_a
	.addr	_ssena_02_a
	.addr	_ssena_03_a
	.addr	_ssena_03_b
	.addr	_ssena_02_b
	.addr	_ssena_01_b
	.addr	_ssena_00_b
	.addr	_ssena_04_a
	.addr	_ssena_05_a
	.addr	_ssenx_a
	.addr	_ssena_06_a
	.addr	_ssena_06_b
	.addr	_ssenx_b
	.addr	_ssena_05_b
	.addr	_ssena_04_b
	.addr	_ssenb_00
	.addr	_ssenb_01
	.addr	_ssenb_02
	.addr	_ssenb_01
	.addr	_ssenb_00
	.addr	_ssenb_01
	.addr	_ssenb_02
	.addr	_ssenb_01
	.addr	_ssenc_00
	.addr	_ssenc_01
	.addr	_ssenc_00
	.addr	_ssenc_01
	.addr	_ssenc_00
	.addr	_ssenc_01
	.addr	_ssenc_00
	.addr	_ssenc_01
	.addr	_ssenc_02
	.addr	_ssenc_03
	.addr	_ssenc_04
	.word	$0000
	.addr	_ssenb_03
	.addr	_ssenb_04
	.addr	_ssenb_05
	.addr	_ssenb_04
	.addr	_ssenc_05
_spr_it:
	.word	$0000
	.addr	_ssit_00
	.addr	_ssit_01
	.addr	_ssit_02
	.addr	_ssit_03
	.addr	_ssit_04
	.addr	_ssit_05
	.addr	_ssit_06
	.addr	_ssit_07
_spr_empty:
	.byte	$00
	.byte	$00
	.byte	$00
	.byte	$00
	.byte	$00
	.byte	$00
	.byte	$00
	.byte	$00
	.byte	$00
	.byte	$00
	.byte	$00
	.byte	$00
	.byte	$00
	.byte	$00
	.byte	$00
	.byte	$00
	.byte	$00
	.byte	$00
	.byte	$00
	.byte	$00
	.byte	$00
	.byte	$00
	.byte	$00
	.byte	$00
	.byte	$80
_mypal_game_bg0:
	.byte	$0F
	.byte	$0C
	.byte	$1C
	.byte	$32
	.byte	$0F
	.byte	$08
	.byte	$0C
	.byte	$18
	.byte	$0F
	.byte	$2D
	.byte	$27
	.byte	$10
	.byte	$0F
	.byte	$06
	.byte	$16
	.byte	$26
_mypal_game_bg1:
	.byte	$0F
	.byte	$07
	.byte	$16
	.byte	$26
	.byte	$0F
	.byte	$08
	.byte	$07
	.byte	$28
	.byte	$0F
	.byte	$12
	.byte	$38
	.byte	$33
	.byte	$0F
	.byte	$0B
	.byte	$09
	.byte	$2A
_mypal_game_bg2:
	.byte	$0F
	.byte	$04
	.byte	$1A
	.byte	$29
	.byte	$0F
	.byte	$06
	.byte	$04
	.byte	$16
	.byte	$0F
	.byte	$22
	.byte	$27
	.byte	$34
	.byte	$0F
	.byte	$06
	.byte	$16
	.byte	$26
_mypal_game_bg3:
	.byte	$0F
	.byte	$0C
	.byte	$04
	.byte	$24
	.byte	$0F
	.byte	$05
	.byte	$0C
	.byte	$15
	.byte	$0F
	.byte	$17
	.byte	$27
	.byte	$34
	.byte	$0F
	.byte	$02
	.byte	$11
	.byte	$21
_mypal_game_fg0:
	.byte	$0F
	.byte	$04
	.byte	$25
	.byte	$37
	.byte	$0F
	.byte	$08
	.byte	$29
	.byte	$34
	.byte	$0F
	.byte	$08
	.byte	$27
	.byte	$38
	.byte	$0F
	.byte	$07
	.byte	$2D
	.byte	$36
_mypal_game_fg1:
	.byte	$0C
	.byte	$0F
	.byte	$11
	.byte	$31
	.byte	$0C
	.byte	$2D
	.byte	$10
	.byte	$3D
	.byte	$0C
	.byte	$2D
	.byte	$10
	.byte	$3D
	.byte	$0C
	.byte	$2D
	.byte	$10
	.byte	$3D
_mypal_light_bg:
	.byte	$3D
	.byte	$3D
	.byte	$2D
	.byte	$0F
	.byte	$3D
	.byte	$2D
	.byte	$3D
	.byte	$0F
	.byte	$3D
	.byte	$3D
	.byte	$2D
	.byte	$0F
	.byte	$3D
	.byte	$3D
	.byte	$2D
	.byte	$0F
_mypal_light_fg:
	.byte	$3D
	.byte	$2D
	.byte	$0F
	.byte	$0F
	.byte	$3D
	.byte	$2D
	.byte	$0F
	.byte	$0F
	.byte	$3D
	.byte	$2D
	.byte	$0F
	.byte	$0F
	.byte	$3D
	.byte	$2D
	.byte	$0F
	.byte	$0F
_mypal_ending:
	.byte	$0F
	.byte	$0C
	.byte	$1C
	.byte	$32
	.byte	$0F
	.byte	$08
	.byte	$17
	.byte	$38
	.byte	$0F
	.byte	$2D
	.byte	$27
	.byte	$10
	.byte	$0F
	.byte	$06
	.byte	$16
	.byte	$26
_mypal_reds:
	.byte	$06
	.byte	$16
	.byte	$26
	.byte	$35
	.byte	$06
	.byte	$26
	.byte	$16
	.byte	$35
	.byte	$06
	.byte	$16
	.byte	$26
	.byte	$35
	.byte	$06
	.byte	$16
	.byte	$26
	.byte	$35
_sections_0:
	.word	$0000
	.word	$0100
	.word	$1000
	.word	$1400
_sections_1:
	.word	$0000
	.word	$0900
	.word	$0B00
	.word	$0D00
	.word	$1000
	.word	$1100
	.word	$1400
_sections_2:
	.word	$0000
	.word	$0400
	.word	$0900
	.word	$0C00
	.word	$1100
	.word	$1400
_sections_3:
	.word	$0000
	.word	$0100
	.word	$0900
	.word	$0B00
	.word	$1000
	.word	$1400
_sections:
	.addr	_sections_0
	.addr	_sections_1
	.addr	_sections_2
	.addr	_sections_3
_pezon_incs:
	.byte	$FA
	.byte	$FA
	.byte	$FB
	.byte	$FB
	.byte	$FB
	.byte	$FC
	.byte	$FC
	.byte	$FC
	.byte	$FC
	.byte	$FC
	.byte	$FD
	.byte	$FD
	.byte	$FD
	.byte	$FE
	.byte	$FE
	.byte	$FE
	.byte	$FE
	.byte	$FE
	.byte	$FF
	.byte	$FF
	.byte	$FF
	.byte	$00
	.byte	$00
	.byte	$00
	.byte	$00
	.byte	$00
	.byte	$01
	.byte	$01
	.byte	$01
	.byte	$02
	.byte	$02
	.byte	$02
	.byte	$02
	.byte	$02
	.byte	$03
	.byte	$03
	.byte	$03
	.byte	$04
	.byte	$04
	.byte	$04
	.byte	$04
	.byte	$04
	.byte	$04
	.byte	$04
	.byte	$04
	.byte	$04
	.byte	$04
	.byte	$04
_fanty_incs:
	.byte	$00
	.byte	$00
	.byte	$00
	.byte	$00
	.byte	$00
	.byte	$01
	.byte	$00
	.byte	$01
	.byte	$00
	.byte	$01
	.byte	$01
	.byte	$00
	.byte	$01
	.byte	$01
	.byte	$01
	.byte	$01
_fanty_retreat_incs:
	.byte	$01
	.byte	$00
	.byte	$00
	.byte	$00
_chac_chac_tiles_0:
	.byte	$30
	.byte	$32
	.byte	$35
	.byte	$32
	.byte	$30
	.byte	$36
_chac_chac_tiles_1:
	.byte	$36
	.byte	$36
	.byte	$34
	.byte	$36
	.byte	$36
	.byte	$36
_chac_chac_tiles_2:
	.byte	$31
	.byte	$33
	.byte	$35
	.byte	$33
	.byte	$31
	.byte	$36
_bg_object_times:
	.byte	$10
	.byte	$01
	.byte	$32
	.byte	$02
	.byte	$02
	.byte	$78
_column_tiles_0:
	.byte	$06
	.byte	$06
	.byte	$14
_column_tiles_1:
	.byte	$06
	.byte	$14
	.byte	$00
_column_tiles_2:
	.byte	$14
	.byte	$00
	.byte	$00
_main_gate_tiles_0:
	.byte	$02
	.byte	$02
	.byte	$02
_main_gate_tiles_1:
	.byte	$1D
	.byte	$00
	.byte	$00
_main_gate_tiles_2:
	.byte	$1E
	.byte	$1D
	.byte	$00
_nt_tile_offsets_y:
	.word	$0000
	.word	$0040
	.word	$0080
	.word	$00C0
	.word	$0100
	.word	$0140
	.word	$0180
	.word	$01C0
	.word	$0200
	.word	$0240
	.word	$0280
	.word	$02C0
_tt_anim:
	.byte	$FF
	.byte	$00
	.byte	$10
	.byte	$2F
	.byte	$3E
	.byte	$4D
	.byte	$1C
	.byte	$2B
	.byte	$3A
	.byte	$49
	.byte	$18
	.byte	$28
	.byte	$38
	.byte	$47
	.byte	$17
	.byte	$26
	.byte	$36
	.byte	$45
	.byte	$15
	.byte	$24
	.byte	$34
	.byte	$43
	.byte	$13
	.byte	$22
	.byte	$32
	.byte	$42
	.byte	$12
	.byte	$21
	.byte	$31
	.byte	$41
	.byte	$11
	.byte	$21
	.byte	$31
	.byte	$41
	.byte	$11
	.byte	$21
	.byte	$31
	.byte	$41
	.byte	$54
	.byte	$62
	.byte	$72
	.byte	$FF
_c_pal_bgs:
	.addr	_mypal_game_bg0
	.addr	_mypal_game_bg1
	.addr	_mypal_game_bg2
	.addr	_mypal_game_bg3
_str_cuts0_00:
	.byte	$34
	.byte	$2F
	.byte	$3F
	.byte	$22
	.byte	$25
	.byte	$23
	.byte	$2F
	.byte	$2D
	.byte	$25
	.byte	$3F
	.byte	$21
	.byte	$3F
	.byte	$27
	.byte	$2F
	.byte	$24
	.byte	$24
	.byte	$25
	.byte	$33
	.byte	$33
	.byte	$0C
	.byte	$01
	.byte	$23
	.byte	$28
	.byte	$25
	.byte	$32
	.byte	$29
	.byte	$2C
	.byte	$3F
	.byte	$2D
	.byte	$35
	.byte	$33
	.byte	$34
	.byte	$3F
	.byte	$27
	.byte	$21
	.byte	$29
	.byte	$2E
	.byte	$3F
	.byte	$21
	.byte	$23
	.byte	$23
	.byte	$25
	.byte	$33
	.byte	$33
	.byte	$01
	.byte	$34
	.byte	$2F
	.byte	$3F
	.byte	$34
	.byte	$28
	.byte	$25
	.byte	$3F
	.byte	$33
	.byte	$21
	.byte	$23
	.byte	$32
	.byte	$25
	.byte	$24
	.byte	$3F
	.byte	$33
	.byte	$2B
	.byte	$35
	.byte	$2C
	.byte	$2C
	.byte	$01
	.byte	$2F
	.byte	$26
	.byte	$3F
	.byte	$30
	.byte	$2F
	.byte	$24
	.byte	$25
	.byte	$37
	.byte	$37
	.byte	$37
	.byte	$32
	.byte	$0E
	.byte	$02
	.byte	$34
	.byte	$2F
	.byte	$3F
	.byte	$2F
	.byte	$30
	.byte	$25
	.byte	$2E
	.byte	$3F
	.byte	$34
	.byte	$28
	.byte	$25
	.byte	$3F
	.byte	$27
	.byte	$21
	.byte	$34
	.byte	$25
	.byte	$33
	.byte	$0C
	.byte	$3F
	.byte	$33
	.byte	$28
	.byte	$25
	.byte	$01
	.byte	$2D
	.byte	$35
	.byte	$33
	.byte	$34
	.byte	$3F
	.byte	$07
	.byte	$22
	.byte	$25
	.byte	$21
	.byte	$34
	.byte	$07
	.byte	$3F
	.byte	$34
	.byte	$28
	.byte	$25
	.byte	$3F
	.byte	$34
	.byte	$25
	.byte	$2D
	.byte	$30
	.byte	$2C
	.byte	$25
	.byte	$33
	.byte	$3F
	.byte	$2F
	.byte	$26
	.byte	$01
	.byte	$32
	.byte	$2F
	.byte	$23
	.byte	$2B
	.byte	$0C
	.byte	$3F
	.byte	$30
	.byte	$21
	.byte	$30
	.byte	$25
	.byte	$32
	.byte	$3F
	.byte	$21
	.byte	$2E
	.byte	$24
	.byte	$3F
	.byte	$33
	.byte	$23
	.byte	$29
	.byte	$33
	.byte	$33
	.byte	$2F
	.byte	$32
	.byte	$33
	.byte	$01
	.byte	$35
	.byte	$33
	.byte	$29
	.byte	$2E
	.byte	$27
	.byte	$3F
	.byte	$34
	.byte	$28
	.byte	$25
	.byte	$3F
	.byte	$34
	.byte	$21
	.byte	$2C
	.byte	$29
	.byte	$33
	.byte	$2D
	.byte	$21
	.byte	$2E
	.byte	$33
	.byte	$0E
	.byte	$02
	.byte	$00
_str_cuts0_01:
	.byte	$35
	.byte	$33
	.byte	$25
	.byte	$3F
	.byte	$34
	.byte	$28
	.byte	$25
	.byte	$3F
	.byte	$28
	.byte	$25
	.byte	$21
	.byte	$32
	.byte	$34
	.byte	$3F
	.byte	$30
	.byte	$25
	.byte	$24
	.byte	$25
	.byte	$33
	.byte	$34
	.byte	$21
	.byte	$2C
	.byte	$33
	.byte	$3F
	.byte	$34
	.byte	$2F
	.byte	$01
	.byte	$32
	.byte	$25
	.byte	$2C
	.byte	$2F
	.byte	$21
	.byte	$24
	.byte	$3F
	.byte	$39
	.byte	$2F
	.byte	$35
	.byte	$32
	.byte	$3F
	.byte	$2D
	.byte	$29
	.byte	$27
	.byte	$28
	.byte	$34
	.byte	$0E
	.byte	$01
	.byte	$39
	.byte	$2F
	.byte	$35
	.byte	$3F
	.byte	$23
	.byte	$21
	.byte	$2E
	.byte	$3F
	.byte	$35
	.byte	$33
	.byte	$25
	.byte	$3F
	.byte	$34
	.byte	$25
	.byte	$2C
	.byte	$25
	.byte	$30
	.byte	$2F
	.byte	$32
	.byte	$34
	.byte	$25
	.byte	$32
	.byte	$33
	.byte	$3F
	.byte	$34
	.byte	$2F
	.byte	$01
	.byte	$27
	.byte	$25
	.byte	$34
	.byte	$3F
	.byte	$22
	.byte	$21
	.byte	$23
	.byte	$2B
	.byte	$3F
	.byte	$34
	.byte	$2F
	.byte	$3F
	.byte	$34
	.byte	$28
	.byte	$25
	.byte	$3F
	.byte	$22
	.byte	$25
	.byte	$27
	.byte	$29
	.byte	$2E
	.byte	$2E
	.byte	$29
	.byte	$2E
	.byte	$27
	.byte	$0E
	.byte	$02
	.byte	$3B
	.byte	$22
	.byte	$3D
	.byte	$3F
	.byte	$34
	.byte	$2F
	.byte	$3F
	.byte	$29
	.byte	$2E
	.byte	$34
	.byte	$25
	.byte	$32
	.byte	$21
	.byte	$23
	.byte	$34
	.byte	$01
	.byte	$3B
	.byte	$0A
	.byte	$3D
	.byte	$0B
	.byte	$3B
	.byte	$22
	.byte	$3D
	.byte	$3F
	.byte	$26
	.byte	$2F
	.byte	$32
	.byte	$3F
	.byte	$33
	.byte	$35
	.byte	$30
	.byte	$25
	.byte	$32
	.byte	$3F
	.byte	$30
	.byte	$2F
	.byte	$37
	.byte	$25
	.byte	$32
	.byte	$01
	.byte	$3B
	.byte	$33
	.byte	$25
	.byte	$2C
	.byte	$25
	.byte	$23
	.byte	$34
	.byte	$3D
	.byte	$3F
	.byte	$24
	.byte	$29
	.byte	$33
	.byte	$30
	.byte	$2C
	.byte	$21
	.byte	$39
	.byte	$33
	.byte	$3F
	.byte	$2D
	.byte	$21
	.byte	$30
	.byte	$01
	.byte	$3B
	.byte	$33
	.byte	$34
	.byte	$21
	.byte	$32
	.byte	$34
	.byte	$3D
	.byte	$3F
	.byte	$30
	.byte	$21
	.byte	$35
	.byte	$33
	.byte	$25
	.byte	$33
	.byte	$3F
	.byte	$34
	.byte	$28
	.byte	$25
	.byte	$3F
	.byte	$27
	.byte	$21
	.byte	$2D
	.byte	$25
	.byte	$02
	.byte	$00
_str_cuts0_02:
	.byte	$21
	.byte	$2E
	.byte	$24
	.byte	$3F
	.byte	$32
	.byte	$25
	.byte	$2D
	.byte	$25
	.byte	$2D
	.byte	$22
	.byte	$25
	.byte	$32
	.byte	$0C
	.byte	$3F
	.byte	$39
	.byte	$2F
	.byte	$35
	.byte	$3F
	.byte	$2D
	.byte	$35
	.byte	$33
	.byte	$34
	.byte	$3F
	.byte	$35
	.byte	$33
	.byte	$25
	.byte	$01
	.byte	$34
	.byte	$28
	.byte	$25
	.byte	$3F
	.byte	$0D
	.byte	$32
	.byte	$29
	.byte	$27
	.byte	$28
	.byte	$34
	.byte	$0D
	.byte	$3F
	.byte	$34
	.byte	$21
	.byte	$2C
	.byte	$29
	.byte	$33
	.byte	$2D
	.byte	$21
	.byte	$2E
	.byte	$3F
	.byte	$34
	.byte	$2F
	.byte	$01
	.byte	$07
	.byte	$22
	.byte	$25
	.byte	$21
	.byte	$34
	.byte	$07
	.byte	$3F
	.byte	$25
	.byte	$21
	.byte	$23
	.byte	$28
	.byte	$3F
	.byte	$34
	.byte	$25
	.byte	$2D
	.byte	$30
	.byte	$2C
	.byte	$25
	.byte	$3F
	.byte	$0E
	.byte	$3F
	.byte	$0E
	.byte	$3F
	.byte	$0E
	.byte	$02
	.byte	$00
_str_cuts0_03:
	.byte	$21
	.byte	$2E
	.byte	$24
	.byte	$3F
	.byte	$34
	.byte	$28
	.byte	$25
	.byte	$2E
	.byte	$0C
	.byte	$3F
	.byte	$21
	.byte	$3F
	.byte	$36
	.byte	$21
	.byte	$33
	.byte	$34
	.byte	$3F
	.byte	$37
	.byte	$2F
	.byte	$2F
	.byte	$24
	.byte	$3F
	.byte	$2F
	.byte	$26
	.byte	$01
	.byte	$23
	.byte	$2F
	.byte	$2C
	.byte	$35
	.byte	$2D
	.byte	$2E
	.byte	$33
	.byte	$3F
	.byte	$27
	.byte	$32
	.byte	$25
	.byte	$25
	.byte	$34
	.byte	$33
	.byte	$3F
	.byte	$23
	.byte	$28
	.byte	$25
	.byte	$32
	.byte	$29
	.byte	$2C
	.byte	$0E
	.byte	$01
	.byte	$26
	.byte	$29
	.byte	$2E
	.byte	$21
	.byte	$2C
	.byte	$2C
	.byte	$39
	.byte	$3F
	.byte	$33
	.byte	$28
	.byte	$25
	.byte	$3F
	.byte	$28
	.byte	$21
	.byte	$33
	.byte	$3F
	.byte	$22
	.byte	$25
	.byte	$23
	.byte	$2F
	.byte	$2D
	.byte	$25
	.byte	$01
	.byte	$21
	.byte	$3F
	.byte	$34
	.byte	$32
	.byte	$35
	.byte	$25
	.byte	$3F
	.byte	$27
	.byte	$2F
	.byte	$24
	.byte	$24
	.byte	$25
	.byte	$33
	.byte	$33
	.byte	$3F
	.byte	$0E
	.byte	$3F
	.byte	$0E
	.byte	$3F
	.byte	$0E
	.byte	$02
	.byte	$00
_str_cuts0_index:
	.addr	_str_cuts0_00
	.addr	_str_cuts0_01
	.addr	_str_cuts0_02
	.addr	_str_cuts0_03
.segment	"ROM05"
.segment	"ROM06"
.segment	"ROM07"
.segment	"ROM08"
.segment	"ROM09"
.segment	"ROM0A"
.segment	"ROM0B"
.segment	"ROM0C"
.segment	"ROM0D"
.segment	"ROM0E"
.segment	"ROM0F"
.segment	"ROM10"
.segment	"ROM11"
.segment	"ROM12"
.segment	"ROM13"
.segment	"ROM14"
.segment	"ROM15"
.segment	"ROM16"
.segment	"ROM17"
.segment	"ROM18"
.segment	"ROM19"
.segment	"ROM1A"
.segment	"ROM1B"
.segment	"ROM1C"
.segment	"ROM1D"
.segment	"CODE"
L6223:
	.byte	$53,$54,$41,$52,$54,$20,$20,$54,$4F,$20,$42,$45,$47,$49,$4E,$25
	.byte	$25,$53,$45,$4C,$45,$43,$54,$20,$54,$4F,$20,$43,$4F,$4E,$54,$49
	.byte	$4E,$55,$45,$00
L6228:
	.byte	$40,$20,$32,$30,$31,$37,$20,$54,$48,$45,$20,$4D,$4F,$4A,$4F,$4E
	.byte	$20,$54,$57,$49,$4E,$53,$00
L621D:
	.byte	$50,$52,$45,$53,$53,$20,$53,$54,$41,$52,$54,$21,$00
L6233:
	.byte	$47,$41,$4D,$45,$20,$4F,$56,$45,$52,$21,$00

.segment	"BSS"

.segment	"ZEROPAGE"
_rda:
	.res	1,$00
_rdb:
	.res	1,$00
_rdc:
	.res	1,$00
_rdd:
	.res	1,$00
_rde:
	.res	1,$00
_rdct:
	.res	1,$00
_rdt:
	.res	1,$00
_rdx:
	.res	1,$00
_rdy:
	.res	1,$00
_rdpant:
	.res	1,$00
_ccit:
	.res	1,$00
_rds:
	.res	1,$00
_gpit:
	.res	1,$00
_gpjt:
	.res	1,$00
_gpint:
	.res	2,$00
_gp_gen:
	.res	2,$00
_gp_aux:
	.res	2,$00
_gp_ul:
	.res	2,$00
_gp_addr:
	.res	2,$00
_oam_index:
	.res	1,$00
_pad0:
	.res	1,$00
_pad:
	.res	1,$00
_pad_this_frame:
	.res	1,$00
_half_life:
	.res	1,$00
_frame_counter:
	.res	1,$00
_col_idx:
	.res	1,$00
_col_idx_latest:
	.res	1,$00
_col_ptr:
	.res	2,$00
_map_ptr:
	.res	2,$00
_state_ctr:
	.res	1,$00
_col_v_offset:
	.res	2,$00
_cam_pos:
	.res	2,$00
_cam_pos_mod:
	.res	1,$00
_cam_pos_pant:
	.res	1,$00
_cx1:
	.res	1,$00
_cx2:
	.res	1,$00
_cy1:
	.res	1,$00
_cy2:
	.res	1,$00
_cxaux:
	.res	1,$00
_cyaux:
	.res	1,$00
_at1:
	.res	1,$00
_at2:
	.res	1,$00
_scr_buffer_ptr:
	.res	2,$00
_en_scr_buffer_ptr:
	.res	2,$00
_scr_v_offset:
	.res	1,$00
_n_pant:
	.res	1,$00
_prx:
	.res	1,$00
_pry:
	.res	1,$00
_px:
	.res	2,$00
_py:
	.res	2,$00
_pvx:
	.res	1,$00
_pvy:
	.res	1,$00
_pvmax:
	.res	1,$00
_pgotten:
	.res	1,$00
_pfacing:
	.res	1,$00
_psprid:
	.res	1,$00
_ppossee:
	.res	1,$00
_psignal:
	.res	1,$00
_pj:
	.res	1,$00
_pjb:
	.res	1,$00
_pctj:
	.res	1,$00
_pfr:
	.res	1,$00
_pflickers:
	.res	1,$00
_ppodewwwr:
	.res	1,$00
_pgtmx:
	.res	1,$00
_pgtmy:
	.res	1,$00
_px_world:
	.res	2,$00
_cam_pant:
	.res	1,$00
_cam_pant_old:
	.res	1,$00
_c_enems_t:
	.res	2,$00
_c_enems_yx1:
	.res	2,$00
_c_enems_yx2:
	.res	2,$00
_c_enems_mn:
	.res	2,$00
_enidx:
	.res	1,$00
_en_just_loaded:
	.res	1,$00
_en_iter:
	.res	1,$00
_en_t:
	.res	6,$00
_en_x1:
	.res	6,$00
_en_y1:
	.res	6,$00
_en_x2:
	.res	6,$00
_en_y2:
	.res	6,$00
_en_x:
	.res	6,$00
_en_y:
	.res	6,$00
_en_state:
	.res	6,$00
_en_s:
	.res	6,$00
_en_p:
	.res	6,$00
_en_mx:
	.res	6,$00
_en_my:
	.res	6,$00
_sprx:
	.res	1,$00
_spry:
	.res	1,$00
_sprid:
	.res	1,$00
_en_cx:
	.res	1,$00
_en_cy:
	.res	1,$00
_endx:
	.res	1,$00
_c_hotspots_yx:
	.res	2,$00
_c_hotspots_t:
	.res	2,$00
.segment	"BSS"
_ticks:
	.res	1,$00
_halfticks:
	.res	1,$00
_ntsc:
	.res	1,$00
_game_time:
	.res	1,$00
_ticker:
	.res	1,$00
_update_list:
	.res	97,$00
_scr_buffer:
	.res	384,$00
_fader:
	.res	1,$00
_paused:
	.res	1,$00
_flush:
	.res	1,$00
_reset:
	.res	1,$00
_clear:
	.res	1,$00
_cutscene_do:
	.res	1,$00
_panic_exit:
	.res	1,$00
_soft_reenter:
	.res	1,$00
_pal_cycle:
	.res	3,$00
_c_pal_bg:
	.res	2,$00
_c_pal_fg:
	.res	2,$00
_scroll_state:
	.res	1,$00
_section_x0:
	.res	2,$00
_section_x1:
	.res	2,$00
_cam_pos_old:
	.res	2,$00
_bgo_on:
	.res	5,$00
_bgo_x:
	.res	5,$00
_bgo_y:
	.res	5,$00
_bgo_pant:
	.res	5,$00
_bgo_s:
	.res	5,$00
_bgo_ctr:
	.res	5,$00
_bgo_col_idx:
	.res	10,$00
_bgo_total:
	.res	1,$00
_bgo_type:
	.res	5,$00
_stage:
	.res	1,$00
_level:
	.res	1,$00
_base_pant:
	.res	1,$00
_section:
	.res	2,$00
_game_res:
	.res	1,$00
_fskip_ctr:
	.res	1,$00
_first_time:
	.res	1,$00
_keep_playing:
	.res	1,$00
_hrt:
	.res	80,$00
_hrx:
	.res	2,$00
_hry:
	.res	2,$00
_hrp:
	.res	2,$00
_h_modify_this:
	.res	1,$00
_safe_prx:
	.res	1,$00
_safe_pry:
	.res	1,$00
_safe_n_pant:
	.res	1,$00
_safe_level:
	.res	1,$00
_plife:
	.res	1,$00
_pcharges:
	.res	1,$00
_pinv:
	.res	1,$00
_oplife:
	.res	1,$00
_opcharges:
	.res	1,$00
_pcontinues:
	.res	1,$00
_pcrx:
	.res	1,$00
_pcry:
	.res	1,$00
_music_on:
	.res	1,$00
_no_ct:
	.res	1,$00
_tt_ct:
	.res	1,$00
_use_ct:
	.res	1,$00
_guay_ct:
	.res	1,$00
_fr_ct:
	.res	1,$00
_c_pal_back:
	.res	2,$00
_ct_flash:
	.res	1,$00
_gs_flags:
	.res	4,$00
_gs_this_flag:
	.res	1,$00
_cutscene:
	.res	1,$00

; ---------------------------------------------------------------
; void __near__ bankswitch_prg_a (unsigned char)
; ---------------------------------------------------------------

.segment	"CODE"

.proc	_bankswitch_prg_a: near

.segment	"CODE"

;
; void bankswitch_prg_a (unsigned char page) {
;
	jsr     pusha
;
; tkrom_bankswitch (0x86, page);
;
	lda     #$86
	jsr     pusha
	ldy     #$01
	lda     (sp),y
	jsr     _tkrom_bankswitch
;
; }
;
	jmp     incsp1

.endproc

; ---------------------------------------------------------------
; void __near__ bankswitch_prg_b (unsigned char)
; ---------------------------------------------------------------

.segment	"CODE"

.proc	_bankswitch_prg_b: near

.segment	"CODE"

;
; void bankswitch_prg_b (unsigned char page) {
;
	jsr     pusha
;
; tkrom_bankswitch (0x87, page);
;
	lda     #$87
	jsr     pusha
	ldy     #$01
	lda     (sp),y
	jsr     _tkrom_bankswitch
;
; }
;
	jmp     incsp1

.endproc

; ---------------------------------------------------------------
; void __near__ hitit (void)
; ---------------------------------------------------------------

.segment	"CODE"

.proc	_hitit: near

.segment	"CODE"

;
; pal_bright (4);
;
	lda     #$04
	jsr     _pal_bright
;
; pal_col (0, 0);
;
	lda     #$00
	jsr     pusha
	jsr     _pal_col
;
; ppu_on_all ();
;
	jsr     _ppu_on_all
;
; while (1) ppu_wait_nmi ();
;
L0096:	jsr     _ppu_wait_nmi
	jmp     L0096

.endproc

; ---------------------------------------------------------------
; void __near__ split_and_wait (void)
; ---------------------------------------------------------------

.segment	"ROM06"

.proc	_split_and_wait: near

.segment	"ROM06"

;
; split (cam_pos & 0x1ff, SCROLL_Y); ppu_wait_nmi ();
;
	lda     _cam_pos+1
	and     #$01
	tax
	lda     _cam_pos
	jsr     pushax
	ldx     #$01
	lda     #$BC
	jsr     _split
	jmp     _ppu_wait_nmi

.endproc

; ---------------------------------------------------------------
; void __near__ fade_out_split (void)
; ---------------------------------------------------------------

.segment	"ROM06"

.proc	_fade_out_split: near

.segment	"ROM06"

;
; for (fader = 4; fader > -1; fader --) {
;
	lda     #$04
L6608:	sta     _fader
	tax
	bmi     L545C
;
; pal_bright (fader);
;
	lda     _fader
	jsr     _pal_bright
;
; split_and_wait ();
;
	jsr     _split_and_wait
;
; for (fader = 4; fader > -1; fader --) {
;
	lda     _fader
	sec
	sbc     #$01
	jmp     L6608
;
; }
;
L545C:	rts

.endproc

; ---------------------------------------------------------------
; void __near__ fade_in_split (void)
; ---------------------------------------------------------------

.segment	"ROM06"

.proc	_fade_in_split: near

.segment	"ROM06"

;
; for (fader = 0; fader < 5; fader ++) {
;
	lda     #$00
L6609:	sta     _fader
	sec
	sbc     #$05
	bvc     L5471
	eor     #$80
L5471:	bpl     L546A
;
; pal_bright (fader);
;
	lda     _fader
	jsr     _pal_bright
;
; split_and_wait ();
;
	jsr     _split_and_wait
;
; for (fader = 0; fader < 5; fader ++) {
;
	lda     _fader
	clc
	adc     #$01
	jmp     L6609
;
; }
;
L546A:	rts

.endproc

; ---------------------------------------------------------------
; void __near__ delay_split (unsigned char)
; ---------------------------------------------------------------

.segment	"ROM06"

.proc	_delay_split: near

.segment	"ROM06"

;
; void delay_split (unsigned char n) {
;
	jsr     pusha
;
; gpit = n; while (gpit --) split_and_wait ();
;
	ldy     #$00
	lda     (sp),y
	sta     _gpit
	jmp     L660A
L547A:	jsr     _split_and_wait
L660A:	lda     _gpit
	pha
	sec
	sbc     #$01
	sta     _gpit
	pla
	tax
	bne     L547A
;
; }
;
	jmp     incsp1

.endproc

; ---------------------------------------------------------------
; void __near__ fade_out (void)
; ---------------------------------------------------------------

.segment	"ROM06"

.proc	_fade_out: near

.segment	"ROM06"

;
; void fade_out (void) { fader = 5; while (fader --) { pal_bright (fader); ppu_wait_nmi (); } } 
;
	lda     #$05
	sta     _fader
	jmp     L660B
L5482:	lda     _fader
	jsr     _pal_bright
	jsr     _ppu_wait_nmi
L660B:	lda     _fader
	pha
	sec
	sbc     #$01
	sta     _fader
	pla
	tax
	bne     L5482
	rts

.endproc

; ---------------------------------------------------------------
; void __near__ fade_in (void)
; ---------------------------------------------------------------

.segment	"ROM06"

.proc	_fade_in: near

.segment	"ROM06"

;
; void fade_in (void) { fader = 5; while (fader --) { pal_bright (4 - fader); ppu_wait_nmi (); } }
;
	lda     #$05
	sta     _fader
	jmp     L660C
L548D:	lda     #$04
	jsr     pusha0
	lda     _fader
	bpl     L5494
	ldx     #$FF
L5494:	jsr     tossubax
	jsr     _pal_bright
	jsr     _ppu_wait_nmi
L660C:	lda     _fader
	pha
	sec
	sbc     #$01
	sta     _fader
	pla
	tax
	bne     L548D
	rts

.endproc

; ---------------------------------------------------------------
; void __near__ cls (void)
; ---------------------------------------------------------------

.segment	"ROM06"

.proc	_cls: near

.segment	"ROM06"

;
; void cls (void) { vram_adr (NAMETABLE_A); vram_fill (0, 0x800); }
;
	ldx     #$20
	lda     #$00
	jsr     _vram_adr
	lda     #$00
	jsr     pusha
	ldx     #$08
	jmp     _vram_fill

.endproc

; ---------------------------------------------------------------
; void __near__ p_t2 (unsigned char, unsigned char, unsigned char)
; ---------------------------------------------------------------

.segment	"ROM06"

.proc	_p_t2: near

.segment	"ROM06"

;
; void p_t2 (unsigned char x, unsigned char y, unsigned char n) {
;
	jsr     pusha
;
; gp_addr = NAMETABLE_A + (y << 5) + x;
;
	ldy     #$01
	ldx     #$00
	lda     (sp),y
	jsr     aslax4
	stx     tmp1
	asl     a
	rol     tmp1
	sta     ptr1
	lda     tmp1
	clc
	adc     #$20
	sta     ptr1+1
	iny
	lda     (sp),y
	clc
	adc     ptr1
	ldx     ptr1+1
	bcc     L660D
	inx
L660D:	sta     _gp_addr
	stx     _gp_addr+1
;
; UPDATE = MSB (gp_addr) | NT_UPD_HORZ;
;
	lda     _gp_ul
	ldx     _gp_ul+1
	sta     regsave
	stx     regsave+1
	clc
	adc     #$01
	bcc     L54A1
	inx
L54A1:	sta     _gp_ul
	stx     _gp_ul+1
	lda     _gp_addr+1
	ora     #$40
	ldy     #$00
	sta     (regsave),y
;
; UPDATE = LSB (gp_addr);
;
	lda     _gp_ul
	ldx     _gp_ul+1
	sta     regsave
	stx     regsave+1
	clc
	adc     #$01
	bcc     L54A6
	inx
L54A6:	sta     _gp_ul
	stx     _gp_ul+1
	lda     _gp_addr
	sta     (regsave),y
;
; UPDATE = 2; 
;
	lda     _gp_ul
	ldx     _gp_ul+1
	sta     regsave
	stx     regsave+1
	clc
	adc     #$01
	bcc     L54AB
	inx
L54AB:	sta     _gp_ul
	stx     _gp_ul+1
	lda     #$02
	sta     (regsave),y
;
; UPDATE = DIGIT ((n / 10));
;
	lda     _gp_ul
	ldx     _gp_ul+1
	sta     regsave
	stx     regsave+1
	clc
	adc     #$01
	bcc     L54AE
	inx
L54AE:	sta     _gp_ul
	stx     _gp_ul+1
	lda     regsave
	ldx     regsave+1
	jsr     pushax
	ldy     #$02
	lda     (sp),y
	jsr     pusha0
	lda     #$0A
	jsr     tosudiva0
	clc
	adc     #$E0
	ldy     #$00
	jsr     staspidx
;
; UPDATE = DIGIT ((n % 10));
;
	lda     _gp_ul
	ldx     _gp_ul+1
	sta     regsave
	stx     regsave+1
	clc
	adc     #$01
	bcc     L54B5
	inx
L54B5:	sta     _gp_ul
	stx     _gp_ul+1
	lda     regsave
	ldx     regsave+1
	jsr     pushax
	ldy     #$02
	lda     (sp),y
	jsr     pusha0
	lda     #$0A
	jsr     tosumoda0
	clc
	adc     #$E0
	ldy     #$00
	jsr     staspidx
;
; }
;
	jmp     incsp3

.endproc

; ---------------------------------------------------------------
; void __near__ p_s (unsigned char, unsigned char, __near__ unsigned char *)
; ---------------------------------------------------------------

.segment	"ROM06"

.proc	_p_s: near

.segment	"ROM06"

;
; void p_s (unsigned char x, unsigned char y, unsigned char *s) {
;
	jsr     pushax
;
; vram_adr (NAMETABLE_A + (y << 5) + x);
;
	ldy     #$02
	ldx     #$00
	lda     (sp),y
	jsr     aslax4
	stx     tmp1
	asl     a
	rol     tmp1
	sta     ptr1
	lda     tmp1
	clc
	adc     #$20
	sta     ptr1+1
	iny
	lda     (sp),y
	clc
	adc     ptr1
	ldx     ptr1+1
	bcc     L660E
	inx
L660E:	jsr     _vram_adr
;
; while (rda = *s ++) {
;
	jmp     L54C1
;
; if (rda == '%') {
;
L54BF:	lda     _rda
	cmp     #$25
	bne     L6610
;
; y ++; vram_adr (NAMETABLE_A + (y << 5) + x);
;
	ldy     #$02
	lda     (sp),y
	clc
	adc     #$01
	sta     (sp),y
	ldx     #$00
	lda     (sp),y
	jsr     aslax4
	stx     tmp1
	asl     a
	rol     tmp1
	sta     ptr1
	lda     tmp1
	clc
	adc     #$20
	sta     ptr1+1
	iny
	lda     (sp),y
	clc
	adc     ptr1
	ldx     ptr1+1
	bcc     L660F
	inx
L660F:	jsr     _vram_adr
;
; } else vram_put (rda - 32);
;
	jmp     L54C1
L6610:	lda     _rda
	sec
	sbc     #$20
	jsr     _vram_put
;
; while (rda = *s ++) {
;
L54C1:	ldy     #$01
	lda     (sp),y
	tax
	dey
	lda     (sp),y
	sta     regsave
	stx     regsave+1
	clc
	adc     #$01
	bcc     L54C4
	inx
L54C4:	jsr     stax0sp
	ldy     #$00
	lda     (regsave),y
	sta     _rda
	tax
	bne     L54BF
;
; }
;
	jmp     incsp4

.endproc

; ---------------------------------------------------------------
; void __near__ fx_flash (__near__ const unsigned char *)
; ---------------------------------------------------------------

.segment	"ROM06"

.proc	_fx_flash: near

.segment	"ROM06"

;
; void fx_flash (const unsigned char *pal) {
;
	jsr     pushax
;
; c_pal_back = pal; ct_flash = 4;  
;
	ldy     #$01
	lda     (sp),y
	sta     _c_pal_back+1
	dey
	lda     (sp),y
	sta     _c_pal_back
	lda     #$04
	sta     _ct_flash
;
; }
;
	jmp     incsp2

.endproc

; ---------------------------------------------------------------
; void __near__ update_buffered_tile (void)
; ---------------------------------------------------------------

.segment	"CODE"

.proc	_update_buffered_tile: near

.segment	"CODE"

;
; *(scr_buffer + (rdct ? 192 : 0) + rdx + (rdy << 4)) = behs [rdt];
;
	lda     _rdct
	beq     L5EE1
	lda     #$C0
L5EE1:	clc
	adc     #<(_scr_buffer)
	tay
	lda     #$00
	adc     #>(_scr_buffer)
	tax
	tya
	clc
	adc     _rdx
	bcc     L6611
	inx
L6611:	sta     ptr1
	stx     ptr1+1
	ldx     #$00
	lda     _rdy
	jsr     aslax4
	clc
	adc     ptr1
	sta     ptr1
	txa
	adc     ptr1+1
	sta     ptr1+1
	ldy     _rdt
	lda     _behs,y
	ldy     #$00
	sta     (ptr1),y
;
; gp_addr = (rdct ? NAMETABLE_B : NAMETABLE_A) + (rdx << 1) + nt_tile_offsets_y [rdy];
;
	lda     _rdct
	beq     L5EEA
	ldx     #$24
	jmp     L6614
L5EEA:	ldx     #$20
L6614:	tya
	sta     ptr1
	stx     ptr1+1
	tax
	lda     _rdx
	asl     a
	bcc     L6615
	inx
	clc
L6615:	adc     ptr1
	pha
	txa
	adc     ptr1+1
	tax
	pla
	jsr     pushax
	ldx     #$00
	lda     _rdy
	asl     a
	bcc     L6616
	inx
	clc
L6616:	adc     #<(_nt_tile_offsets_y)
	sta     ptr1
	txa
	adc     #>(_nt_tile_offsets_y)
	sta     ptr1+1
	ldy     #$01
	lda     (ptr1),y
	tax
	dey
	lda     (ptr1),y
	jsr     tosaddax
	sta     _gp_addr
	stx     _gp_addr+1
;
; bankswitch_prg_a (PRG_BANK_A_SCROLL);
;
	lda     #$00
	jsr     _bankswitch_prg_a
;
; bankswitch_prg_b (PRG_BANK_B_SCROLL);
;
	lda     #$01
	jsr     _bankswitch_prg_b
;
; UPDATE = MSB (gp_addr) | NT_UPD_HORZ;
;
	lda     _gp_ul
	ldx     _gp_ul+1
	sta     regsave
	stx     regsave+1
	clc
	adc     #$01
	bcc     L5EF5
	inx
L5EF5:	sta     _gp_ul
	stx     _gp_ul+1
	lda     _gp_addr+1
	ora     #$40
	ldy     #$00
	sta     (regsave),y
;
; UPDATE = LSB (gp_addr);
;
	lda     _gp_ul
	ldx     _gp_ul+1
	sta     regsave
	stx     regsave+1
	clc
	adc     #$01
	bcc     L5EFA
	inx
L5EFA:	sta     _gp_ul
	stx     _gp_ul+1
	lda     _gp_addr
	sta     (regsave),y
;
; UPDATE = 2;
;
	lda     _gp_ul
	ldx     _gp_ul+1
	sta     regsave
	stx     regsave+1
	clc
	adc     #$01
	bcc     L5EFF
	inx
L5EFF:	sta     _gp_ul
	stx     _gp_ul+1
	lda     #$02
	sta     (regsave),y
;
; UPDATE = main_ts_tmaps_0 [rdt];
;
	lda     _gp_ul
	ldx     _gp_ul+1
	sta     regsave
	stx     regsave+1
	clc
	adc     #$01
	bcc     L5F02
	inx
L5F02:	sta     _gp_ul
	stx     _gp_ul+1
	ldy     _rdt
	lda     _main_ts_tmaps_0,y
	ldy     #$00
	sta     (regsave),y
;
; UPDATE = main_ts_tmaps_1 [rdt];
;
	lda     _gp_ul
	ldx     _gp_ul+1
	sta     regsave
	stx     regsave+1
	clc
	adc     #$01
	bcc     L5F07
	inx
L5F07:	sta     _gp_ul
	stx     _gp_ul+1
	ldy     _rdt
	lda     _main_ts_tmaps_1,y
	ldy     #$00
	sta     (regsave),y
;
; gp_addr += 32;
;
	lda     #$20
	clc
	adc     _gp_addr
	sta     _gp_addr
	bcc     L5F0D
	inc     _gp_addr+1
;
; UPDATE = MSB (gp_addr) | NT_UPD_HORZ;
;
L5F0D:	lda     _gp_ul
	ldx     _gp_ul+1
	sta     regsave
	stx     regsave+1
	clc
	adc     #$01
	bcc     L5F0F
	inx
L5F0F:	sta     _gp_ul
	stx     _gp_ul+1
	lda     _gp_addr+1
	ora     #$40
	sta     (regsave),y
;
; UPDATE = LSB (gp_addr);
;
	lda     _gp_ul
	ldx     _gp_ul+1
	sta     regsave
	stx     regsave+1
	clc
	adc     #$01
	bcc     L5F14
	inx
L5F14:	sta     _gp_ul
	stx     _gp_ul+1
	lda     _gp_addr
	sta     (regsave),y
;
; UPDATE = 2;
;
	lda     _gp_ul
	ldx     _gp_ul+1
	sta     regsave
	stx     regsave+1
	clc
	adc     #$01
	bcc     L5F19
	inx
L5F19:	sta     _gp_ul
	stx     _gp_ul+1
	lda     #$02
	sta     (regsave),y
;
; UPDATE = main_ts_tmaps_2 [rdt];
;
	lda     _gp_ul
	ldx     _gp_ul+1
	sta     regsave
	stx     regsave+1
	clc
	adc     #$01
	bcc     L5F1C
	inx
L5F1C:	sta     _gp_ul
	stx     _gp_ul+1
	ldy     _rdt
	lda     _main_ts_tmaps_2,y
	ldy     #$00
	sta     (regsave),y
;
; UPDATE = main_ts_tmaps_3 [rdt];
;
	lda     _gp_ul
	ldx     _gp_ul+1
	sta     regsave
	stx     regsave+1
	clc
	adc     #$01
	bcc     L5F21
	inx
L5F21:	sta     _gp_ul
	stx     _gp_ul+1
	ldy     _rdt
	lda     _main_ts_tmaps_3,y
	ldy     #$00
	sta     (regsave),y
;
; bankswitch_prg_a (PRG_BANK_A_MAIN_DATA);
;
	lda     #$04
	jsr     _bankswitch_prg_a
;
; bankswitch_prg_b (PRG_BANK_B_MAIN);
;
	lda     #$06
	jmp     _bankswitch_prg_b

.endproc

; ---------------------------------------------------------------
; void __near__ bg_object_init (void)
; ---------------------------------------------------------------

.segment	"ROM06"

.proc	_bg_object_init: near

.segment	"ROM06"

;
; ccit = BG_OBJS_MAX; while (ccit --) bgo_col_idx [ccit] = 0;
;
	lda     #$05
	sta     _ccit
	jmp     L6619
L54D7:	ldx     #$00
	lda     _ccit
	asl     a
	bcc     L6618
	inx
	clc
L6618:	adc     #<(_bgo_col_idx)
	sta     ptr1
	txa
	adc     #>(_bgo_col_idx)
	sta     ptr1+1
	lda     #$00
	tay
	sta     (ptr1),y
	iny
	sta     (ptr1),y
L6619:	lda     _ccit
	pha
	sec
	sbc     #$01
	sta     _ccit
	pla
	tax
	bne     L54D7
;
; bgo_total = 0;
;
	sta     _bgo_total
;
; }
;
	rts

.endproc

; ---------------------------------------------------------------
; void __near__ bg_object_draw_this (void)
; ---------------------------------------------------------------

.segment	"ROM06"

.proc	_bg_object_draw_this: near

.segment	"ROM06"

;
; rdd = bgo_s [ccit];
;
	ldy     _ccit
	lda     _bgo_s,y
	sta     _rdd
;
; rdct = bgo_pant [ccit]; rdx = bgo_x [ccit];
;
	ldy     _ccit
	lda     _bgo_pant,y
	sta     _rdct
	ldy     _ccit
	lda     _bgo_x,y
	sta     _rdx
;
; rdy = bgo_y [ccit];
;
	ldy     _ccit
	lda     _bgo_y,y
	sta     _rdy
;
; if (rda) {
;
	lda     _rda
	beq     L54F1
;
; rdt = column_tiles_0 [rdd];
;
	ldy     _rdd
	lda     _column_tiles_0,y
	sta     _rdt
;
; update_buffered_tile ();
;
	jsr     _update_buffered_tile
;
; rdy ++; rdt = column_tiles_1 [rdd];
;
	lda     _rdy
	clc
	adc     #$01
	sta     _rdy
	ldy     _rdd
	lda     _column_tiles_1,y
	sta     _rdt
;
; update_buffered_tile ();
;
	jsr     _update_buffered_tile
;
; rdy ++; rdt = column_tiles_2 [rdd];
;
	lda     _rdy
	clc
	adc     #$01
	sta     _rdy
	ldy     _rdd
	lda     _column_tiles_2,y
	sta     _rdt
;
; update_buffered_tile ();
;
	jmp     _update_buffered_tile
;
; rdt = main_gate_tiles_0 [rdd];
;
L54F1:	ldy     _rdd
	lda     _main_gate_tiles_0,y
	sta     _rdt
;
; update_buffered_tile ();
;
	jsr     _update_buffered_tile
;
; rdy ++; rdt = main_gate_tiles_1 [rdd];
;
	lda     _rdy
	clc
	adc     #$01
	sta     _rdy
	ldy     _rdd
	lda     _main_gate_tiles_1,y
	sta     _rdt
;
; update_buffered_tile ();
;
	jsr     _update_buffered_tile
;
; rdy ++; rdt = main_gate_tiles_2 [rdd];
;
	lda     _rdy
	clc
	adc     #$01
	sta     _rdy
	ldy     _rdd
	lda     _main_gate_tiles_2,y
	sta     _rdt
;
; update_buffered_tile ();
;
	jmp     _update_buffered_tile

.endproc

; ---------------------------------------------------------------
; void __near__ bg_object_do (void)
; ---------------------------------------------------------------

.segment	"ROM06"

.proc	_bg_object_do: near

.segment	"ROM06"

;
; if (scroll_state == SCROLL_STATE_NONE || 0 == bgo_total) return;
;
	lda     _scroll_state
	beq     L6625
	lda     _bgo_total
	bne     L6626
L6625:	rts
;
; ccit = BG_OBJS_MAX; while (ccit --) {
;
L6626:	lda     #$05
	sta     _ccit
	jmp     L662E
;
; if (bgo_col_idx [ccit]) {
;
L551C:	ldx     #$00
	lda     _ccit
	asl     a
	bcc     L6620
	inx
	clc
L6620:	adc     #<(_bgo_col_idx)
	sta     ptr1
	txa
	adc     #>(_bgo_col_idx)
	sta     ptr1+1
	ldy     #$00
	lda     (ptr1),y
	iny
	ora     (ptr1),y
	jeq     L662E
;
; gpint = cam_pos >> 5;
;
	lda     _cam_pos
	ldx     _cam_pos+1
	jsr     asrax4
	jsr     asrax1
	sta     _gpint
	stx     _gpint+1
;
; if (bgo_col_idx [ccit] + 1 < gpint ||
;
	ldx     #$00
	lda     _ccit
	asl     a
	bcc     L6621
	inx
	clc
L6621:	adc     #<(_bgo_col_idx)
	sta     ptr1
	txa
	adc     #>(_bgo_col_idx)
	sta     ptr1+1
	lda     (ptr1),y
	tax
	dey
	lda     (ptr1),y
	clc
	adc     #$01
	bcc     L5528
	inx
L5528:	cmp     _gpint
	txa
	sbc     _gpint+1
	bcc     L5526
;
; bgo_col_idx [ccit] > gpint + 9) {
;
	ldx     #$00
	lda     _ccit
	asl     a
	bcc     L6622
	inx
	clc
L6622:	adc     #<(_bgo_col_idx)
	sta     ptr1
	txa
	adc     #>(_bgo_col_idx)
	sta     ptr1+1
	iny
	lda     (ptr1),y
	tax
	dey
	lda     (ptr1),y
	jsr     pushax
	lda     _gpint
	ldx     _gpint+1
	clc
	adc     #$09
	bcc     L552A
	inx
L552A:	jsr     tosicmp
	beq     L6624
	bcs     L5526
L6624:	lda     #$00
	jmp     L6628
;
; bgo_col_idx [ccit] = 0;
;
L5526:	ldx     #$00
	lda     _ccit
	asl     a
	bcc     L6623
	inx
	clc
L6623:	adc     #<(_bgo_col_idx)
	sta     ptr1
	txa
	adc     #>(_bgo_col_idx)
	sta     ptr1+1
	lda     #$00
	tay
	sta     (ptr1),y
	iny
	sta     (ptr1),y
;
; bgo_total --;
;
	lda     _bgo_total
	sec
	sbc     #$01
	sta     _bgo_total
;
; } else {
;
	jmp     L662E
;
; rda = 0;
;
L6628:	sta     _rda
;
; switch (bgo_type [ccit]) {
;
	ldy     _ccit
	lda     _bgo_type,y
;
; }
;
	cmp     #$30
	beq     L5539
	cmp     #$60
	jeq     L5582
	cmp     #$61
	jeq     L5582
	cmp     #$62
	jeq     L5582
	cmp     #$63
	jeq     L6629
	jmp     L662E
;
; if (bgo_ctr [ccit]) bgo_ctr [ccit] --; else {
;
L5539:	ldy     _ccit
	lda     _bgo_ctr,y
	beq     L553A
	lda     #<(_bgo_ctr)
	ldx     #>(_bgo_ctr)
	clc
	adc     _ccit
	bcc     L5540
	inx
L5540:	jsr     pushax
	sta     ptr1
	stx     ptr1+1
	ldy     #$00
	lda     (ptr1),y
	sec
	sbc     #$01
	jsr     staspidx
	jmp     L662E
;
; rdd = bgo_s [ccit];
;
L553A:	ldy     _ccit
	lda     _bgo_s,y
	sta     _rdd
;
; rdct = bgo_pant [ccit]; rdx = bgo_x [ccit];
;
	ldy     _ccit
	lda     _bgo_pant,y
	sta     _rdct
	ldy     _ccit
	lda     _bgo_x,y
	sta     _rdx
;
; rdy = bgo_y [ccit]; rdt = chac_chac_tiles_0 [rdd];
;
	ldy     _ccit
	lda     _bgo_y,y
	sta     _rdy
	ldy     _rdd
	lda     _chac_chac_tiles_0,y
	sta     _rdt
;
; update_buffered_tile ();
;
	jsr     _update_buffered_tile
;
; rdy ++; rdt = chac_chac_tiles_1 [rdd];
;
	lda     _rdy
	clc
	adc     #$01
	sta     _rdy
	ldy     _rdd
	lda     _chac_chac_tiles_1,y
	sta     _rdt
;
; update_buffered_tile ();
;
	jsr     _update_buffered_tile
;
; rdy ++; rdt = chac_chac_tiles_2 [rdd];
;
	lda     _rdy
	clc
	adc     #$01
	sta     _rdy
	ldy     _rdd
	lda     _chac_chac_tiles_2,y
	sta     _rdt
;
; update_buffered_tile ();
;
	jsr     _update_buffered_tile
;
; if (rdd == 2) sfx_play (SFX_FLASH, SC_LEVEL);
;
	lda     _rdd
	cmp     #$02
	bne     L5563
	lda     #$01
	jsr     pusha
	jsr     _sfx_play
;
; bgo_ctr [ccit] = bg_object_times [rdd];
;
L5563:	lda     #<(_bgo_ctr)
	ldx     #>(_bgo_ctr)
	clc
	adc     _ccit
	bcc     L556A
	inx
L556A:	sta     ptr1
	stx     ptr1+1
	ldy     _rdd
	lda     _bg_object_times,y
	ldy     #$00
	sta     (ptr1),y
;
; bgo_s [ccit] ++; if (bgo_s [ccit] == 6) bgo_s [ccit] = 0;
;
	lda     #<(_bgo_s)
	ldx     #>(_bgo_s)
	clc
	adc     _ccit
	bcc     L5570
	inx
L5570:	jsr     pushax
	sta     ptr1
	stx     ptr1+1
	ldy     #$00
	lda     (ptr1),y
	clc
	adc     #$01
	jsr     staspidx
	ldy     _ccit
	lda     _bgo_s,y
	cmp     #$06
	jne     L662E
	ldy     _ccit
	lda     #$00
	sta     _bgo_s,y
;
; break;
;
	jmp     L662E
;
; rda = 1;
;
L6629:	lda     #$01
	sta     _rda
;
; if (bgo_ctr [ccit]) bgo_ctr [ccit] --; else {
;
L5582:	ldy     _ccit
	lda     _bgo_ctr,y
	beq     L662A
	lda     #<(_bgo_ctr)
	ldx     #>(_bgo_ctr)
	clc
	adc     _ccit
	bcc     L5589
	inx
L5589:	jsr     pushax
	sta     ptr1
	stx     ptr1+1
	ldy     #$00
	lda     (ptr1),y
	sec
	sbc     #$01
	jsr     staspidx
	jmp     L662E
;
; if ((frame_counter & 3) == bgo_type [ccit] - 96) {
;
L662A:	lda     _frame_counter
	ldx     #$00
	and     #$03
	sta     ptr1
	stx     ptr1+1
	ldy     _ccit
	lda     _bgo_type,y
	sec
	sbc     #$60
	bcs     L5590
	dex
L5590:	cpx     ptr1+1
	bne     L662E
	cmp     ptr1
	bne     L662E
;
; bg_object_draw_this ();
;
	jsr     _bg_object_draw_this
;
; if (gs_flags [bgo_type [ccit] - 96] && rdd < 2) {
;
	ldy     _ccit
	ldx     #$00
	lda     _bgo_type,y
	sec
	sbc     #$60
	bcs     L5597
	dex
L5597:	sta     ptr1
	txa
	clc
	adc     #>(_gs_flags)
	sta     ptr1+1
	ldy     #<(_gs_flags)
	lda     (ptr1),y
	beq     L5592
	lda     _rdd
	cmp     #$02
	bcs     L5592
;
; bgo_ctr [ccit] = 50; if (rdd) sfx_play (SFX_OFF, SC_LEVEL);
;
	ldy     _ccit
	lda     #$32
	sta     _bgo_ctr,y
	lda     _rdd
	beq     L559E
	lda     #$06
	jsr     pusha
	lda     #$01
	jsr     _sfx_play
;
; bgo_s [ccit] ++;
;
L559E:	lda     #<(_bgo_s)
	ldx     #>(_bgo_s)
	clc
	adc     _ccit
	bcc     L55A5
	inx
L55A5:	jsr     pushax
	sta     ptr1
	stx     ptr1+1
	ldy     #$00
	lda     (ptr1),y
	clc
	adc     #$01
	jsr     staspidx
;
; } else bgo_ctr [ccit] = 0;
;
	jmp     L662E
L5592:	ldy     _ccit
	lda     #$00
	sta     _bgo_ctr,y
;
; ccit = BG_OBJS_MAX; while (ccit --) {
;
L662E:	lda     _ccit
	pha
	sec
	sbc     #$01
	sta     _ccit
	pla
	tax
	jne     L551C
;
; }
;
	rts

.endproc

; ---------------------------------------------------------------
; void __near__ camera_do (void)
; ---------------------------------------------------------------

.segment	"ROM06"

.proc	_camera_do: near

.segment	"ROM06"

;
; cam_pos = px_world - 120;
;
	lda     _px_world
	ldx     _px_world+1
	sec
	sbc     #$78
	bcs     L55AE
	dex
L55AE:	sta     _cam_pos
	stx     _cam_pos+1
;
; if (cam_pos < section_x0) cam_pos = section_x0;
;
	cmp     _section_x0
	txa
	sbc     _section_x0+1
	bvc     L662F
	eor     #$80
L662F:	bpl     L55AF
	lda     _section_x0
	sta     _cam_pos
	lda     _section_x0+1
	sta     _cam_pos+1
;
; if (cam_pos > section_x1) cam_pos = section_x1;
;
L55AF:	lda     _cam_pos
	ldx     _cam_pos+1
	jsr     pushax
	lda     _section_x1
	ldx     _section_x1+1
	jsr     tosicmp
	bmi     L55B3
	beq     L55B3
	lda     _section_x1
	sta     _cam_pos
	lda     _section_x1+1
	sta     _cam_pos+1
;
; cam_pos_pant = (MSB (cam_pos)) & 1;
;
L55B3:	lda     _cam_pos+1
	and     #$01
	sta     _cam_pos_pant
;
; cam_pos_mod = LSB (cam_pos);
;
	lda     _cam_pos
	sta     _cam_pos_mod
;
; }
;
	rts

.endproc

; ---------------------------------------------------------------
; void __near__ hotspots_init (void)
; ---------------------------------------------------------------

.segment	"ROM06"

.proc	_hotspots_init: near

.segment	"ROM06"

;
; gpit = MAX_PANTS; while (gpit --) hrt [gpit] = c_hotspots_t [gpit];
;
	lda     #$50
	sta     _gpit
	jmp     L6632
L55C4:	lda     #<(_hrt)
	ldx     #>(_hrt)
	clc
	adc     _gpit
	bcc     L55CA
	inx
L55CA:	jsr     pushax
	lda     _c_hotspots_t
	ldx     _c_hotspots_t+1
	ldy     _gpit
	sta     ptr1
	stx     ptr1+1
	lda     (ptr1),y
	ldy     #$00
	jsr     staspidx
L6632:	lda     _gpit
	pha
	sec
	sbc     #$01
	sta     _gpit
	pla
	tax
	bne     L55C4
;
; }
;
	rts

.endproc

; ---------------------------------------------------------------
; void __near__ hotspots_restore_carried_object (void)
; ---------------------------------------------------------------

.segment	"ROM06"

.proc	_hotspots_restore_carried_object: near

.segment	"ROM06"

;
; gpit = MAX_PANTS; while (gpit --) if (c_hotspots_t [gpit] == pinv) hrt [gpit] = pinv;
;
	lda     #$50
	sta     _gpit
	jmp     L6635
L55D0:	lda     _c_hotspots_t
	ldx     _c_hotspots_t+1
	ldy     _gpit
	sta     ptr1
	stx     ptr1+1
	lda     (ptr1),y
	cmp     _pinv
	bne     L6635
	ldy     _gpit
	lda     _pinv
	sta     _hrt,y
L6635:	lda     _gpit
	pha
	sec
	sbc     #$01
	sta     _gpit
	pla
	tax
	bne     L55D0
;
; }
;
	rts

.endproc

; ---------------------------------------------------------------
; void __near__ hotspots_load (void)
; ---------------------------------------------------------------

.segment	"ROM06"

.proc	_hotspots_load: near

.segment	"ROM06"

;
; rda = rdpant + base_pant;
;
	lda     _rdpant
	clc
	adc     _base_pant
	sta     _rda
;
; gpit = rda & 1;
;
	and     #$01
	sta     _gpit
;
; rdb = c_hotspots_yx [rda];
;
	lda     _c_hotspots_yx
	ldx     _c_hotspots_yx+1
	ldy     _rda
	sta     ptr1
	stx     ptr1+1
	lda     (ptr1),y
	sta     _rdb
;
; hrx [gpit] = rdb << 4;
;
	lda     #<(_hrx)
	ldx     #>(_hrx)
	clc
	adc     _gpit
	bcc     L55E5
	inx
L55E5:	sta     ptr1
	stx     ptr1+1
	lda     _rdb
	asl     a
	asl     a
	asl     a
	asl     a
	ldy     #$00
	sta     (ptr1),y
;
; hry [gpit] = rdb & 0xf0;
;
	lda     #<(_hry)
	ldx     #>(_hry)
	clc
	adc     _gpit
	bcc     L55E9
	inx
L55E9:	sta     ptr1
	stx     ptr1+1
	lda     _rdb
	and     #$F0
	sta     (ptr1),y
;
; hrp [gpit] = rda;
;
	ldy     _gpit
	lda     _rda
	sta     _hrp,y
;
; }
;
	rts

.endproc

; ---------------------------------------------------------------
; void __near__ hotspots_do (void)
; ---------------------------------------------------------------

.segment	"ROM06"

.proc	_hotspots_do: near

.segment	"ROM06"

;
; gpit = 2; while (gpit --) {
;
	lda     #$02
	sta     _gpit
	jmp     L6655
;
; rda = hrt [hrp [gpit]];
;
L55F2:	ldy     _gpit
	lda     _hrp,y
	sta     ptr1
	lda     #$00
	clc
	adc     #>(_hrt)
	sta     ptr1+1
	ldy     #<(_hrt)
	lda     (ptr1),y
	sta     _rda
;
; if (rda == 0) continue;
;
	lda     _rda
	jeq     L6655
;
; rdb = hrx [gpit]; rdc = hry [gpit];
;
	ldy     _gpit
	lda     _hrx,y
	sta     _rdb
	ldy     _gpit
	lda     _hry,y
	sta     _rdc
;
; if (rda == 0xff) {
;
	lda     _rda
	cmp     #$FF
;
; } else if (rda < 8) {
;
	beq     L6643
	cmp     #$08
	bcs     L6641
;
; } else if (rda & 0x10) {
;
	jmp     L663B
L6641:	lda     _rda
	and     #$10
	beq     L6642
;
; sprid = rda & 0x7;
;
	lda     _rda
	and     #$07
;
; } else if (rda == 0x22) {
;
	jmp     L663B
L6642:	lda     _rda
	cmp     #$22
	bne     L6643
;
; sprid = 2;
;
	lda     #$02
;
; } else sprid = 3;
;
	jmp     L663B
L6643:	lda     #$03
L663B:	sta     _sprid
;
; if (cam_pos_pant == gpit) {
;
	ldx     #$00
	lda     _gpit
	cmp     _cam_pos_pant
	bne     L6644
;
; if (rdb >= cam_pos_mod) rdx = rdb - cam_pos_mod; else continue;
;
	lda     _rdb
	cmp     _cam_pos_mod
	jcc     L6655
	sec
	sbc     _cam_pos_mod
	jmp     L6657
;
; if (rdb + 16 < cam_pos_mod) rdx = 256 - cam_pos_mod + rdb; else continue;
;
L6644:	lda     _rdb
	clc
	adc     #$10
	bcc     L5625
	inx
L5625:	cmp     _cam_pos_mod
	txa
	sbc     #$00
	jcs     L6655
	lda     #$00
	sec
	sbc     _cam_pos_mod
	pha
	lda     #$01
	sbc     #$00
	pla
	clc
	adc     _rdb
L6657:	sta     _rdx
;
; rdx, rdc + SPRITE_ADJUST,
;
	jsr     decsp3
	lda     _rdx
	ldy     #$02
	sta     (sp),y
	lda     _rdc
	clc
	adc     #$03
	dey
	sta     (sp),y
;
; oam_index,
;
	lda     _oam_index
	dey
	sta     (sp),y
;
; spr_it [sprid]
;
	ldx     #$00
	lda     _sprid
	asl     a
	bcc     L663E
	inx
	clc
L663E:	adc     #<(_spr_it)
;
; );
;
	sta     ptr1
;
; spr_it [sprid]
;
	txa
	adc     #>(_spr_it)
;
; );
;
	sta     ptr1+1
	iny
	lda     (ptr1),y
	tax
	dey
	lda     (ptr1),y
	jsr     _oam_meta_spr
	sta     _oam_index
;
; if (rda == 0x22 && half_life) oam_index = oam_meta_spr (
;
	ldx     #$00
	lda     _rda
	cmp     #$22
	bne     L6647
	lda     _half_life
	beq     L6647
;
; rdx, rdc + SPRITE_ADJUST,
;
	jsr     decsp3
	lda     _rdx
	ldy     #$02
	sta     (sp),y
	lda     _rdc
	clc
	adc     #$03
	dey
	sta     (sp),y
;
; oam_index,
;
	lda     _oam_index
	dey
	sta     (sp),y
;
; );
;
	lda     _spr_it+16
	ldx     _spr_it+16+1
	jsr     _oam_meta_spr
	sta     _oam_index
;
; if (CL (prx, pry, rdb, rdc)) {
;
	ldx     #$00
L6647:	lda     _prx
	clc
	adc     #$04
	bcc     L5641
	inx
L5641:	cmp     _rdb
	txa
	sbc     #$00
	jcc     L6655
	lda     _prx
	jsr     pusha0
	lda     _rdb
	clc
	adc     #$0C
	bcc     L5646
	ldx     #$01
L5646:	jsr     tosicmp
	beq     L663F
	jcs     L6655
L663F:	ldx     #$00
	lda     _pry
	clc
	adc     #$0C
	bcc     L5648
	inx
L5648:	cmp     _rdc
	txa
	sbc     #$00
	jcc     L6655
	lda     _pry
	jsr     pusha0
	lda     _rdc
	clc
	adc     #$0C
	bcc     L564C
	ldx     #$01
L564C:	jsr     tosicmp
	bcc     L563F
	jne     L6655
;
; if (rda < 8 || rda == 0x22) {
;
L563F:	lda     _rda
	cmp     #$08
	bcc     L664A
	cmp     #$22
	jne     L664E
;
; switch (rda) {
;
L664A:	lda     _rda
;
; }
;
	cmp     #$01
	beq     L664B
	cmp     #$04
	beq     L664C
	cmp     #$05
	beq     L664C
	cmp     #$06
	beq     L664C
	cmp     #$07
	beq     L664C
	cmp     #$22
	beq     L664D
	jmp     L6655
;
; plife ++;
;
L664B:	lda     _plife
	clc
	adc     #$01
	sta     _plife
;
; hrt [hrp [gpit]] = 0;
;
	ldy     _gpit
	lda     _hrp,y
	clc
	adc     #<(_hrt)
	sta     ptr1
	lda     #$00
	adc     #>(_hrt)
	sta     ptr1+1
	lda     #$00
	tay
	sta     (ptr1),y
;
; sfx_play (SFX_HEART, SC_LEVEL);
;
	lda     #$0B
	jsr     pusha
	lda     #$01
;
; break;
;
	jmp     L663C
;
; if (guay_ct == 0) {
;
L664C:	lda     _guay_ct
	jne     L6655
;
; if (pinv == 0xff) {
;
	lda     _pinv
	cmp     #$FF
	jne     L6655
;
; hrt [hrp [gpit]] = 0xff;
;
	ldy     _gpit
	lda     _hrp,y
	clc
	adc     #<(_hrt)
	sta     ptr1
	lda     #$00
	adc     #>(_hrt)
	sta     ptr1+1
	lda     #$FF
	ldy     #$00
	sta     (ptr1),y
;
; pinv = rda;
;
	lda     _rda
	sta     _pinv
;
; sfx_play (SFX_GET, SC_LEVEL);
;
	lda     #$03
	jsr     pusha
	lda     #$01
	jsr     _sfx_play
;
; guay_ct = ticks;
;
	lda     _ticks
	sta     _guay_ct
;
; break;
;
	jmp     L6655
;
; psignal = PLAYER_WINS;
;
L664D:	lda     #$09
	sta     _psignal
;
; break;
;
	jmp     L6655
;
; } else if ((pad0 & PAD_B) && !(guay_ct || tt_ct || use_ct || no_ct)) {
;
L664E:	lda     _pad0
	and     #$02
	jeq     L6655
	lda     _guay_ct
	bne     L664F
	lda     _tt_ct
	bne     L664F
	lda     _use_ct
	bne     L664F
	lda     _no_ct
	beq     L5681
L664F:	lda     #$01
L5681:	jsr     bnega
	jeq     L6655
;
; rdb = 0;
;
	lda     #$00
	sta     _rdb
;
; switch (rda) {
;
	lda     _rda
;
; }
;
	cmp     #$0C
	beq     L6652
	cmp     #$0D
	beq     L6652
	cmp     #$0E
	beq     L6652
	cmp     #$0F
	beq     L6652
	cmp     #$20
	beq     L56A9
	cmp     #$21
	jeq     L6654
	jmp     L5687
;
; if (pinv == (rda & 7)) {
;
L6652:	lda     _pinv
	jsr     pusha0
	lda     _rda
	and     #$07
	jsr     tosicmp0
	jne     L5687
;
; music_on = 0;
;
	lda     #$00
	sta     _music_on
;
; if (rda < 0x0f) music_stop ();
;
	lda     _rda
	cmp     #$0F
	bcs     L6653
	jsr     _music_stop
;
; use_ct = 1; fr_ct = 0;
;
L6653:	lda     #$01
	sta     _use_ct
	lda     #$00
	sta     _fr_ct
;
; rdb = 1;
;
	lda     #$01
	sta     _rdb
;
; h_modify_this = hrp [gpit];
;
	ldy     _gpit
	lda     _hrp,y
	sta     _h_modify_this
;
; gs_this_flag = rda - 0x0C;
;
	lda     _rda
	sec
	sbc     #$0C
	sta     _gs_this_flag
;
; sfx_play (SFX_USE, SC_LEVEL);
;
	lda     #$02
	jsr     pusha
	lda     #$01
	jsr     _sfx_play
;
; break;
;
	jmp     L5687
;
; if (pcharges) {
;
L56A9:	lda     _pcharges
	beq     L5687
;
; pcharges --;
;
	sec
	sbc     #$01
	sta     _pcharges
;
; music_pause (1);
;
	lda     #$01
	jsr     _music_pause
;
; sfx_play (SFX_USE, SC_LEVEL);
;
	lda     #$02
	jsr     pusha
	lda     #$01
	jsr     _sfx_play
;
; fx_flash (mypal_reds);
;
	lda     #<(_mypal_reds)
	ldx     #>(_mypal_reds)
	jsr     _fx_flash
;
; tt_ct = 1; fr_ct = 0;
;
	lda     #$01
	sta     _tt_ct
	lda     #$00
	sta     _fr_ct
;
; break;
;
	jmp     L6656
;
; if (pcharges < 3) {
;
L6654:	lda     _pcharges
	cmp     #$03
	bcs     L5687
;
; pcharges = 3;
;
	lda     #$03
	sta     _pcharges
;
; sfx_play (SFX_RECHARGE, SC_LEVEL);
;
	lda     #$08
	jsr     pusha
	lda     #$01
	jsr     _sfx_play
;
; fx_flash (c_pal_bg);
;
	lda     _c_pal_bg
	ldx     _c_pal_bg+1
	jsr     _fx_flash
;
; guay_ct = ticks;
;
	lda     _ticks
	sta     _guay_ct
;
; rdb = 1;
;
L6656:	lda     #$01
	sta     _rdb
;
; if (!rdb) {
;
L5687:	lda     _rdb
	bne     L6655
;
; no_ct = ticks;
;
	lda     _ticks
	sta     _no_ct
;
; sfx_play (SFX_NO, SC_PLAYER);
;
	lda     #$0D
	jsr     pusha
	lda     #$00
L663C:	jsr     _sfx_play
;
; gpit = 2; while (gpit --) {
;
L6655:	lda     _gpit
	pha
	sec
	sbc     #$01
	sta     _gpit
	pla
	tax
	jne     L55F2
;
; }
;
	rts

.endproc

; ---------------------------------------------------------------
; void __near__ hud_and_split_setup (void)
; ---------------------------------------------------------------

.segment	"ROM06"

.proc	_hud_and_split_setup: near

.segment	"ROM06"

;
; scroll (0, SCROLL_Y);
;
	jsr     push0
	ldx     #$01
	lda     #$BC
	jsr     _scroll
;
; bankswitch_prg_a (PRG_BANK_A_RLE_SCREENS);
;
	lda     #$03
	jsr     _bankswitch_prg_a
;
; vram_adr (NAMETABLE_A);
;
	ldx     #$20
	lda     #$00
	jsr     _vram_adr
;
; vram_unrle (hud_rle);
;
	lda     #<(_hud_rle)
	ldx     #>(_hud_rle)
	jsr     _vram_unrle
;
; bankswitch_prg_a (PRG_BANK_A_MAIN_DATA);
;
	lda     #$04
	jsr     _bankswitch_prg_a
;
; oam_spr (254, 27, 0, 3, 0); // Sprite 0
;
	jsr     decsp4
	lda     #$FE
	ldy     #$03
	sta     (sp),y
	lda     #$1B
	dey
	sta     (sp),y
	lda     #$00
	dey
	sta     (sp),y
	lda     #$03
	dey
	sta     (sp),y
	tya
	jsr     _oam_spr
;
; oplife = opcharges = 0xff;
;
	lda     #$FF
	sta     _opcharges
	sta     _oplife
;
; }
;
	rts

.endproc

; ---------------------------------------------------------------
; void __near__ hud_do (void)
; ---------------------------------------------------------------

.segment	"ROM06"

.proc	_hud_do: near

.segment	"ROM06"

;
; 136, 15,
;
	jsr     decsp3
	lda     #$88
	ldy     #$02
	sta     (sp),y
	lda     #$0F
	dey
	sta     (sp),y
;
; oam_index,
;
	lda     _oam_index
	dey
	sta     (sp),y
;
; spr_it [ (pinv > 3 && pinv < 8) ? pinv : 3 ]
;
	lda     _pinv
	cmp     #$04
	ldx     #$00
	bcc     L665F
	lda     _pinv
	cmp     #$08
	bcs     L665F
	jmp     L56F2
L665F:	lda     #$03
L56F2:	asl     a
	bcc     L665B
	inx
	clc
L665B:	adc     #<(_spr_it)
;
; ); 
;
	sta     ptr1
;
; spr_it [ (pinv > 3 && pinv < 8) ? pinv : 3 ]
;
	txa
	adc     #>(_spr_it)
;
; ); 
;
	sta     ptr1+1
	iny
	lda     (ptr1),y
	tax
	dey
	lda     (ptr1),y
	jsr     _oam_meta_spr
	sta     _oam_index
;
; if (plife != oplife) {
;
	lda     _oplife
	cmp     _plife
	beq     L6660
;
; p_t2 (5, 28, plife);
;
	jsr     decsp2
	lda     #$05
	ldy     #$01
	sta     (sp),y
	lda     #$1C
	dey
	sta     (sp),y
	lda     _plife
	jsr     _p_t2
;
; oplife = plife;
;
	lda     _plife
	sta     _oplife
;
; if (pcharges != opcharges) {
;
L6660:	lda     _opcharges
	cmp     _pcharges
	beq     L56FC
;
; UPDATE = 0x23;
;
	lda     _gp_ul
	ldx     _gp_ul+1
	sta     regsave
	stx     regsave+1
	clc
	adc     #$01
	bcc     L56FF
	inx
L56FF:	sta     _gp_ul
	stx     _gp_ul+1
	lda     #$23
	ldy     #$00
	sta     (regsave),y
;
; UPDATE = 0x9c;
;
	lda     _gp_ul
	ldx     _gp_ul+1
	sta     regsave
	stx     regsave+1
	clc
	adc     #$01
	bcc     L5702
	inx
L5702:	sta     _gp_ul
	stx     _gp_ul+1
	lda     #$9C
	sta     (regsave),y
;
; UPDATE = DIGIT (pcharges);
;
	lda     _gp_ul
	ldx     _gp_ul+1
	sta     regsave
	stx     regsave+1
	clc
	adc     #$01
	bcc     L5705
	inx
L5705:	sta     _gp_ul
	stx     _gp_ul+1
	lda     _pcharges
	clc
	adc     #$E0
	sta     (regsave),y
;
; opcharges = pcharges;
;
	lda     _pcharges
	sta     _opcharges
;
; }
;
L56FC:	rts

.endproc

; ---------------------------------------------------------------
; void __near__ palfx_do (void)
; ---------------------------------------------------------------

.segment	"ROM06"

.proc	_palfx_do: near

.segment	"ROM06"

;
; if (ct_flash) {
;
	lda     _ct_flash
	beq     L570D
;
; if (ct_flash == 4) {
;
	cmp     #$04
	bne     L6661
;
; pal_bg (mypal_light_bg);
;
	lda     #<(_mypal_light_bg)
	ldx     #>(_mypal_light_bg)
	jsr     _pal_bg
;
; pal_spr (mypal_light_fg);
;
	lda     #<(_mypal_light_fg)
	ldx     #>(_mypal_light_fg)
	jsr     _pal_spr
;
; ct_flash --;
;
L6661:	lda     _ct_flash
	sec
	sbc     #$01
	sta     _ct_flash
;
; if (ct_flash == 0) {
;
	lda     _ct_flash
	bne     L571D
;
; pal_bg (c_pal_back);
;
	lda     _c_pal_back
	ldx     _c_pal_back+1
	jsr     _pal_bg
;
; pal_spr (c_pal_fg);
;
	lda     _c_pal_fg
	ldx     _c_pal_fg+1
	jmp     _pal_spr
;
; } else if ((frame_counter & 15) == 0) {
;
L570D:	lda     _frame_counter
	and     #$0F
	bne     L571D
;
; gpit = pal_cycle [2]; 
;
	lda     _pal_cycle+2
	sta     _gpit
;
; pal_cycle [2] = pal_cycle [1]; 
;
	lda     _pal_cycle+1
	sta     _pal_cycle+2
;
; pal_cycle [1] = pal_cycle [0]; 
;
	lda     _pal_cycle
	sta     _pal_cycle+1
;
; pal_cycle [0] = gpit; 
;
	lda     _gpit
	sta     _pal_cycle
;
; pal_col (13, pal_cycle [0]);
;
	lda     #$0D
	jsr     pusha
	lda     _pal_cycle
	jsr     _pal_col
;
; pal_col (14, pal_cycle [1]);
;
	lda     #$0E
	jsr     pusha
	lda     _pal_cycle+1
	jsr     _pal_col
;
; pal_col (15, pal_cycle [2]);
;
	lda     #$0F
	jsr     pusha
	lda     _pal_cycle+2
	jmp     _pal_col
;
; }
;
L571D:	rts

.endproc

; ---------------------------------------------------------------
; void __near__ palfx_init (void)
; ---------------------------------------------------------------

.segment	"ROM06"

.proc	_palfx_init: near

.segment	"ROM06"

;
; pal_cycle [0] = c_pal_bg [13];
;
	lda     _c_pal_bg
	sta     ptr1
	lda     _c_pal_bg+1
	sta     ptr1+1
	ldy     #$0D
	lda     (ptr1),y
	sta     _pal_cycle
;
; pal_cycle [1] = c_pal_bg [14];
;
	lda     _c_pal_bg
	sta     ptr1
	lda     _c_pal_bg+1
	sta     ptr1+1
	iny
	lda     (ptr1),y
	sta     _pal_cycle+1
;
; pal_cycle [2] = c_pal_bg [15];
;
	lda     _c_pal_bg
	sta     ptr1
	lda     _c_pal_bg+1
	sta     ptr1+1
	iny
	lda     (ptr1),y
	sta     _pal_cycle+2
;
; }
;
	rts

.endproc

; ---------------------------------------------------------------
; void __near__ player_reset_movement (void)
; ---------------------------------------------------------------

.segment	"ROM06"

.proc	_player_reset_movement: near

.segment	"ROM06"

;
; pvx = pvy = 0;
;
	lda     #$00
	sta     _pvy
	sta     _pvx
;
; }
;
	rts

.endproc

; ---------------------------------------------------------------
; void __near__ player_register_safe_spot (void)
; ---------------------------------------------------------------

.segment	"ROM06"

.proc	_player_register_safe_spot: near

.segment	"ROM06"

;
; safe_prx = prx; safe_pry = pry;
;
	lda     _prx
	sta     _safe_prx
	lda     _pry
	sta     _safe_pry
;
; safe_n_pant = n_pant; safe_level = level;
;
	lda     _n_pant
	sta     _safe_n_pant
	lda     _level
	sta     _safe_level
;
; }
;
	rts

.endproc

; ---------------------------------------------------------------
; void __near__ player_restore_safe_spot (void)
; ---------------------------------------------------------------

.segment	"ROM06"

.proc	_player_restore_safe_spot: near

.segment	"ROM06"

;
; prx = safe_prx; px = prx << FIX_BITS;
;
	lda     _safe_prx
	sta     _prx
	ldx     #$00
	lda     _prx
	jsr     aslax4
	sta     _px
	stx     _px+1
;
; pry = safe_pry; py = pry << FIX_BITS;   
;
	lda     _safe_pry
	sta     _pry
	ldx     #$00
	lda     _pry
	jsr     aslax4
	sta     _py
	stx     _py+1
;
; n_pant = safe_n_pant; level = safe_level;
;
	lda     _safe_n_pant
	sta     _n_pant
	lda     _safe_level
	sta     _level
;
; }
;
	rts

.endproc

; ---------------------------------------------------------------
; void __near__ player_init (void)
; ---------------------------------------------------------------

.segment	"ROM06"

.proc	_player_init: near

.segment	"ROM06"

;
; if (pcontinues) {
;
	lda     _pcontinues
	beq     L5763
;
; prx = (10 << 4); px = prx << FIX_BITS;
;
	lda     #$A0
	sta     _prx
	ldx     #$00
	lda     _prx
	jsr     aslax4
	sta     _px
	stx     _px+1
;
; pry = (4 << 4); py = pry << FIX_BITS;
;
	lda     #$40
;
; } else {
;
	jmp     L6667
;
; prx = (4 << 4); px = prx << FIX_BITS;
;
L5763:	lda     #$40
	sta     _prx
	ldx     #$00
	lda     _prx
	jsr     aslax4
	sta     _px
	stx     _px+1
;
; pry = (6 << 4); py = pry << FIX_BITS;
;
	lda     #$60
L6667:	sta     _pry
	ldx     #$00
	lda     _pry
	jsr     aslax4
	sta     _py
	stx     _py+1
;
; pfacing = pfr = 0;
;
	lda     #$00
	sta     _pfr
	sta     _pfacing
;
; player_register_safe_spot ();
;
	jsr     _player_register_safe_spot
;
; player_reset_movement ();
;
	jsr     _player_reset_movement
;
; use_ct = 0;
;
	lda     #$00
	sta     _use_ct
;
; pinv = 0xff;
;
	lda     #$FF
	sta     _pinv
;
; pcharges = 0;
;
	lda     #$00
	sta     _pcharges
;
; plife = 3;
;
	lda     #$03
	sta     _plife
;
; pvmax = PLAYER_VX_MAX;
;
	lda     #$20
	sta     _pvmax
;
; ppodewwwr = 0;
;
	lda     #$00
	sta     _ppodewwwr
;
; }
;
	rts

.endproc

; ---------------------------------------------------------------
; void __near__ player_collision_vertical (void)
; ---------------------------------------------------------------

.segment	"ROM06"

.proc	_player_collision_vertical: near

.segment	"ROM06"

;
; cyaux = cy1 < 32 ? 0 : cy1 - 32;
;
	lda     _cy1
	cmp     #$20
	bcs     L666C
	lda     #$00
	jmp     L666D
L666C:	lda     _cy1
	sec
	sbc     #$20
L666D:	sta     _cyaux
;
; at1 = *(scr_buffer_ptr + cyaux + cx1);
;
	lda     _scr_buffer_ptr
	ldx     _scr_buffer_ptr+1
	clc
	adc     _cyaux
	bcc     L6668
	inx
L6668:	ldy     _cx1
	sta     ptr1
	stx     ptr1+1
	lda     (ptr1),y
	sta     _at1
;
; if (cx2 > 15) {
;
	lda     _cx2
	cmp     #$10
	bcc     L5796
;
; cx2 -= 16;
;
	sec
	sbc     #$10
	sta     _cx2
;
; gp_aux = scr_buffer + ((n_pant & 1) ? 0 : 192);
;
	lda     _n_pant
	and     #$01
	beq     L666E
	lda     #$00
	jmp     L57A0
L666E:	lda     #$C0
L57A0:	clc
	adc     #<(_scr_buffer)
	sta     _gp_aux
	lda     #$00
	adc     #>(_scr_buffer)
;
; } else {
;
	jmp     L666F
;
; gp_aux = scr_buffer_ptr;
;
L5796:	lda     _scr_buffer_ptr
	sta     _gp_aux
	lda     _scr_buffer_ptr+1
L666F:	sta     _gp_aux+1
;
; at2 = *(gp_aux + cyaux + cx2);
;
	lda     _gp_aux
	ldx     _gp_aux+1
	clc
	adc     _cyaux
	bcc     L666A
	inx
L666A:	ldy     _cx2
	sta     ptr1
	stx     ptr1+1
	lda     (ptr1),y
	sta     _at2
;
; }
;
	rts

.endproc

; ---------------------------------------------------------------
; void __near__ player_collision_horizontal (void)
; ---------------------------------------------------------------

.segment	"ROM06"

.proc	_player_collision_horizontal: near

.segment	"ROM06"

;
; if (cx1 > 15) {
;
	lda     _cx1
	cmp     #$10
	bcc     L57A9
;
; cx1 -= 16;
;
	sec
	sbc     #$10
	sta     _cx1
;
; gp_aux = scr_buffer + ((n_pant & 1) ? 0 : 192);
;
	lda     _n_pant
	and     #$01
	beq     L6674
	lda     #$00
	jmp     L57B3
L6674:	lda     #$C0
L57B3:	clc
	adc     #<(_scr_buffer)
	sta     _gp_aux
	lda     #$00
	adc     #>(_scr_buffer)
;
; } else {
;
	jmp     L6679
;
; gp_aux = scr_buffer_ptr;
;
L57A9:	lda     _scr_buffer_ptr
	sta     _gp_aux
	lda     _scr_buffer_ptr+1
L6679:	sta     _gp_aux+1
;
; cyaux = cy1 < 32 ? 0 : cy1 - 32; 
;
	lda     _cy1
	cmp     #$20
	bcs     L6675
	lda     #$00
	jmp     L6676
L6675:	lda     _cy1
	sec
	sbc     #$20
L6676:	sta     _cyaux
;
; at1 = *(gp_aux + cyaux + cx1);
;
	lda     _gp_aux
	ldx     _gp_aux+1
	clc
	adc     _cyaux
	bcc     L6670
	inx
L6670:	ldy     _cx1
	sta     ptr1
	stx     ptr1+1
	lda     (ptr1),y
	sta     _at1
;
; cyaux = cy2 < 32 ? 0 : cy2 - 32; 
;
	lda     _cy2
	cmp     #$20
	bcs     L6677
	lda     #$00
	jmp     L6678
L6677:	lda     _cy2
	sec
	sbc     #$20
L6678:	sta     _cyaux
;
; at2 = *(gp_aux + cyaux + cx1);
;
	lda     _gp_aux
	ldx     _gp_aux+1
	clc
	adc     _cyaux
	bcc     L6672
	inx
L6672:	ldy     _cx1
	sta     ptr1
	stx     ptr1+1
	lda     (ptr1),y
	sta     _at2
;
; }
;
	rts

.endproc

; ---------------------------------------------------------------
; void __near__ player_move (void)
; ---------------------------------------------------------------

.segment	"ROM06"

.proc	_player_move: near

.segment	"ROM06"

;
; if (pflickers) pflickers --;
;
	lda     _pflickers
	beq     L57CD
	sec
	sbc     #$01
	sta     _pflickers
;
; pad = 0;
;
L57CD:	lda     #$00
	sta     _pad
;
; if (guay_ct) {
;
	lda     _guay_ct
	beq     L57D2
;
; guay_ct --;
;
	sec
	sbc     #$01
	sta     _guay_ct
;
; if (guay_ct == 0 && !ppodewwwr) pflickers = ticks;
;
	lda     _guay_ct
	jne     L6692
	lda     _ppodewwwr
	jne     L6692
	lda     _ticks
	sta     _pflickers
;
; } else if (tt_ct) {
;
	jmp     L6692
L57D2:	lda     _tt_ct
	jeq     L57DC
;
; if (fr_ct) fr_ct --; else {
;
	lda     _fr_ct
	beq     L668C
	sec
	sbc     #$01
	sta     _fr_ct
	jmp     L6692
;
; if (0xff != (rda = tt_anim [tt_ct ++])) {
;
L668C:	lda     #$FF
	jsr     pusha0
	lda     _tt_ct
	sta     ptr1
	clc
	adc     #$01
	sta     _tt_ct
	lda     #$00
	clc
	adc     #>(_tt_anim)
	sta     ptr1+1
	ldy     #<(_tt_anim)
	lda     (ptr1),y
	sta     _rda
	jsr     tosicmp0
	beq     L57E2
;
; if (0 == (fr_ct = rda & 0x0f)) fr_ct = 20;
;
	jsr     push0
	lda     _rda
	and     #$0F
	sta     _fr_ct
	jsr     tosicmp0
	bne     L57E7
	lda     #$14
	sta     _fr_ct
;
; pfr = PCELL_TELEPORT + (rda >> 4);
;
L57E7:	lda     _rda
	lsr     a
	lsr     a
	lsr     a
	lsr     a
	clc
	adc     #$36
	sta     _pfr
;
; if ((rand8 () & 3) == 0) {
;
	jsr     _rand8
	and     #$03
	jne     L6692
;
; sfx_play (SFX_FLASH, SC_LEVEL);
;
	lda     #$01
	jsr     pusha
	jsr     _sfx_play
;
; fx_flash (mypal_reds);
;
	lda     #<(_mypal_reds)
	ldx     #>(_mypal_reds)
	jsr     _fx_flash
;
; } else {
;
	jmp     L6692
;
; fx_flash (c_pal_bg);
;
L57E2:	lda     _c_pal_bg
	ldx     _c_pal_bg+1
	jsr     _fx_flash
;
; psignal = PLAYER_TELEPORT;
;
	lda     #$06
	sta     _psignal
;
; } else if (use_ct) {
;
	jmp     L6692
L57DC:	lda     _use_ct
	jeq     L6691
;
; pfr = PCELL_USE_ANIM_BASE + use_ct;
;
	clc
	adc     #$08
	sta     _pfr
;
; if (fr_ct) fr_ct --; else {
;
	lda     _fr_ct
	beq     L668D
	sec
	sbc     #$01
	sta     _fr_ct
	jmp     L6692
;
; use_ct ++;
;
L668D:	lda     _use_ct
	clc
	adc     #$01
	sta     _use_ct
;
; if (use_ct == 7) {
;
	cmp     #$07
	bne     L668E
;
; sfx_play (SFX_GET, SC_LEVEL);
;
	lda     #$03
	jsr     pusha
	lda     #$01
	jsr     _sfx_play
;
; hrt [h_modify_this] = pinv | 0x10;
;
	lda     #<(_hrt)
	ldx     #>(_hrt)
	clc
	adc     _h_modify_this
	bcc     L5811
	inx
L5811:	sta     ptr1
	stx     ptr1+1
	lda     _pinv
	ora     #$10
	ldy     #$00
	sta     (ptr1),y
;
; pinv = 0xff;
;
	lda     #$FF
	sta     _pinv
;
; if (gs_this_flag < 3) {
;
	lda     _gs_this_flag
	cmp     #$03
	bcs     L668E
;
; stage = 1 + gs_this_flag;
;
	clc
	adc     #$01
	sta     _stage
;
; c_pal_bg = c_pal_bgs [stage];
;
	ldx     #$00
	lda     _stage
	asl     a
	bcc     L6688
	inx
	clc
L6688:	adc     #<(_c_pal_bgs)
	sta     ptr1
	txa
	adc     #>(_c_pal_bgs)
	sta     ptr1+1
	iny
	lda     (ptr1),y
	tax
	dey
	lda     (ptr1),y
	sta     _c_pal_bg
	stx     _c_pal_bg+1
;
; pal_bg (c_pal_bg);
;
	jsr     _pal_bg
;
; if (use_ct == 15) {
;
L668E:	lda     _use_ct
	cmp     #$0F
	bne     L668F
;
; sfx_play (SFX_USE, SC_LEVEL);
;
	lda     #$02
	jsr     pusha
	lda     #$01
	jsr     _sfx_play
;
; gs_flags [gs_this_flag] = 1;
;
	ldy     _gs_this_flag
	lda     #$01
	sta     _gs_flags,y
;
; if (gs_this_flag < 3) {
;
	lda     _gs_this_flag
	cmp     #$03
	bcs     L668F
;
; psignal = PLAYER_CUTSCENE;
;
	lda     #$07
	sta     _psignal
;
; if (use_ct == 18) {
;
L668F:	lda     _use_ct
	cmp     #$12
	bne     L6690
;
; gs_flags [gs_this_flag] = 2;
;
	ldy     _gs_this_flag
	lda     #$02
	sta     _gs_flags,y
;
; use_ct = 0;
;
	lda     #$00
	sta     _use_ct
;
; fr_ct = 8;
;
L6690:	lda     #$08
	sta     _fr_ct
;
; } else pad = pad0;
;
	jmp     L6692
L6691:	lda     _pad0
	sta     _pad
;
; pcrx = prx; pcry = pry;
;
L6692:	lda     _prx
	sta     _pcrx
	lda     _pry
	sta     _pcry
;
; if (ppodewwwr) {
;
	lda     _ppodewwwr
	jeq     L669F
;
; ppodewwwr --;
;
	sec
	sbc     #$01
	sta     _ppodewwwr
;
; if (0 == ppodewwwr || 
;
	lda     _ppodewwwr
	beq     L6698
;
; (ppodewwwr < 220 && ((pad & (PAD_UP | PAD_B)) == (PAD_UP | PAD_B)))
;
	cmp     #$DC
	bcs     L6699
	lda     _pad
	and     #$12
	cmp     #$12
	bne     L6699
;
; sfx_play (SFX_OFF, SC_PLAYER);
;
L6698:	lda     #$06
	jsr     pusha
	lda     #$00
	jsr     _sfx_play
;
; pvmax = PLAYER_VX_MAX;
;
	lda     #$20
	sta     _pvmax
;
; c_pal_fg = mypal_game_fg0;
;
	lda     #<(_mypal_game_fg0)
	sta     _c_pal_fg
	lda     #>(_mypal_game_fg0)
	sta     _c_pal_fg+1
;
; fx_flash (c_pal_bg);
;
	lda     _c_pal_bg
	ldx     _c_pal_bg+1
	jsr     _fx_flash
;
; pflickers = ticks;
;
	lda     _ticks
	sta     _pflickers
;
; ppodewwwr = 0;
;
	lda     #$00
	sta     _ppodewwwr
;
; if (pad & PAD_UP) {
;
L6699:	lda     _pad
	and     #$10
	beq     L669A
;
; if (pvy > -pvmax) pvy -= PLAYER_AX;
;
	ldx     #$00
	lda     _pvy
	bpl     L585C
	dex
L585C:	jsr     pushax
	ldx     #$00
	lda     _pvmax
	bpl     L585D
	dex
L585D:	jsr     negax
	jsr     tosicmp
	jmi     L58AF
	jeq     L58AF
	lda     _pvy
	sec
	sbc     #$03
	sta     _pvy
	jpl     L58AF
;
; } else if (pad & PAD_DOWN) {
;
	jmp     L58AF
L669A:	lda     _pad
	and     #$20
	beq     L669B
;
; if (pvy < pvmax) pvy += PLAYER_AX;
;
	ldx     #$00
	lda     _pvy
	bpl     L5866
	dex
L5866:	jsr     pushax
	ldx     #$00
	lda     _pvmax
	bpl     L5867
	dex
L5867:	jsr     tosicmp
	jpl     L58AF
	lda     #$03
	clc
	adc     _pvy
	sta     _pvy
	jpl     L58AF
;
; } else {
;
	jmp     L58AF
;
; if (pvy > 0) {
;
L669B:	lda     _pvy
	sec
	sbc     #$01
	bvs     L586F
	eor     #$80
L586F:	bpl     L669D
;
; pvy -= PLAYER_RX; if (pvy < 0) pvy = 0;
;
	lda     _pvy
	sec
	sbc     #$04
	sta     _pvy
	asl     a
	jcc     L58AF
	lda     #$00
;
; } else if (pvx < 0) {
;
	jmp     L6680
L669D:	lda     _pvx
	asl     a
	ldx     #$00
	jcc     L66A2
;
; pvy += PLAYER_RX; if (pvy > 0) pvy = 0;
;
	lda     #$04
	clc
	adc     _pvy
	sta     _pvy
	sec
	sbc     #$01
	bvs     L5882
	eor     #$80
L5882:	jpl     L66A2
	txa
;
; } else {
;
	jmp     L6680
;
; if ((pad & (PAD_UP | PAD_B)) == (PAD_UP | PAD_B)) {
;
L669F:	lda     _pad
	and     #$12
	cmp     #$12
	bne     L589D
;
; if (pcharges) {
;
	lda     _pcharges
	beq     L66A0
;
; if (pflickers == 0) {
;
	lda     _pflickers
	bne     L589D
;
; pcharges --;
;
	lda     _pcharges
	sec
	sbc     #$01
	sta     _pcharges
;
; ppodewwwr = 250;
;
	lda     #$FA
	sta     _ppodewwwr
;
; pvmax = PLAYER_VX_MAX_PODEWWWR;
;
	lda     #$30
	sta     _pvmax
;
; c_pal_fg = mypal_game_fg1;
;
	lda     #<(_mypal_game_fg1)
	sta     _c_pal_fg
	lda     #>(_mypal_game_fg1)
	sta     _c_pal_fg+1
;
; fx_flash (c_pal_bg);
;
	lda     _c_pal_bg
	ldx     _c_pal_bg+1
	jsr     _fx_flash
;
; sfx_play (SFX_FLY, SC_PLAYER);
;
	lda     #$10
;
; } else if (no_ct == 0) {
;
	jmp     L66E1
L66A0:	lda     _no_ct
	bne     L589D
;
; no_ct = ticks;
;
	lda     _ticks
	sta     _no_ct
;
; sfx_play (SFX_NO, SC_PLAYER);
;
	lda     #$0D
L66E1:	jsr     pusha
	lda     #$00
	jsr     _sfx_play
;
; if (!pgotten) {
;
L589D:	lda     _pgotten
	bne     L58AF
;
; if (!pj) pvy += PLAYER_G; else pvy += PLAYER_G_JUMPING;
;
	lda     _pj
	bne     L58A6
	lda     #$04
	clc
	adc     _pvy
	sta     _pvy
	bpl     L66A1
	jmp     L66A1
L58A6:	inc     _pvy
;
; if (pvy > PLAYER_VY_FALLING_MAX) pvy = PLAYER_VY_FALLING_MAX;
;
L66A1:	lda     _pvy
	sec
	sbc     #$41
	bvs     L58B2
	eor     #$80
L58B2:	asl     a
	ldx     #$00
	bcc     L66A2
	lda     #$40
L6680:	sta     _pvy
;
; py = py + pvy;
;
L58AF:	ldx     #$00
L66A2:	lda     _pvy
	bpl     L58B7
	dex
L58B7:	clc
	adc     _py
	sta     _py
	txa
	adc     _py+1
	tax
	stx     _py+1
;
; if (py < 0) { if (level) { game_res = PLAYER_EXIT_TOP; return; } else py = 0; }
;
	cpx     #$80
	bcc     L58BE
	lda     _level
	beq     L66A4
	lda     #$01
	sta     _game_res
	rts
L66A4:	sta     _py
	sta     _py+1
;
; if (py > (208 << FIX_BITS)) { game_res = PLAYER_EXIT_BOTTOM; return; }
;
L58BE:	lda     _py
	cmp     #$01
	lda     _py+1
	sbc     #$0D
	bvs     L58C4
	eor     #$80
L58C4:	bpl     L58C1
	lda     #$02
	sta     _game_res
	rts
;
; pry = py >> FIX_BITS;
;
L58C1:	lda     _py
	ldx     _py+1
	jsr     asrax4
	sta     _pry
;
; cx1 = prx >> 4;
;
	lda     _prx
	lsr     a
	lsr     a
	lsr     a
	lsr     a
	sta     _cx1
;
; cx2 = (prx + 7) >> 4;
;
	ldx     #$00
	lda     _prx
	clc
	adc     #$07
	bcc     L58CE
	inx
L58CE:	jsr     shrax4
	sta     _cx2
;
; if (pvy + pgtmy < 0) {
;
	ldx     #$00
	lda     _pvy
	bpl     L58D1
	dex
L58D1:	sta     ptr1
	stx     ptr1+1
	ldx     #$00
	lda     _pgtmy
	bpl     L58D2
	dex
L58D2:	clc
	adc     ptr1
	txa
	adc     ptr1+1
	tax
	cpx     #$80
	ldx     #$00
	bcc     L66A8
;
; cy1 = pry & 0xf0;
;
	lda     _pry
	and     #$F0
	sta     _cy1
;
; player_collision_vertical ();
;
	jsr     _player_collision_vertical
;
; if ((at1 & 8) || (at2 & 8)) {
;
	lda     _at1
	and     #$08
	bne     L66A5
	lda     _at2
	and     #$08
	beq     L66A6
;
; pgotten = pvy = 0;
;
L66A5:	lda     #$00
	sta     _pvy
	sta     _pgotten
;
; pry = cy1 + 16;
;
	lda     _cy1
	clc
	adc     #$10
	sta     _pry
;
; py = pry << FIX_BITS;
;
	ldx     #$00
	lda     _pry
	jsr     aslax4
	sta     _py
	stx     _py+1
;
; } else if ((at1 & 2) || (at2 & 2)) {
;
	jmp     L66B1
L66A6:	lda     _at1
	and     #$02
	bne     L66A7
	lda     _at2
	and     #$02
	jeq     L66B1
;
; if (pctj > 2) pj = 0;
;
L66A7:	lda     _pctj
	cmp     #$03
	jcc     L66B1
	lda     #$00
	sta     _pj
;
; } else if (pvy + pgtmy > 0) {
;
	jmp     L66B1
L66A8:	lda     _pvy
	bpl     L58F0
	dex
L58F0:	sta     ptr1
	stx     ptr1+1
	ldx     #$00
	lda     _pgtmy
	bpl     L58F1
	dex
L58F1:	clc
	adc     ptr1
	pha
	txa
	adc     ptr1+1
	tax
	pla
	cmp     #$01
	txa
	sbc     #$00
	bvs     L58F2
	eor     #$80
L58F2:	bpl     L66B1
;
; cy1 = (pry + 15) & 0xf0;
;
	lda     _pry
	clc
	adc     #$0F
	and     #$F0
	sta     _cy1
;
; player_collision_vertical ();
;
	jsr     _player_collision_vertical
;
; if (((pry - 1) & 15) < 4 && ((at1 & 12) || (at2 & 12))) {
;
	lda     _pry
	sec
	sbc     #$01
	and     #$0F
	cmp     #$04
	bcs     L66AF
	lda     _at1
	and     #$0C
	bne     L66AE
	lda     _at2
	and     #$0C
	beq     L66AF
;
; pgotten = pvy = 0;
;
L66AE:	lda     #$00
	sta     _pvy
	sta     _pgotten
;
; pry = cy1 - 16;
;
	lda     _cy1
	sec
	sbc     #$10
	sta     _pry
;
; py = pry << FIX_BITS;
;
	ldx     #$00
	lda     _pry
	jsr     aslax4
	sta     _py
	stx     _py+1
;
; } else if ((at1 & 2) || (at2 & 2)) {
;
	jmp     L66B1
L66AF:	lda     _at1
	and     #$02
	bne     L66B0
	lda     _at2
	and     #$02
	beq     L66B1
;
; pvy = PLAYER_VY_SINK;
;
L66B0:	lda     #$02
	sta     _pvy
;
; cy1 = (pry + 16) & 0xf0;
;
L66B1:	lda     _pry
	clc
	adc     #$10
	and     #$F0
	sta     _cy1
;
; player_collision_vertical ();
;
	jsr     _player_collision_vertical
;
; ppossee = ((pry & 0xf) == 0) && ((at1 & 12) || (at2 & 12));
;
	lda     _pry
	and     #$0F
	bne     L66B3
	lda     _at1
	and     #$0C
	bne     L66B2
	lda     _at2
	and     #$0C
	beq     L66B6
L66B2:	lda     #$01
	jmp     L66B6
L66B3:	lda     #$00
L66B6:	sta     _ppossee
;
; if (0 == ppodewwwr) {
;
	lda     _ppodewwwr
	bne     L66BB
;
; if (pad & PAD_A) {
;
	lda     _pad
	and     #$01
	beq     L66B9
;
; if (!pjb) {
;
	lda     _pjb
	bne     L593A
;
; pjb = 1;
;
	lda     #$01
	sta     _pjb
;
; if (!pj) {
;
	lda     _pj
	bne     L593A
;
; if (pgotten || ppossee) {
;
	lda     _pgotten
	bne     L66B7
	lda     _ppossee
	beq     L593A
;
; pj = 1; pctj = 0; 
;
L66B7:	lda     #$01
	sta     _pj
	lda     #$00
	sta     _pctj
;
; pvy = -PLAYER_VY_JUMP_INITIAL;
;
	lda     #$CC
	sta     _pvy
;
; sfx_play (SFX_JUMP, SC_PLAYER);
;
	lda     #$07
	jsr     pusha
	lda     #$00
	jsr     _sfx_play
;
; if (ppossee) player_register_safe_spot ();
;
	lda     _ppossee
	beq     L593A
	jsr     _player_register_safe_spot
;
; if (pj) {
;
L593A:	lda     _pj
	beq     L66BB
;
; pctj ++; if (pctj == PLAYER_VY_JUMP_A_STEPS) pj = 0;
;
	lda     _pctj
	clc
	adc     #$01
	sta     _pctj
	cmp     #$10
	bne     L66BB
;
; } else {
;
	jmp     L66DC
;
; pjb = 0;
;
L66B9:	sta     _pjb
;
; if (pj) {
;
	lda     _pj
	beq     L66BB
;
; if (pvy < -PLAYER_VY_JUMP_RELEASE) pvy = -PLAYER_VY_JUMP_RELEASE;
;
	lda     _pvy
	sec
	sbc     #$E8
	bvc     L594C
	eor     #$80
L594C:	asl     a
	lda     #$00
	bcc     L6683
	lda     #$E8
	sta     _pvy
;
; pj = 0;
;
L66DC:	lda     #$00
L6683:	sta     _pj
;
; if (pad & PAD_LEFT) {
;
L66BB:	lda     _pad
	and     #$40
	beq     L66BC
;
; pfacing = PFACING_LEFT;
;
	lda     #$1B
	sta     _pfacing
;
; if (pvx > -pvmax) pvx -= PLAYER_AX;
;
	ldx     #$00
	lda     _pvx
	bpl     L5957
	dex
L5957:	jsr     pushax
	ldx     #$00
	lda     _pvmax
	bpl     L5958
	dex
L5958:	jsr     negax
	jsr     tosicmp
	jmi     L597C
	beq     L597C
	ldx     #$00
	lda     _pvx
	sec
	sbc     #$03
	sta     _pvx
	bpl     L66C1
;
; } else if (pad & PAD_RIGHT) {
;
	jmp     L66C1
L66BC:	lda     _pad
	and     #$80
	beq     L66BD
;
; pfacing = PFACING_RIGHT;
;
	lda     #$00
	sta     _pfacing
;
; if (pvx < pvmax) pvx += PLAYER_AX;
;
	tax
	lda     _pvx
	bpl     L5963
	dex
L5963:	jsr     pushax
	ldx     #$00
	lda     _pvmax
	bpl     L5964
	dex
L5964:	jsr     tosicmp
	bpl     L597C
	ldx     #$00
	lda     #$03
	clc
	adc     _pvx
	sta     _pvx
	bpl     L66C1
;
; } else {
;
	jmp     L66C1
;
; if (pvx > 0) {
;
L66BD:	lda     _pvx
	sec
	sbc     #$01
	bvs     L596C
	eor     #$80
L596C:	bpl     L66BF
;
; pvx -= PLAYER_RX; if (pvx < 0) pvx = 0;
;
	lda     _pvx
	sec
	sbc     #$04
	sta     _pvx
	asl     a
	ldx     #$00
	bcc     L66C1
;
; } else if (pvx < 0) {
;
	jmp     L66DD
L66BF:	lda     _pvx
	asl     a
	ldx     #$00
	bcc     L66C1
;
; pvx += PLAYER_RX; if (pvx > 0) pvx = 0;
;
	lda     #$04
	clc
	adc     _pvx
	sta     _pvx
	sec
	sbc     #$01
	bvs     L597F
	eor     #$80
L597F:	bpl     L66C1
L66DD:	stx     _pvx
;
; px += pvx;
;
L597C:	ldx     #$00
L66C1:	lda     _pvx
	cmp     #$80
	bcc     L6689
	dex
	clc
L6689:	adc     _px
	sta     _px
	txa
	adc     _px+1
	sta     _px+1
;
; if (px < 0) {
;
	ldx     _px+1
	cpx     #$80
	bcc     L5986
;
; px += (256 << FIX_BITS);
;
	lda     #$00
	clc
	adc     _px
	sta     _px
	lda     #$10
	adc     _px+1
	sta     _px+1
;
; n_pant --; SCR_BUFFER_PTR_UPD;
;
	lda     _n_pant
	sec
	sbc     #$01
;
; } else if (px >= (256 << FIX_BITS)) {
;
	jmp     L66EF
L5986:	lda     _px
	cmp     #$00
	lda     _px+1
	sbc     #$10
	bvs     L5998
	eor     #$80
L5998:	bpl     L5995
;
; px -= (256 << FIX_BITS);
;
	lda     _px
	sec
	sbc     #$00
	sta     _px
	lda     _px+1
	sbc     #$10
	sta     _px+1
;
; n_pant ++; SCR_BUFFER_PTR_UPD;
;
	lda     _n_pant
	clc
	adc     #$01
L66EF:	sta     _n_pant
	and     #$01
	beq     L59A3
	lda     #$C0
L59A3:	clc
	adc     #<(_scr_buffer)
	sta     _scr_buffer_ptr
	lda     #$00
	adc     #>(_scr_buffer)
	sta     _scr_buffer_ptr+1
;
; prx = px >> FIX_BITS;
;
L5995:	lda     _px
	ldx     _px+1
	jsr     asrax4
	sta     _prx
;
; cy1 = pry & 0xf0;
;
	lda     _pry
	and     #$F0
	sta     _cy1
;
; cy2 = (pry + 15) & 0xf0;
;
	lda     _pry
	clc
	adc     #$0F
	and     #$F0
	sta     _cy2
;
; if (pvx + pgtmx < 0) {
;
	ldx     #$00
	lda     _pvx
	bpl     L59AF
	dex
L59AF:	sta     ptr1
	stx     ptr1+1
	ldx     #$00
	lda     _pgtmx
	bpl     L59B0
	dex
L59B0:	clc
	adc     ptr1
	txa
	adc     ptr1+1
	tax
	cpx     #$80
	ldx     #$00
	bcc     L66C6
;
; cx1 = prx >> 4;
;
	lda     _prx
	lsr     a
	lsr     a
	lsr     a
	lsr     a
	sta     _cx1
;
; player_collision_horizontal ();
;
	jsr     _player_collision_horizontal
;
; if ((at1 & 8) || (at2 & 8)) {
;
	lda     _at1
	and     #$08
	bne     L66C5
	lda     _at2
	and     #$08
	beq     L66C8
;
; pvx = 0;
;
L66C5:	lda     #$00
	sta     _pvx
;
; prx = (cx1 + 1) << 4;
;
	lda     _cx1
	clc
	adc     #$01
	asl     a
	asl     a
	asl     a
	asl     a
;
; } else if (pvx + pgtmx > 0) {
;
	jmp     L66EB
L66C6:	lda     _pvx
	bpl     L59C4
	dex
L59C4:	sta     ptr1
	stx     ptr1+1
	ldx     #$00
	lda     _pgtmx
	bpl     L59C5
	dex
L59C5:	clc
	adc     ptr1
	pha
	txa
	adc     ptr1+1
	tax
	pla
	cmp     #$01
	txa
	sbc     #$00
	bvs     L59C6
	eor     #$80
L59C6:	bpl     L66C8
;
; cx1 = (prx + 7) >> 4;
;
	ldx     #$00
	lda     _prx
	clc
	adc     #$07
	bcc     L59CA
	inx
L59CA:	jsr     shrax4
	sta     _cx1
;
; player_collision_horizontal ();
;
	jsr     _player_collision_horizontal
;
; if ((at1 & 8) || (at2 & 8)) {
;
	lda     _at1
	and     #$08
	bne     L66C7
	lda     _at2
	and     #$08
	beq     L66C8
;
; pvx = 0;
;
L66C7:	lda     #$00
	sta     _pvx
;
; prx = ((cx1 - 1) << 4) + 8;
;
	lda     _cx1
	sec
	sbc     #$01
	asl     a
	asl     a
	asl     a
	asl     a
	clc
	adc     #$08
L66EB:	sta     _prx
;
; px = prx << FIX_BITS;
;
	ldx     #$00
	lda     _prx
	jsr     aslax4
	sta     _px
	stx     _px+1
;
; if (prx < 252) {// Safe. 
;
L66C8:	lda     _prx
	cmp     #$FC
	jcs     L5A19
;
; cx1 = (prx + 4) >> 4;
;
	ldx     #$00
	lda     _prx
	clc
	adc     #$04
	bcc     L59E0
	inx
L59E0:	jsr     shrax4
	sta     _cx1
;
; cy1 = (pry + 8) & 0xf0;
;
	lda     _pry
	clc
	adc     #$08
	and     #$F0
	sta     _cy1
;
; cyaux = (cy1 < 32 ? 0 : cy1 - 32);
;
	cmp     #$20
	bcs     L66C9
	lda     #$00
	jmp     L66CA
L66C9:	lda     _cy1
	sec
	sbc     #$20
L66CA:	sta     _cyaux
;
; at1 = *(scr_buffer_ptr + cyaux + cx1);
;
	lda     _scr_buffer_ptr
	ldx     _scr_buffer_ptr+1
	clc
	adc     _cyaux
	bcc     L667A
	inx
L667A:	ldy     _cx1
	sta     ptr1
	stx     ptr1+1
	lda     (ptr1),y
	sta     _at1
;
; if (at1 & 3) {
;
	and     #$03
	jeq     L5A19
;
; if (pflickers || ppodewwwr) {
;
	lda     _pflickers
	bne     L66CB
	lda     _ppodewwwr
	beq     L59F2
;
; if (at1 & 1) {
;
L66CB:	lda     _at1
	and     #$01
	beq     L66CC
;
; pry = pcry; py = pry << FIX_BITS;
;
	lda     _pcry
	sta     _pry
	ldx     #$00
	lda     _pry
	jsr     aslax4
	sta     _py
	stx     _py+1
;
; pvy = -PLAYER_V_REBOUND;
;
	lda     #$C8
	sta     _pvy
;
; } else {
;
	jmp     L5A19
;
; prx = pcrx; px = prx << FIX_BITS;
;
L66CC:	lda     _pcrx
	sta     _prx
	ldx     #$00
	lda     _prx
	jsr     aslax4
	sta     _px
	stx     _px+1
;
; pvx = ADD_SIGN (-pvx, PLAYER_V_REBOUND);
;
	ldx     #$00
	lda     _pvx
	bpl     L5A06
	dex
L5A06:	jsr     negax
	stx     tmp1
	ora     tmp1
	beq     L66CD
	lda     _pvx
	eor     #$FF
	clc
	adc     #$01
	sec
	sbc     #$01
	bvs     L5A0D
	eor     #$80
L5A0D:	bpl     L5A0E
	lda     #$38
	jmp     L66CD
L5A0E:	lda     #$C8
L66CD:	cmp     #$80
	sta     _pvx
;
; } else {
;
	jmp     L5A19
;
; sfx_play (SFX_LAVA, SC_PLAYER);
;
L59F2:	lda     #$0E
	jsr     pusha
	lda     #$00
	jsr     _sfx_play
;
; psignal = PLAYER_KILLED;
;
	lda     #$05
	sta     _psignal
;
; if (tt_ct || use_ct) {
;
L5A19:	lda     _tt_ct
	jne     L66E0
	lda     _use_ct
	jne     L66E0
;
; if (ppodewwwr) {
;
	lda     _ppodewwwr
	beq     L5A23
;
; if (guay_ct) 
;
	lda     _guay_ct
	beq     L66CE
;
; pfr = PCELL_WIN_POSE;
;
	lda     #$19
;
; else 
;
	jmp     L6686
;
; pfr = PCELL_SUPERHERO + ((frame_counter >> 3) & 3);
;
L66CE:	lda     _frame_counter
	lsr     a
	lsr     a
	lsr     a
	and     #$03
	clc
	adc     #$05
;
; } else if ((ppossee || pgotten) && pvy >= 0) {
;
	jmp     L6686
L5A23:	lda     _ppossee
	bne     L66CF
	lda     _pgotten
	beq     L66D8
L66CF:	ldx     _pvy
	bmi     L66D8
;
; if (guay_ct) 
;
	lda     _guay_ct
	beq     L66D2
;
; pfr = PCELL_WIN_POSE;
;
	lda     #$19
;
; else if (ABS (pvx) > PLAYER_VX_MIN) {
;
	jmp     L6686
L66D2:	lda     _pvx
	asl     a
	ldx     #$00
	bcc     L66D4
	lda     _pvx
	eor     #$FF
	clc
	adc     #$01
L66D3:	cmp     #$80
	bcc     L5A45
	jmp     L6687
L66D4:	lda     _pvx
	cmp     #$80
	bcc     L66D3
L6687:	dex
L5A45:	cmp     #$0D
	txa
	sbc     #$00
	bvs     L5A4C
	eor     #$80
L5A4C:	asl     a
	lda     #$00
	bcc     L6686
;
; pfr = PCELL_WALK_BASE + ((prx >> 4) & 3);
;
	lda     _prx
	lsr     a
	lsr     a
	lsr     a
	lsr     a
	and     #$03
	clc
	adc     #$01
;
; } else pfr = PCELL_STANDING;
;
	jmp     L6686
;
; pfr = PCELL_AIRBORNE;
;
L66D8:	lda     #$1A
L6686:	sta     _pfr
;
; pfr += pfacing;
;
	lda     _pfacing
	clc
	adc     _pfr
	sta     _pfr
;
; px_world = (n_pant << 8) | prx;
;
L66E0:	lda     _prx
	sta     _px_world
	lda     _n_pant
	sta     _px_world+1
;
; pgtmx = pgtmy = pgotten = 0;
;
	lda     #$00
	sta     _pgotten
	sta     _pgtmy
	sta     _pgtmx
;
; }
;
	rts

.endproc

; ---------------------------------------------------------------
; void __near__ player_render (void)
; ---------------------------------------------------------------

.segment	"ROM06"

.proc	_player_render: near

.segment	"ROM06"

;
; rdx = px_world - cam_pos;
;
	lda     _px_world
	sec
	sbc     _cam_pos
	sta     _rdx
	lda     _px_world+1
	sbc     _cam_pos+1
;
; rdy = SPRITE_ADJUST + pry;
;
	lda     _pry
	clc
	adc     #$03
	sta     _rdy
;
; if (half_life || !pflickers) oam_meta_spr (
;
	lda     _half_life
	bne     L66F3
	lda     _pflickers
	bne     L5A67
;
; rdx, rdy,
;
L66F3:	jsr     decsp3
	lda     _rdx
	ldy     #$02
	sta     (sp),y
	lda     _rdy
	dey
	sta     (sp),y
;
; 4,
;
	lda     #$04
	dey
	sta     (sp),y
;
; spr_pl [pfr]); 
;
	ldx     #$00
	lda     _pfr
	asl     a
	bcc     L66F2
	inx
	clc
L66F2:	adc     #<(_spr_pl)
	sta     ptr1
	txa
	adc     #>(_spr_pl)
	sta     ptr1+1
	iny
	lda     (ptr1),y
	tax
	dey
	lda     (ptr1),y
;
; else oam_meta_spr (
;
	jmp     L66F1
;
; rdx, rdy,
;
L5A67:	jsr     decsp3
	lda     _rdx
	ldy     #$02
	sta     (sp),y
	lda     _rdy
	dey
	sta     (sp),y
;
; 4,
;
	lda     #$04
	dey
	sta     (sp),y
;
; spr_empty);
;
	lda     #<(_spr_empty)
	ldx     #>(_spr_empty)
L66F1:	jsr     _oam_meta_spr
;
; if (no_ct) {
;
	lda     _no_ct
	beq     L5A76
;
; no_ct --;
;
	sec
	sbc     #$01
	sta     _no_ct
;
; rdx + 2, rdy - 24,
;
	jsr     decsp3
	lda     _rdx
	clc
	adc     #$02
	ldy     #$02
	sta     (sp),y
	lda     _rdy
	sec
	sbc     #$18
	dey
	sta     (sp),y
;
; oam_index,
;
	lda     _oam_index
	dey
	sta     (sp),y
;
; );
;
	lda     _spr_en+80
	ldx     _spr_en+80+1
	jsr     _oam_meta_spr
	sta     _oam_index
;
; }
;
L5A76:	rts

.endproc

; ---------------------------------------------------------------
; void __near__ enems_load (void)
; ---------------------------------------------------------------

.segment	"ROM07"

.proc	_enems_load: near

.segment	"ROM07"

;
; gpit = (rdpant & 1) ? 3 : 0; gpjt = 3 + gpit;
;
	lda     _rdpant
	and     #$01
	beq     L66FC
	lda     #$03
L66FC:	sta     _gpit
	clc
	adc     #$03
	sta     _gpjt
;
; rda = rdpant + base_pant;
;
	lda     _rdpant
	clc
	adc     _base_pant
	sta     _rda
;
; enidx = (rda << 1) + rda;
;
	asl     a
	clc
	adc     _rda
	sta     _enidx
;
; for (; gpit < gpjt; gpit ++) {
;
L66FD:	lda     _gpit
	cmp     _gpjt
	jcs     L6703
;
; en_p [gpit] = rdpant;
;
	ldy     _gpit
	lda     _rdpant
	sta     _en_p,y
;
; __asm__ ("ldy %v", enidx);
;
	ldy     _enidx
;
; __asm__ ("lda (%v), y", c_enems_t);
;
	lda     (_c_enems_t),y
;
; __asm__ ("sta %v", rda);
;
	sta     _rda
;
; __asm__ ("lda (%v), y", c_enems_yx1);
;
	lda     (_c_enems_yx1),y
;
; __asm__ ("sta %v", rdb);
;
	sta     _rdb
;
; __asm__ ("lda (%v), y", c_enems_yx2);
;
	lda     (_c_enems_yx2),y
;
; __asm__ ("sta %v", rdc);
;
	sta     _rdc
;
; __asm__ ("lda (%v), y", c_enems_mn);
;
	lda     (_c_enems_mn),y
;
; __asm__ ("sta %v", rdd);
;
	sta     _rdd
;
; enidx ++; 
;
	lda     _enidx
	clc
	adc     #$01
	sta     _enidx
;
; en_t [gpit] = rda; rdt = rda & 0xf0;
;
	ldy     _gpit
	lda     _rda
	sta     _en_t,y
	lda     _rda
	and     #$F0
	sta     _rdt
;
; en_s [gpit] = (rda & 0xf) << 3;
;
	lda     #<(_en_s)
	ldx     #>(_en_s)
	clc
	adc     _gpit
	bcc     L5AB9
	inx
L5AB9:	sta     ptr1
	stx     ptr1+1
	lda     _rda
	and     #$0F
	asl     a
	asl     a
	asl     a
	ldy     #$00
	sta     (ptr1),y
;
; en_x [gpit] = en_x1 [gpit] = rdb << 4;
;
	lda     #<(_en_x)
	ldx     #>(_en_x)
	clc
	adc     _gpit
	bcc     L5ABE
	inx
L5ABE:	jsr     pushax
	lda     #<(_en_x1)
	ldx     #>(_en_x1)
	clc
	adc     _gpit
	bcc     L5AC1
	inx
L5AC1:	sta     ptr1
	stx     ptr1+1
	lda     _rdb
	asl     a
	asl     a
	asl     a
	asl     a
	ldy     #$00
	sta     (ptr1),y
	jsr     staspidx
;
; en_y [gpit] = en_y1 [gpit] = rdb & 0xf0;
;
	lda     #<(_en_y)
	ldx     #>(_en_y)
	clc
	adc     _gpit
	bcc     L5AC5
	inx
L5AC5:	jsr     pushax
	lda     #<(_en_y1)
	ldx     #>(_en_y1)
	clc
	adc     _gpit
	bcc     L5AC8
	inx
L5AC8:	sta     ptr1
	stx     ptr1+1
	lda     _rdb
	and     #$F0
	ldy     #$00
	sta     (ptr1),y
	jsr     staspidx
;
; en_x2 [gpit] = rdc << 4;
;
	lda     #<(_en_x2)
	ldx     #>(_en_x2)
	clc
	adc     _gpit
	bcc     L5ACC
	inx
L5ACC:	sta     ptr1
	stx     ptr1+1
	lda     _rdc
	asl     a
	asl     a
	asl     a
	asl     a
	ldy     #$00
	sta     (ptr1),y
;
; en_y2 [gpit] = rdc & 0xf0;
;
	lda     #<(_en_y2)
	ldx     #>(_en_y2)
	clc
	adc     _gpit
	bcc     L5AD0
	inx
L5AD0:	sta     ptr1
	stx     ptr1+1
	lda     _rdc
	and     #$F0
	sta     (ptr1),y
;
; en_state [gpit] = 0;
;
	ldy     _gpit
	lda     #$00
	sta     _en_state,y
;
; switch (rdt) {
;
	lda     _rdt
;
; }
;
	cmp     #$10
	beq     L66FE
	cmp     #$20
	beq     L66FE
	cmp     #$30
	jeq     L5B27
	cmp     #$C0
	jeq     L5B30
	jmp     L6702
;
; if (rdd == 1) en_state [gpit] = 1; else rdd >>= 1;
;
L66FE:	lda     _rdd
	cmp     #$01
	bne     L66FF
	ldy     _gpit
	sta     _en_state,y
	jmp     L5AE3
L66FF:	lda     _rdd
	lsr     a
	sta     _rdd
;
; en_mx [gpit] = ADD_SIGN2 (en_x2 [gpit], en_x1 [gpit], rdd);
;
L5AE3:	lda     #<(_en_mx)
	ldx     #>(_en_mx)
	clc
	adc     _gpit
	bcc     L5AE8
	inx
L5AE8:	jsr     pushax
	ldy     _gpit
	ldx     #$00
	lda     _en_x2,y
	sta     ptr1
	stx     ptr1+1
	ldy     _gpit
	lda     _en_x1,y
	cpx     ptr1+1
	bne     L5AF1
	cmp     ptr1
	bne     L5AF1
	txa
	jmp     L6700
L5AF1:	ldy     _gpit
	lda     _en_x2,y
	jsr     pusha0
	ldy     _gpit
	lda     _en_x1,y
	jsr     tosicmp0
	bcc     L5AFE
	beq     L5AFE
	lda     _rdd
	jmp     L6700
L5AFE:	lda     _rdd
	eor     #$FF
	clc
	adc     #$01
L6700:	cmp     #$80
	ldy     #$00
	jsr     staspidx
;
; en_my [gpit] = ADD_SIGN2 (en_y2 [gpit], en_y1 [gpit], rdd);
;
	lda     #<(_en_my)
	ldx     #>(_en_my)
	clc
	adc     _gpit
	bcc     L5B08
	inx
L5B08:	jsr     pushax
	ldy     _gpit
	ldx     #$00
	lda     _en_y2,y
	sta     ptr1
	stx     ptr1+1
	ldy     _gpit
	lda     _en_y1,y
	cpx     ptr1+1
	bne     L5B11
	cmp     ptr1
	bne     L5B11
	txa
	jmp     L6701
L5B11:	ldy     _gpit
	lda     _en_y2,y
	jsr     pusha0
	ldy     _gpit
	lda     _en_y1,y
	jsr     tosicmp0
	bcc     L5B1E
	beq     L5B1E
	lda     _rdd
	jmp     L6701
L5B1E:	lda     _rdd
	eor     #$FF
	clc
	adc     #$01
L6701:	cmp     #$80
;
; break;
;
	jmp     L6704
;
; en_mx [gpit] = en_my [gpit] = 0;
;
L5B27:	lda     #<(_en_mx)
	ldx     #>(_en_mx)
	clc
	adc     _gpit
	bcc     L5B2A
	inx
L5B2A:	jsr     pushax
	ldy     _gpit
	lda     #$00
	sta     _en_my,y
;
; break;
;
	jmp     L6704
;
; PEZON_TIMER [gpit] = PEZON_MAX_TIME [gpit] = PEZON_WAIT + (rdd << 3); 
;
L5B30:	lda     #<(_en_x2)
	ldx     #>(_en_x2)
	clc
	adc     _gpit
	bcc     L5B33
	inx
L5B33:	jsr     pushax
	lda     #<(_en_y2)
	ldx     #>(_en_y2)
	clc
	adc     _gpit
	bcc     L5B36
	inx
L5B36:	sta     ptr1
	stx     ptr1+1
	lda     _rdd
	asl     a
	asl     a
	asl     a
	clc
	adc     #$32
	ldy     #$00
	sta     (ptr1),y
L6704:	ldy     #$00
	jsr     staspidx
;
; for (; gpit < gpjt; gpit ++) {
;
L6702:	lda     _gpit
	clc
	adc     #$01
	sta     _gpit
	jmp     L66FD
;
; en_just_loaded = 1;
;
L6703:	lda     #$01
	sta     _en_just_loaded
;
; }
;
	rts

.endproc

; ---------------------------------------------------------------
; void __near__ enems_do (void)
; ---------------------------------------------------------------

.segment	"ROM07"

.proc	_enems_do: near

.segment	"ROM07"

;
; gpit = en_iter; en_iter ++; if (en_iter == 6) en_iter = 0;
;
	lda     _en_iter
	sta     _gpit
	lda     _en_iter
	clc
	adc     #$01
	sta     _en_iter
	cmp     #$06
	bne     L6732
	lda     #$00
	sta     _en_iter
;
; gpjt = 6; while (gpjt --) {
;
L6732:	lda     #$06
	sta     _gpjt
	jmp     L6799
;
; gpit += 5; if (gpit > 5) gpit -= 6;
;
L5B46:	lda     #$05
	clc
	adc     _gpit
	sta     _gpit
	cmp     #$06
	bcc     L5B4C
	lda     _gpit
	sec
	sbc     #$06
	sta     _gpit
;
; rdt = en_t [gpit] & 0xf0;
;
L5B4C:	ldy     _gpit
	lda     _en_t,y
	and     #$F0
	sta     _rdt
;
; if (!rdt) continue;
;
	lda     _rdt
	jeq     L6799
;
; en_scr_buffer_ptr = scr_buffer + (gpit < 3 ? 0 : 192);
;
	lda     _gpit
	cmp     #$03
	bcs     L6733
	lda     #$00
	jmp     L5B5B
L6733:	lda     #$C0
L5B5B:	clc
	adc     #<(_scr_buffer)
	sta     _en_scr_buffer_ptr
	lda     #$00
	adc     #>(_scr_buffer)
	sta     _en_scr_buffer_ptr+1
;
; sprid = 0xff; // this may be removed later
;
	lda     #$FF
	sta     _sprid
;
; switch (rdt) {
;
	ldx     #$00
	lda     _rdt
;
; }
;
	cmp     #$10
	beq     L5B65
	cmp     #$20
	beq     L5B65
	cmp     #$30
	jeq     L673F
	cmp     #$C0
	jeq     L5DCA
	jmp     L6775
;
; en_cx = en_x [gpit];
;
L5B65:	ldy     _gpit
	lda     _en_x,y
	sta     _en_cx
;
; en_cy = en_y [gpit];
;
	ldy     _gpit
	lda     _en_y,y
	sta     _en_cy
;
; if (!en_state [gpit] || half_life) {
;
	ldy     _gpit
	lda     _en_state,y
	beq     L6734
	lda     _half_life
	jeq     L5B6E
;
; rdy = (en_y [gpit] < 32 ? 0 : en_y [gpit] - 32) & 0xf0; // (y >> 4) << 4
;
L6734:	ldy     _gpit
	lda     _en_y,y
	cmp     #$20
	bcs     L5B78
	txa
	jmp     L6735
L5B78:	ldy     _gpit
	lda     _en_y,y
	sec
	sbc     #$20
L6735:	and     #$F0
	sta     _rdy
;
; rdx = en_x [gpit] >> 4;
;
	ldy     _gpit
	lda     _en_x,y
	lsr     a
	lsr     a
	lsr     a
	lsr     a
	sta     _rdx
;
; if (en_mx [gpit]) {
;
	lda     #<(_en_mx)
	ldx     #>(_en_mx)
	clc
	adc     _gpit
	bcc     L5B86
	inx
L5B86:	ldy     #$00
	jsr     ldaidx
	jeq     L5B83
;
; en_x [gpit] += en_mx [gpit];
;
	lda     #<(_en_x)
	ldx     #>(_en_x)
	clc
	adc     _gpit
	bcc     L5B89
	inx
L5B89:	jsr     pushax
	sta     ptr1
	stx     ptr1+1
	ldx     #$00
	lda     (ptr1,x)
	jsr     pusha0
	lda     #<(_en_mx)
	ldx     #>(_en_mx)
	clc
	adc     _gpit
	bcc     L5B8C
	inx
L5B8C:	ldy     #$00
	jsr     ldaidx
	jsr     tosaddax
	ldy     #$00
	jsr     staspidx
;
; if (en_x [gpit] == en_x1 [gpit] ||
;
	ldy     _gpit
	ldx     #$00
	lda     _en_x,y
	sta     ptr1
	stx     ptr1+1
	ldy     _gpit
	lda     _en_x1,y
	cpx     ptr1+1
	bne     L679A
	cmp     ptr1
	beq     L6736
;
; en_x [gpit] == en_x2 [gpit]
;
L679A:	ldy     _gpit
	lda     _en_x,y
	sta     ptr1
	ldy     _gpit
	lda     _en_x2,y
;
; ) {
;
	cpx     ptr1+1
	bne     L5B8D
	cmp     ptr1
	bne     L5B8D
;
; en_mx [gpit] = -en_mx [gpit];
;
L6736:	lda     #<(_en_mx)
	ldx     #>(_en_mx)
	clc
	adc     _gpit
	bcc     L5B9A
	inx
L5B9A:	jsr     pushax
	lda     #<(_en_mx)
	ldx     #>(_en_mx)
	clc
	adc     _gpit
	bcc     L5B9D
	inx
L5B9D:	ldy     #$00
	jsr     ldaidx
	eor     #$FF
	clc
	adc     #$01
	jsr     staspidx
;
; } else if (
;
	jmp     L5B83
;
; (en_x [gpit] & 0xf) == 0 && 
;
L5B8D:	ldy     _gpit
	lda     _en_x,y
	and     #$0F
	bne     L5B83
;
; 8 == *(en_scr_buffer_ptr + rdy + rdx + (en_mx [gpit] > 0))
;
	lda     #$08
	jsr     pusha0
	lda     _en_scr_buffer_ptr
	ldx     _en_scr_buffer_ptr+1
	clc
	adc     _rdy
	bcc     L6728
	inx
	clc
L6728:	adc     _rdx
	bcc     L6706
	inx
L6706:	jsr     pushax
	lda     #<(_en_mx)
	ldx     #>(_en_mx)
	clc
	adc     _gpit
	bcc     L5BA9
	inx
L5BA9:	ldy     #$00
	jsr     ldaidx
	sec
	sbc     #$01
	bvs     L5BAA
	eor     #$80
L5BAA:	asl     a
	tya
	rol     a
	jsr     tosadda0
;
; ) {
;
	sta     ptr1
	stx     ptr1+1
	ldx     #$00
	lda     (ptr1,x)
	jsr     tosicmp0
	bne     L5B83
;
; en_mx [gpit] = -en_mx [gpit];
;
	lda     #<(_en_mx)
	ldx     #>(_en_mx)
	clc
	adc     _gpit
	bcc     L5BAE
	inx
L5BAE:	jsr     pushax
	lda     #<(_en_mx)
	ldx     #>(_en_mx)
	clc
	adc     _gpit
	bcc     L5BB1
	inx
L5BB1:	ldy     #$00
	jsr     ldaidx
	eor     #$FF
	clc
	adc     #$01
	jsr     staspidx
;
; en_x [gpit] = en_cx;
;
	ldy     _gpit
	lda     _en_cx
	sta     _en_x,y
;
; if (en_my [gpit]) {
;
L5B83:	lda     #<(_en_my)
	ldx     #>(_en_my)
	clc
	adc     _gpit
	bcc     L5BB9
	inx
L5BB9:	ldy     #$00
	jsr     ldaidx
	jeq     L5B6E
;
; rdx = en_x [gpit] >> 4;
;
	ldy     _gpit
	lda     _en_x,y
	lsr     a
	lsr     a
	lsr     a
	lsr     a
	sta     _rdx
;
; en_y [gpit] += en_my [gpit];
;
	lda     #<(_en_y)
	ldx     #>(_en_y)
	clc
	adc     _gpit
	bcc     L5BC0
	inx
L5BC0:	jsr     pushax
	sta     ptr1
	stx     ptr1+1
	ldx     #$00
	lda     (ptr1,x)
	jsr     pusha0
	lda     #<(_en_my)
	ldx     #>(_en_my)
	clc
	adc     _gpit
	bcc     L5BC3
	inx
L5BC3:	ldy     #$00
	jsr     ldaidx
	jsr     tosaddax
	ldy     #$00
	jsr     staspidx
;
; if (en_y [gpit] == en_y1 [gpit] ||
;
	ldy     _gpit
	ldx     #$00
	lda     _en_y,y
	sta     ptr1
	stx     ptr1+1
	ldy     _gpit
	lda     _en_y1,y
	cpx     ptr1+1
	bne     L679C
	cmp     ptr1
	beq     L6738
;
; en_y [gpit] == en_y2 [gpit]
;
L679C:	ldy     _gpit
	lda     _en_y,y
	sta     ptr1
	ldy     _gpit
	lda     _en_y2,y
;
; ) {
;
	cpx     ptr1+1
	bne     L5BC4
	cmp     ptr1
	bne     L5BC4
;
; en_my [gpit] = -en_my [gpit];
;
L6738:	lda     #<(_en_my)
	ldx     #>(_en_my)
	clc
	adc     _gpit
	bcc     L5BD1
	inx
L5BD1:	jsr     pushax
	lda     #<(_en_my)
	ldx     #>(_en_my)
	clc
	adc     _gpit
	bcc     L5BD4
	inx
L5BD4:	ldy     #$00
	jsr     ldaidx
	eor     #$FF
	clc
	adc     #$01
	jsr     staspidx
;
; } else if (
;
	jmp     L5B6E
;
; (en_y [gpit] & 0xf) == 0 && 
;
L5BC4:	ldy     _gpit
	lda     _en_y,y
	and     #$0F
	bne     L5B6E
;
; 8 == *(en_scr_buffer_ptr + rdy + rdx + (en_my [gpit] > 0 ? 16 : 0))
;
	lda     #$08
	jsr     pusha0
	lda     _en_scr_buffer_ptr
	ldx     _en_scr_buffer_ptr+1
	clc
	adc     _rdy
	bcc     L6729
	inx
	clc
L6729:	adc     _rdx
	bcc     L6708
	inx
L6708:	jsr     pushax
	lda     #<(_en_my)
	ldx     #>(_en_my)
	clc
	adc     _gpit
	bcc     L5BE0
	inx
L5BE0:	ldy     #$00
	jsr     ldaidx
	sec
	sbc     #$01
	bvs     L5BE1
	eor     #$80
L5BE1:	asl     a
	tya
	bcc     L5BE4
	lda     #$10
L5BE4:	jsr     tosadda0
;
; ) {
;
	sta     ptr1
	stx     ptr1+1
	ldx     #$00
	lda     (ptr1,x)
	jsr     tosicmp0
	bne     L5B6E
;
; en_my [gpit] = -en_my [gpit];
;
	lda     #<(_en_my)
	ldx     #>(_en_my)
	clc
	adc     _gpit
	bcc     L5BE9
	inx
L5BE9:	jsr     pushax
	lda     #<(_en_my)
	ldx     #>(_en_my)
	clc
	adc     _gpit
	bcc     L5BEC
	inx
L5BEC:	ldy     #$00
	jsr     ldaidx
	eor     #$FF
	clc
	adc     #$01
	jsr     staspidx
;
; en_y [gpit] = en_cy;
;
	ldy     _gpit
	lda     _en_cy
	sta     _en_y,y
;
; endx = en_x [gpit] - en_cx;
;
L5B6E:	ldy     _gpit
	lda     _en_x,y
	sec
	sbc     _en_cx
	cmp     #$80
	sta     _endx
;
; sprx = en_x [gpit]; spry = en_y [gpit];
;
	ldy     _gpit
	lda     _en_x,y
	sta     _sprx
	ldy     _gpit
	lda     _en_y,y
	sta     _spry
;
; sprid = en_s [gpit] + (en_mx [gpit] == 0 ?
;
	ldy     _gpit
	lda     _en_s,y
	jsr     pusha0
	lda     #<(_en_mx)
	ldx     #>(_en_mx)
	clc
	adc     _gpit
	bcc     L5C04
	inx
L5C04:	ldy     #$00
	jsr     ldaidx
	cmp     #$00
;
; ((en_my [gpit] < 0 ? 4 : 0) + ((en_y [gpit] >> 2) & 3)) :
;
	bne     L5C05
	lda     #<(_en_my)
	ldx     #>(_en_my)
	clc
	adc     _gpit
	bcc     L673B
	inx
L673B:	jsr     ldaidx
	asl     a
	tya
	tax
	bcc     L5C0D
	lda     #$04
L5C0D:	sta     ptr1
	ldy     _gpit
	lda     _en_y,y
;
; ((en_mx [gpit] < 0 ? 4 : 0) + ((en_x [gpit] >> 2) & 3)));
;
	jmp     L67AA
L5C05:	lda     #<(_en_mx)
	ldx     #>(_en_mx)
	clc
	adc     _gpit
	bcc     L673D
	inx
L673D:	jsr     ldaidx
	asl     a
	tya
	tax
	bcc     L5C1B
	lda     #$04
L5C1B:	sta     ptr1
	ldy     _gpit
	lda     _en_x,y
L67AA:	lsr     a
	lsr     a
	and     #$03
	clc
	adc     ptr1
	bcc     L5C13
	inx
L5C13:	jsr     tosaddax
	ldx     #$00
	sta     _sprid
;
; break;
;
	jmp     L6775
;
; rdd = (prx < en_x [gpit]) ? en_x [gpit] - prx : prx - en_x [gpit];
;
L673F:	lda     _prx
	jsr     pusha0
	ldy     _gpit
	lda     _en_x,y
	jsr     tosicmp0
	bcs     L5C28
	ldy     _gpit
	lda     _en_x,y
	sec
	sbc     _prx
	jmp     L5C2C
L5C28:	lda     _prx
	jsr     pusha0
	ldy     _gpit
	lda     _en_x,y
	jsr     tossuba0
L5C2C:	sta     _rdd
;
; (en_p [gpit] == n_pant) && 
;
	ldy     _gpit
	lda     _en_p,y
	cmp     _n_pant
	bne     L6740
;
; rdd < FANTY_SIGHT_DISTANCE
;
	lda     _rdd
;
; );
;
	cmp     #$60
	bcc     L6741
L6740:	lda     #$00
	jmp     L6742
L6741:	lda     #$01
L6742:	sta     _rdb
;
; switch (en_state [gpit]) {
;
	ldy     _gpit
	lda     _en_state,y
;
; }
;
	beq     L5C3E
	cmp     #$01
	beq     L5C4E
	cmp     #$02
	jeq     L5D55
	jmp     L5C3C
;
; if (rdb) {
;
L5C3E:	lda     _rdb
	jeq     L5C3C
;
; en_state [gpit] = FANTY_ST_PURSUING;
;
	ldy     _gpit
	lda     #$01
	sta     _en_state,y
;
; en_mx [gpit] = 0;
;
	ldy     _gpit
	lda     #$00
	sta     _en_mx,y
;
; en_my [gpit] = 0;
;
	ldy     _gpit
	sta     _en_my,y
;
; break;
;
	jmp     L5C3C
;
; if (!rdb) {
;
L5C4E:	lda     _rdb
	bne     L6743
;
; en_state [gpit] = FANTY_ST_RETREATING;
;
	ldy     _gpit
	lda     #$02
	sta     _en_state,y
;
; en_mx [gpit] = 0;
;
	ldy     _gpit
	lda     #$00
	sta     _en_mx,y
;
; en_my [gpit] = 0;
;
	ldy     _gpit
	sta     _en_my,y
;
; } else {
;
	jmp     L5C3C
;
; if (prx > en_x [gpit]) {
;
L6743:	lda     _prx
	jsr     pusha0
	ldy     _gpit
	lda     _en_x,y
	jsr     tosicmp0
	bcc     L5C5E
	beq     L5C5E
;
; en_mx [gpit] ++; 
;
	lda     #<(_en_mx)
	ldx     #>(_en_mx)
	clc
	adc     _gpit
	bcc     L5C64
	inx
L5C64:	jsr     pushax
	ldy     #$00
	jsr     ldaidx
	clc
	adc     #$01
	jsr     staspidx
;
; if (en_mx [gpit] >= FANTY_INCS_MAX - 1) en_mx [gpit] = FANTY_INCS_MAX - 1;
;
	lda     #<(_en_mx)
	ldx     #>(_en_mx)
	clc
	adc     _gpit
	bcc     L5C68
	inx
L5C68:	ldy     #$00
	jsr     ldaidx
	sec
	sbc     #$0F
	bvs     L5C69
	eor     #$80
L5C69:	bpl     L5C76
	ldy     _gpit
	lda     #$0F
;
; } else if (prx < en_x [gpit]) {
;
	jmp     L671F
L5C5E:	lda     _prx
	jsr     pusha0
	ldy     _gpit
	lda     _en_x,y
	jsr     tosicmp0
	bcs     L5C76
;
; en_mx [gpit] --;
;
	lda     #<(_en_mx)
	ldx     #>(_en_mx)
	clc
	adc     _gpit
	bcc     L5C75
	inx
L5C75:	jsr     pushax
	ldy     #$00
	jsr     ldaidx
	sec
	sbc     #$01
	jsr     staspidx
;
; if (en_mx [gpit] <= -(FANTY_INCS_MAX - 1)) en_mx [gpit] = - (FANTY_INCS_MAX - 1);
;
	lda     #<(_en_mx)
	ldx     #>(_en_mx)
	clc
	adc     _gpit
	bcc     L5C79
	inx
L5C79:	ldy     #$00
	jsr     ldaidx
	sec
	sbc     #$F2
	bvc     L5C7B
	eor     #$80
L5C7B:	bpl     L5C76
	ldy     _gpit
	lda     #$F1
L671F:	sta     _en_mx,y
;
; );
;
L5C76:	jsr     _rand8
	and     #$0F
	jeq     L5C81
	lda     #<(_en_x)
	ldx     #>(_en_x)
	clc
	adc     _gpit
	bcc     L5C85
	inx
L5C85:	jsr     pushax
	sta     ptr1
	stx     ptr1+1
	ldx     #$00
	lda     (ptr1,x)
	jsr     pusha0
	lda     #<(_en_mx)
	ldx     #>(_en_mx)
	clc
	adc     _gpit
	bcc     L5C8A
	inx
L5C8A:	ldy     #$00
	jsr     ldaidx
	jeq     L5C8B
	lda     #<(_en_mx)
	ldx     #>(_en_mx)
	clc
	adc     _gpit
	bcc     L6744
	inx
L6744:	jsr     ldaidx
	sec
	sbc     #$01
	bvs     L5C92
	eor     #$80
L5C92:	bpl     L5C93
	lda     #<(_en_mx)
	ldx     #>(_en_mx)
	clc
	adc     _gpit
	bcc     L6745
	inx
L6745:	jsr     ldaidx
	asl     a
	bcc     L5C9B
	lda     #<(_en_mx)
	ldx     #>(_en_mx)
	clc
	adc     _gpit
	bcc     L6746
	inx
L6746:	jsr     ldaidx
	eor     #$FF
	clc
	adc     #$01
	ldx     #$00
L6747:	cmp     #$80
	bcc     L672A
	jmp     L6720
L5C9B:	lda     #<(_en_mx)
	ldx     #>(_en_mx)
	clc
	adc     _gpit
	bcc     L6748
	inx
L6748:	jsr     ldaidx
	ldx     #$00
	cmp     #$80
	bcc     L6747
L6720:	dex
	clc
L672A:	adc     #<(_fanty_incs)
	tay
	txa
	adc     #>(_fanty_incs)
	tax
	tya
	ldy     #$00
	jsr     ldaidx
	ldx     #$00
L6749:	cmp     #$80
	bcc     L5CBE
	dex
	jmp     L5CBE
L5C93:	lda     #<(_en_mx)
	ldx     #>(_en_mx)
	clc
	adc     _gpit
	bcc     L674A
	inx
L674A:	jsr     ldaidx
	asl     a
	bcc     L5CB0
	lda     #<(_en_mx)
	ldx     #>(_en_mx)
	clc
	adc     _gpit
	bcc     L674B
	inx
L674B:	jsr     ldaidx
	eor     #$FF
	clc
	adc     #$01
	ldx     #$00
L674C:	cmp     #$80
	bcc     L672B
	jmp     L6721
L5CB0:	lda     #<(_en_mx)
	ldx     #>(_en_mx)
	clc
	adc     _gpit
	bcc     L674D
	inx
L674D:	jsr     ldaidx
	ldx     #$00
	cmp     #$80
	bcc     L674C
L6721:	dex
	clc
L672B:	adc     #<(_fanty_incs)
	tay
	txa
	adc     #>(_fanty_incs)
	tax
	tya
	ldy     #$00
	jsr     ldaidx
	eor     #$FF
	clc
	adc     #$01
	ldx     #$00
	cmp     #$80
	bcc     L6749
	dex
	jmp     L5CBE
L5C8B:	ldx     #$00
	txa
L5CBE:	jsr     tosaddax
	ldy     #$00
	jsr     staspidx
;
; if ((en_x [gpit] < 8 && en_mx [gpit] < 0) ||
;
L5C81:	ldy     _gpit
	lda     _en_x,y
	cmp     #$08
	bcs     L6716
	lda     #<(_en_mx)
	ldx     #>(_en_mx)
	clc
	adc     _gpit
	bcc     L5CC8
	inx
L5CC8:	ldy     #$00
	jsr     ldaidx
	asl     a
	bcs     L6756
;
; (en_x [gpit] > 232 && en_mx [gpit] > 0)) en_mx [gpit] = -en_mx [gpit]; 
;
L6716:	ldy     _gpit
	lda     _en_x,y
	cmp     #$E9
	bcc     L6757
	lda     #<(_en_mx)
	ldx     #>(_en_mx)
	clc
	adc     _gpit
	bcc     L5CCF
	inx
L5CCF:	ldy     #$00
	jsr     ldaidx
	sec
	sbc     #$01
	bvs     L5CD0
	eor     #$80
L5CD0:	bpl     L6757
L6756:	lda     #<(_en_mx)
	ldx     #>(_en_mx)
	clc
	adc     _gpit
	bcc     L5CD5
	inx
L5CD5:	jsr     pushax
	lda     #<(_en_mx)
	ldx     #>(_en_mx)
	clc
	adc     _gpit
	bcc     L5CD8
	inx
L5CD8:	ldy     #$00
	jsr     ldaidx
	eor     #$FF
	clc
	adc     #$01
	jsr     staspidx
;
; if (pry > en_y [gpit]) {
;
L6757:	lda     _pry
	jsr     pusha0
	ldy     _gpit
	lda     _en_y,y
	jsr     tosicmp0
	bcc     L5CD9
	beq     L5CD9
;
; en_my [gpit] ++; 
;
	lda     #<(_en_my)
	ldx     #>(_en_my)
	clc
	adc     _gpit
	bcc     L5CDF
	inx
L5CDF:	jsr     pushax
	ldy     #$00
	jsr     ldaidx
	clc
	adc     #$01
	jsr     staspidx
;
; if (en_my [gpit] >= FANTY_INCS_MAX - 1) en_my [gpit] = FANTY_INCS_MAX - 1;
;
	lda     #<(_en_my)
	ldx     #>(_en_my)
	clc
	adc     _gpit
	bcc     L5CE3
	inx
L5CE3:	ldy     #$00
	jsr     ldaidx
	sec
	sbc     #$0F
	bvs     L5CE4
	eor     #$80
L5CE4:	bpl     L5CF1
	ldy     _gpit
	lda     #$0F
;
; } else if (pry < en_y [gpit]) {
;
	jmp     L6722
L5CD9:	lda     _pry
	jsr     pusha0
	ldy     _gpit
	lda     _en_y,y
	jsr     tosicmp0
	bcs     L5CF1
;
; en_my [gpit] --;
;
	lda     #<(_en_my)
	ldx     #>(_en_my)
	clc
	adc     _gpit
	bcc     L5CF0
	inx
L5CF0:	jsr     pushax
	ldy     #$00
	jsr     ldaidx
	sec
	sbc     #$01
	jsr     staspidx
;
; if (en_my [gpit] <= -(FANTY_INCS_MAX - 1)) en_my [gpit] = - (FANTY_INCS_MAX - 1);
;
	lda     #<(_en_my)
	ldx     #>(_en_my)
	clc
	adc     _gpit
	bcc     L5CF4
	inx
L5CF4:	ldy     #$00
	jsr     ldaidx
	sec
	sbc     #$F2
	bvc     L5CF6
	eor     #$80
L5CF6:	bpl     L5CF1
	ldy     _gpit
	lda     #$F1
L6722:	sta     _en_my,y
;
; );
;
L5CF1:	jsr     _rand8
	and     #$0F
	jeq     L5CFC
	lda     #<(_en_y)
	ldx     #>(_en_y)
	clc
	adc     _gpit
	bcc     L5D00
	inx
L5D00:	jsr     pushax
	sta     ptr1
	stx     ptr1+1
	ldx     #$00
	lda     (ptr1,x)
	jsr     pusha0
	lda     #<(_en_my)
	ldx     #>(_en_my)
	clc
	adc     _gpit
	bcc     L5D05
	inx
L5D05:	ldy     #$00
	jsr     ldaidx
	jeq     L5D06
	lda     #<(_en_my)
	ldx     #>(_en_my)
	clc
	adc     _gpit
	bcc     L6758
	inx
L6758:	jsr     ldaidx
	sec
	sbc     #$01
	bvs     L5D0D
	eor     #$80
L5D0D:	bpl     L5D0E
	lda     #<(_en_my)
	ldx     #>(_en_my)
	clc
	adc     _gpit
	bcc     L6759
	inx
L6759:	jsr     ldaidx
	asl     a
	bcc     L5D16
	lda     #<(_en_my)
	ldx     #>(_en_my)
	clc
	adc     _gpit
	bcc     L675A
	inx
L675A:	jsr     ldaidx
	eor     #$FF
	clc
	adc     #$01
	ldx     #$00
L675B:	cmp     #$80
	bcc     L672C
	jmp     L6723
L5D16:	lda     #<(_en_my)
	ldx     #>(_en_my)
	clc
	adc     _gpit
	bcc     L675C
	inx
L675C:	jsr     ldaidx
	ldx     #$00
	cmp     #$80
	bcc     L675B
L6723:	dex
	clc
L672C:	adc     #<(_fanty_incs)
	tay
	txa
	adc     #>(_fanty_incs)
	tax
	tya
	ldy     #$00
	jsr     ldaidx
	ldx     #$00
L675D:	cmp     #$80
	bcc     L5D39
	dex
	jmp     L5D39
L5D0E:	lda     #<(_en_my)
	ldx     #>(_en_my)
	clc
	adc     _gpit
	bcc     L675E
	inx
L675E:	jsr     ldaidx
	asl     a
	bcc     L5D2B
	lda     #<(_en_my)
	ldx     #>(_en_my)
	clc
	adc     _gpit
	bcc     L675F
	inx
L675F:	jsr     ldaidx
	eor     #$FF
	clc
	adc     #$01
	ldx     #$00
L6760:	cmp     #$80
	bcc     L672D
	jmp     L6724
L5D2B:	lda     #<(_en_my)
	ldx     #>(_en_my)
	clc
	adc     _gpit
	bcc     L6761
	inx
L6761:	jsr     ldaidx
	ldx     #$00
	cmp     #$80
	bcc     L6760
L6724:	dex
	clc
L672D:	adc     #<(_fanty_incs)
	tay
	txa
	adc     #>(_fanty_incs)
	tax
	tya
	ldy     #$00
	jsr     ldaidx
	eor     #$FF
	clc
	adc     #$01
	ldx     #$00
	cmp     #$80
	bcc     L675D
	dex
	jmp     L5D39
L5D06:	ldx     #$00
	txa
L5D39:	jsr     tosaddax
	ldy     #$00
	jsr     staspidx
;
; if ((en_y [gpit] < 8 && en_my [gpit] < 0) ||
;
L5CFC:	ldy     _gpit
	lda     _en_y,y
	cmp     #$08
	bcs     L6718
	lda     #<(_en_my)
	ldx     #>(_en_my)
	clc
	adc     _gpit
	bcc     L5D43
	inx
L5D43:	ldy     #$00
	jsr     ldaidx
	asl     a
	bcs     L676A
;
; (en_y [gpit] > 232 && en_my [gpit] > 0)) en_my [gpit] = -en_my [gpit];
;
L6718:	ldy     _gpit
	lda     _en_y,y
	cmp     #$E9
	jcc     L5C3C
	lda     #<(_en_my)
	ldx     #>(_en_my)
	clc
	adc     _gpit
	bcc     L5D4A
	inx
L5D4A:	ldy     #$00
	jsr     ldaidx
	sec
	sbc     #$01
	bvs     L5D4B
	eor     #$80
L5D4B:	jpl     L5C3C
L676A:	lda     #<(_en_my)
	ldx     #>(_en_my)
	clc
	adc     _gpit
	bcc     L5D50
	inx
L5D50:	jsr     pushax
	lda     #<(_en_my)
	ldx     #>(_en_my)
	clc
	adc     _gpit
	bcc     L5D53
	inx
L5D53:	ldy     #$00
	jsr     ldaidx
	eor     #$FF
	clc
	adc     #$01
	jsr     staspidx
;
; break;
;
	jmp     L5C3C
;
; if (rdb) {
;
L5D55:	lda     _rdb
	beq     L5D56
;
; en_state [gpit] = FANTY_ST_PURSUING;
;
	ldy     _gpit
	lda     #$01
	sta     _en_state,y
;
; en_mx [gpit] = 0;
;
	ldy     _gpit
	lda     #$00
	sta     _en_mx,y
;
; en_my [gpit] = 0;
;
	ldy     _gpit
	sta     _en_my,y
;
; } else {
;
	jmp     L5C3C
;
; en_mx [gpit] = (en_mx [gpit] + 1) & 3;
;
L5D56:	lda     #<(_en_mx)
	ldx     #>(_en_mx)
	clc
	adc     _gpit
	bcc     L5D67
	inx
L5D67:	jsr     pushax
	lda     #<(_en_mx)
	ldx     #>(_en_mx)
	clc
	adc     _gpit
	bcc     L5D6B
	inx
L5D6B:	ldy     #$00
	jsr     ldaidx
	clc
	adc     #$01
	and     #$03
	cmp     #$80
	jsr     staspidx
;
; rds = fanty_retreat_incs [en_mx [gpit]];
;
	lda     #<(_en_mx)
	ldx     #>(_en_mx)
	clc
	adc     _gpit
	bcc     L5D72
	inx
L5D72:	ldy     #$00
	jsr     ldaidx
	clc
	adc     #<(_fanty_retreat_incs)
	tay
	txa
	adc     #>(_fanty_retreat_incs)
	tax
	tya
	ldy     #$00
	jsr     ldaidx
	sta     _rds
;
; if (en_x [gpit] != en_x1 [gpit]) en_x [gpit] += (en_x [gpit] > en_x1 [gpit] ? -rds : rds);
;
	ldy     _gpit
	ldx     #$00
	lda     _en_x,y
	sta     ptr1
	stx     ptr1+1
	ldy     _gpit
	lda     _en_x1,y
	cpx     ptr1+1
	bne     L679E
	cmp     ptr1
	beq     L5D73
L679E:	lda     #<(_en_x)
	ldx     #>(_en_x)
	clc
	adc     _gpit
	bcc     L5D7B
	inx
L5D7B:	jsr     pushax
	sta     ptr1
	stx     ptr1+1
	ldx     #$00
	lda     (ptr1,x)
	jsr     pusha0
	ldy     _gpit
	lda     _en_x,y
	jsr     pusha0
	ldy     _gpit
	lda     _en_x1,y
	jsr     tosicmp0
	bcc     L5D82
	beq     L5D82
	lda     _rds
	eor     #$FF
	clc
	adc     #$01
	ldx     #$00
L676C:	cmp     #$80
	bcc     L5D89
	jmp     L6725
L5D82:	ldx     #$00
	lda     _rds
	cmp     #$80
	bcc     L676C
L6725:	dex
L5D89:	jsr     tosaddax
	ldy     #$00
	jsr     staspidx
;
; if (en_y [gpit] != en_y1 [gpit]) en_y [gpit] += (en_y [gpit] > en_y1 [gpit] ? -rds : rds);
;
L5D73:	ldy     _gpit
	ldx     #$00
	lda     _en_y,y
	sta     ptr1
	stx     ptr1+1
	ldy     _gpit
	lda     _en_y1,y
	cpx     ptr1+1
	bne     L679F
	cmp     ptr1
	beq     L5D8A
L679F:	lda     #<(_en_y)
	ldx     #>(_en_y)
	clc
	adc     _gpit
	bcc     L5D92
	inx
L5D92:	jsr     pushax
	sta     ptr1
	stx     ptr1+1
	ldx     #$00
	lda     (ptr1,x)
	jsr     pusha0
	ldy     _gpit
	lda     _en_y,y
	jsr     pusha0
	ldy     _gpit
	lda     _en_y1,y
	jsr     tosicmp0
	bcc     L5D99
	beq     L5D99
	lda     _rds
	eor     #$FF
	clc
	adc     #$01
	ldx     #$00
L676E:	cmp     #$80
	bcc     L5DA0
	jmp     L6726
L5D99:	ldx     #$00
	lda     _rds
	cmp     #$80
	bcc     L676E
L6726:	dex
L5DA0:	jsr     tosaddax
	ldy     #$00
	jsr     staspidx
;
; if (en_x [gpit] == en_x1 [gpit] && en_y [gpit] == en_y1 [gpit])
;
L5D8A:	ldy     _gpit
	ldx     #$00
	lda     _en_x,y
	sta     ptr1
	stx     ptr1+1
	ldy     _gpit
	lda     _en_x1,y
	cpx     ptr1+1
	bne     L5C3C
	cmp     ptr1
	bne     L5C3C
	ldy     _gpit
	lda     _en_y,y
	sta     ptr1
	ldy     _gpit
	lda     _en_y1,y
	cpx     ptr1+1
	bne     L5C3C
	cmp     ptr1
	bne     L5C3C
;
; en_state [gpit] = FANTY_ST_IDLE;
;
	ldy     _gpit
	txa
	sta     _en_state,y
;
; sprx = en_x [gpit];
;
L5C3C:	ldy     _gpit
	lda     _en_x,y
	sta     _sprx
;
; spry = en_y [gpit];
;
	ldy     _gpit
	lda     _en_y,y
	sta     _spry
;
; en_state [gpit] ?
;
	ldy     _gpit
	lda     _en_state,y
;
; ((en_x [gpit] >> 2) & 3) :
;
	beq     L6772
	ldy     _gpit
	lda     _en_x,y
;
; ((frame_counter >> 3) & 3)
;
	jmp     L67A5
L6772:	lda     _frame_counter
	lsr     a
L67A5:	lsr     a
	lsr     a
	and     #$03
;
; );
;
	clc
	adc     #$24
	ldx     #$00
	sta     _sprid
;
; break;
;
	jmp     L6775
;
; if (en_state [gpit]) {
;
L5DCA:	ldy     _gpit
	lda     _en_state,y
	jeq     L6774
;
; en_y [gpit] += pezon_incs [PEZON_INCS_IDX [gpit]];
;
	lda     #<(_en_y)
	ldx     #>(_en_y)
	clc
	adc     _gpit
	bcc     L5DD1
	inx
L5DD1:	jsr     pushax
	sta     ptr1
	stx     ptr1+1
	ldx     #$00
	lda     (ptr1,x)
	jsr     pusha0
	lda     #<(_en_my)
	ldx     #>(_en_my)
	clc
	adc     _gpit
	bcc     L5DD5
	inx
L5DD5:	ldy     #$00
	jsr     ldaidx
	clc
	adc     #<(_pezon_incs)
	tay
	txa
	adc     #>(_pezon_incs)
	tax
	tya
	ldy     #$00
	jsr     ldaidx
	jsr     tosaddax
	ldy     #$00
	jsr     staspidx
;
; sprx = en_x1 [gpit];
;
	ldy     _gpit
	lda     _en_x1,y
	sta     _sprx
;
; spry = en_y [gpit];
;
	ldy     _gpit
	lda     _en_y,y
	sta     _spry
;
; sprid = PEZONS_BASE_SPRID + (PEZON_INCS_IDX [gpit] > PEZON_INCS_FIRST_FALL);
;
	lda     #<(_en_my)
	ldx     #>(_en_my)
	clc
	adc     _gpit
	bcc     L5DE2
	inx
L5DE2:	ldy     #$00
	jsr     ldaidx
	sec
	sbc     #$1B
	bvs     L5DE3
	eor     #$80
L5DE3:	asl     a
	tya
	rol     a
	clc
	adc     #$20
	sta     _sprid
;
; if (PEZON_INCS_IDX [gpit] < PEZON_INCS_MAX) {
;
	lda     #<(_en_my)
	ldx     #>(_en_my)
	clc
	adc     _gpit
	bcc     L6773
	inx
L6773:	jsr     ldaidx
	sec
	sbc     #$30
	bvc     L5DE9
	eor     #$80
L5DE9:	bpl     L5DE5
;
; PEZON_INCS_IDX [gpit] ++; 
;
	lda     #<(_en_my)
	ldx     #>(_en_my)
	clc
	adc     _gpit
	bcc     L5DEC
	inx
L5DEC:	jsr     pushax
	ldy     #$00
	jsr     ldaidx
	clc
	adc     #$01
	jsr     staspidx
;
; } else {
;
	jmp     L5B61
;
; en_state [gpit] = 0;
;
L5DE5:	ldy     _gpit
	lda     #$00
	sta     _en_state,y
;
; PEZON_TIMER [gpit] = PEZON_MAX_TIME [gpit];
;
	lda     #<(_en_x2)
	ldx     #>(_en_x2)
	clc
	adc     _gpit
	bcc     L5DF4
	inx
L5DF4:	sta     ptr1
	stx     ptr1+1
	ldy     _gpit
	ldx     #$00
	lda     _en_y2,y
	ldy     #$00
	sta     (ptr1),y
;
; } else {
;
	jmp     L6775
;
; sprid = 0xff;
;
L6774:	lda     #$FF
	sta     _sprid
;
; if (PEZON_TIMER [gpit]) PEZON_TIMER [gpit] --; else {
;
	ldy     _gpit
	lda     _en_x2,y
	beq     L5DFB
	lda     #<(_en_x2)
	ldx     #>(_en_x2)
	clc
	adc     _gpit
	bcc     L5E01
	inx
L5E01:	jsr     pushax
	sta     ptr1
	stx     ptr1+1
	ldy     #$00
	ldx     #$00
	lda     (ptr1),y
	sec
	sbc     #$01
	jsr     staspidx
	jmp     L6775
;
; PEZON_INCS_IDX [gpit] = 0;
;
L5DFB:	ldy     _gpit
	sta     _en_my,y
;
; en_state [gpit] = 1;
;
	ldy     _gpit
	lda     #$01
	sta     _en_state,y
;
; en_y [gpit] = en_y1 [gpit];
;
	lda     #<(_en_y)
	ldx     #>(_en_y)
	clc
	adc     _gpit
	bcc     L5E0D
	inx
L5E0D:	sta     ptr1
	stx     ptr1+1
	ldy     _gpit
	lda     _en_y1,y
	ldy     #$00
	sta     (ptr1),y
;
; sfx_play (SFX_FISH, SC_LEVEL);
;
	lda     #$0F
	jsr     pusha
	lda     #$01
	jsr     _sfx_play
;
; if (sprid == 0xff) continue;
;
L5B61:	ldx     #$00
L6775:	lda     _sprid
	cmp     #$FF
	jeq     L6799
;
; if ((cam_pos_pant && gpit >= 3) || (!cam_pos_pant && gpit < 3)) {
;
	lda     _cam_pos_pant
	beq     L671A
	lda     _gpit
	cmp     #$03
	bcs     L677F
L671A:	lda     _cam_pos_pant
	bne     L6780
	lda     _gpit
	cmp     #$03
	bcs     L6780
;
; if (sprx >= cam_pos_mod) rdx = sprx - cam_pos_mod; 
;
L677F:	lda     _sprx
	cmp     _cam_pos_mod
	jcc     L6799
	sec
	sbc     _cam_pos_mod
;
; else continue; 
;
	jmp     L67A6
;
; if (sprx + 16 < cam_pos_mod) rdx = 256 - cam_pos_mod + sprx;
;
L6780:	lda     _sprx
	clc
	adc     #$10
	bcc     L5E27
	inx
L5E27:	cmp     _cam_pos_mod
	txa
	sbc     #$00
	jcs     L6799
	lda     #$00
	sec
	sbc     _cam_pos_mod
	pha
	lda     #$01
	sbc     #$00
	pla
	clc
	adc     _sprx
L67A6:	sta     _rdx
;
; if (rdt == 0xC0) {
;
	lda     _rdt
	cmp     #$C0
	bne     L5E2B
;
; rdx, en_y1 [gpit] + SPRITE_ADJUST + 1,
;
	jsr     decsp3
	lda     _rdx
	ldy     #$02
	sta     (sp),y
	ldy     _gpit
	lda     _en_y1,y
	clc
	adc     #$03
	bcc     L672E
	clc
L672E:	adc     #$01
	ldy     #$01
	sta     (sp),y
;
; oam_index,
;
	lda     _oam_index
	dey
	sta     (sp),y
;
; );
;
	lda     _spr_en+68
	ldx     _spr_en+68+1
	jsr     _oam_meta_spr
	sta     _oam_index
;
; rdx, spry + SPRITE_ADJUST,
;
L5E2B:	jsr     decsp3
	lda     _rdx
	ldy     #$02
	sta     (sp),y
	lda     _spry
	clc
	adc     #$03
	dey
	sta     (sp),y
;
; oam_index,
;
	lda     _oam_index
	dey
	sta     (sp),y
;
; spr_en [sprid]
;
	ldx     #$00
	lda     _sprid
	asl     a
	bcc     L672F
	inx
	clc
L672F:	adc     #<(_spr_en)
;
; );
;
	sta     ptr1
;
; spr_en [sprid]
;
	txa
	adc     #>(_spr_en)
;
; );
;
	sta     ptr1+1
	iny
	lda     (ptr1),y
	tax
	dey
	lda     (ptr1),y
	jsr     _oam_meta_spr
	sta     _oam_index
;
; if (n_pant != en_p [gpit]) continue;
;
	ldy     _gpit
	lda     _en_p,y
	cmp     _n_pant
	jne     L6799
;
; if (ppodewwwr) continue;
;
	lda     _ppodewwwr
	jne     L6799
;
; if (rdt == 0x20) {
;
	lda     _rdt
	cmp     #$20
	jne     L5E46
;
; if (prx + 9 >= sprx && prx <= sprx + 17 && !(pj && pvy <= 0)) {
;
	ldx     #$00
	lda     _prx
	clc
	adc     #$09
	bcc     L5E4A
	inx
L5E4A:	cmp     _sprx
	txa
	sbc     #$00
	jcc     L6799
	lda     _prx
	jsr     pusha0
	lda     _sprx
	clc
	adc     #$11
	bcc     L5E4C
	ldx     #$01
L5E4C:	jsr     tosicmp
	beq     L6730
	jcs     L6799
L6730:	lda     _pj
	beq     L5E51
	lda     _pvy
	sec
	sbc     #$01
	bvc     L5E50
	eor     #$80
L5E50:	bmi     L6782
	lda     #$00
	jmp     L5E51
L6782:	lda     #$01
L5E51:	jsr     bnega
	jeq     L6799
;
; if (en_mx [gpit]) {
;
	lda     #<(_en_mx)
	ldx     #>(_en_mx)
	clc
	adc     _gpit
	bcc     L5E56
	inx
L5E56:	ldy     #$00
	jsr     ldaidx
	beq     L5E53
;
; if (pry + 18 >= spry && pry + 12 <= spry) {
;
	ldx     #$00
	lda     _pry
	clc
	adc     #$12
	bcc     L5E59
	inx
L5E59:	cmp     _spry
	txa
	sbc     #$00
	bcc     L5E53
	ldx     #$00
	lda     _pry
	clc
	adc     #$0C
	bcc     L5E5B
	inx
L5E5B:	sec
	sbc     _spry
	sta     tmp1
	txa
	sbc     #$00
	ora     tmp1
	bcc     L5E58
	bne     L5E53
;
; pgotten = 1;
;
L5E58:	lda     #$01
	sta     _pgotten
;
; pgtmx = endx << FIX_BITS;
;
	lda     _endx
	asl     a
	asl     a
	asl     a
	asl     a
	cmp     #$80
	sta     _pgtmx
;
; prx += endx; px = prx << FIX_BITS;
;
	lda     _endx
	clc
	adc     _prx
	sta     _prx
	ldx     #$00
	lda     _prx
	jsr     aslax4
	sta     _px
	stx     _px+1
;
; pry = spry - 16; py = pry << FIX_BITS;
;
	lda     _spry
	sec
	sbc     #$10
	sta     _pry
	ldx     #$00
	lda     _pry
	jsr     aslax4
	sta     _py
	stx     _py+1
;
; pvy = 0;
;
	sty     _pvy
;
; (en_my [gpit] < 0 && pry + 17 >= spry && pry + 12 <= spry) ||
;
L5E53:	lda     #<(_en_my)
	ldx     #>(_en_my)
	clc
	adc     _gpit
	bcc     L6789
	inx
L6789:	jsr     ldaidx
	asl     a
	bcc     L671C
	ldx     #$00
	lda     _pry
	clc
	adc     #$11
	bcc     L5E75
	inx
L5E75:	cmp     _spry
	txa
	sbc     #$00
	bcc     L671C
	ldx     #$00
	lda     _pry
	clc
	adc     #$0C
	bcc     L5E76
	inx
L5E76:	sec
	sbc     _spry
	sta     tmp1
	txa
	sbc     #$00
	ora     tmp1
	bcc     L5E78
	beq     L5E78
;
; (en_my [gpit] > 0 && pry + 16 + en_my [gpit] >= spry && pry + 12 <= spry)
;
L671C:	lda     #<(_en_my)
	ldx     #>(_en_my)
	clc
	adc     _gpit
	bcc     L678C
	inx
L678C:	jsr     ldaidx
	sec
	sbc     #$01
	bvs     L5E7B
	eor     #$80
L5E7B:	jpl     L6799
	ldx     #$00
	lda     _pry
	clc
	adc     #$10
	bcc     L5E7D
	inx
L5E7D:	jsr     pushax
	lda     #<(_en_my)
	ldx     #>(_en_my)
	clc
	adc     _gpit
	bcc     L5E7F
	inx
L5E7F:	ldy     #$00
	jsr     ldaidx
	jsr     tosaddax
	cmp     _spry
	txa
	sbc     #$00
	jcc     L6799
	ldx     #$00
	lda     _pry
	clc
	adc     #$0C
	bcc     L5E80
	inx
L5E80:	sec
	sbc     _spry
	sta     tmp1
	txa
	sbc     #$00
	ora     tmp1
	bcc     L5E78
	jne     L6799
L5E78:	lda     #$01
;
; pgotten = 1;
;
	sta     _pgotten
;
; pgtmy = en_my [gpit] << (FIX_BITS - en_state [gpit]);
;
	lda     #<(_en_my)
	ldx     #>(_en_my)
	clc
	adc     _gpit
	bcc     L5E88
	inx
L5E88:	ldy     #$00
	jsr     ldaidx
	jsr     pushax
	lda     #$04
	jsr     pusha0
	ldy     _gpit
	lda     _en_state,y
	jsr     tossuba0
	jsr     tosaslax
	cmp     #$80
	sta     _pgtmy
;
; pry = spry - 16; py = pry << FIX_BITS;
;
	lda     _spry
	sec
	sbc     #$10
	sta     _pry
	ldx     #$00
	lda     _pry
	jsr     aslax4
	sta     _py
	stx     _py+1
;
; pvy = 0;
;
	lda     #$00
	sta     _pvy
;
; continue;
;
	jmp     L6799
;
; if (pflickers || guay_ct) continue;
;
L5E46:	lda     _pflickers
	bne     L6799
	lda     _guay_ct
	bne     L6799
	tax
;
; if (CL (prx, pry, sprx, spry)) {
;
	lda     _prx
	clc
	adc     #$04
	bcc     L5E9B
	inx
L5E9B:	cmp     _sprx
	txa
	sbc     #$00
	bcc     L6799
	lda     _prx
	jsr     pusha0
	lda     _sprx
	clc
	adc     #$0C
	bcc     L5EA0
	ldx     #$01
L5EA0:	jsr     tosicmp
	beq     L6731
	bcs     L6799
L6731:	ldx     #$00
	lda     _pry
	clc
	adc     #$0C
	bcc     L5EA2
	inx
L5EA2:	cmp     _spry
	txa
	sbc     #$00
	bcc     L6799
	lda     _pry
	jsr     pusha0
	lda     _spry
	clc
	adc     #$0C
	bcc     L5EA6
	ldx     #$01
L5EA6:	jsr     tosicmp
	bcc     L5E99
	bne     L6799
;
; psignal = PLAYER_KILLED;
;
L5E99:	lda     #$05
	sta     _psignal
;
; sfx_play (SFX_KILL, SC_PLAYER);
;
	lda     #$0A
	jsr     pusha
	lda     #$00
	jsr     _sfx_play
;
; gpjt = 6; while (gpjt --) {
;
L6799:	lda     _gpjt
	pha
	sec
	sbc     #$01
	sta     _gpjt
	pla
	tax
	jne     L5B46
;
; }
;
	rts

.endproc

; ---------------------------------------------------------------
; void __near__ scroll_bg_object_create (void)
; ---------------------------------------------------------------

.segment	"CODE"

.proc	_scroll_bg_object_create: near

.segment	"CODE"

;
; if (col_idx == bgo_col_idx [0] || 
;
	lda     _bgo_col_idx
	ldx     _bgo_col_idx+1
	cpx     #$00
	bne     L67BD
	cmp     _col_idx
	beq     L5F2B
;
; col_idx == bgo_col_idx [1] || 
;
L67BD:	lda     _bgo_col_idx+2
	ldx     _bgo_col_idx+2+1
	cpx     #$00
	bne     L67BE
	cmp     _col_idx
	beq     L5F2B
;
; col_idx == bgo_col_idx [2] || 
;
L67BE:	lda     _bgo_col_idx+4
	ldx     _bgo_col_idx+4+1
	cpx     #$00
	bne     L67BF
	cmp     _col_idx
	beq     L5F2B
;
; col_idx == bgo_col_idx [3] ||
;
L67BF:	lda     _bgo_col_idx+6
	ldx     _bgo_col_idx+6+1
	cpx     #$00
	bne     L67C0
	cmp     _col_idx
	beq     L5F2B
;
; col_idx == bgo_col_idx [4]) return;
;
L67C0:	lda     _bgo_col_idx+8
	ldx     _bgo_col_idx+8+1
	cpx     #$00
	bne     L67B5
	cmp     _col_idx
	bne     L67B5
L5F2B:	rts
;
; ccit = BG_OBJS_MAX; while (ccit --) {
;
L67B5:	lda     #$05
	sta     _ccit
	jmp     L67BC
;
; if (0 == bgo_col_idx [ccit]) {
;
L5F34:	jsr     push0
	lda     _ccit
	asl     a
	bcc     L67B3
	ldx     #$01
	clc
L67B3:	adc     #<(_bgo_col_idx)
	sta     ptr1
	txa
	adc     #>(_bgo_col_idx)
	sta     ptr1+1
	ldy     #$01
	lda     (ptr1),y
	tax
	dey
	lda     (ptr1),y
	jsr     tosicmp
	jne     L67BC
;
; bgo_x [ccit] = rdc >> 1;
;
	lda     #<(_bgo_x)
	ldx     #>(_bgo_x)
	clc
	adc     _ccit
	bcc     L5F3D
	inx
L5F3D:	sta     ptr1
	stx     ptr1+1
	lda     _rdc
	lsr     a
	ldy     #$00
	sta     (ptr1),y
;
; bgo_pant [ccit] = (col_idx >> 3) & 1;
;
	lda     #<(_bgo_pant)
	ldx     #>(_bgo_pant)
	clc
	adc     _ccit
	bcc     L5F41
	inx
L5F41:	sta     ptr1
	stx     ptr1+1
	lda     _col_idx
	lsr     a
	lsr     a
	lsr     a
	and     #$01
	sta     (ptr1),y
;
; bgo_y [ccit] = rde + (rdct >> 1);
;
	lda     #<(_bgo_y)
	ldx     #>(_bgo_y)
	clc
	adc     _ccit
	bcc     L5F46
	inx
L5F46:	sta     ptr1
	stx     ptr1+1
	lda     _rdct
	lsr     a
	clc
	adc     _rde
	sta     (ptr1),y
;
; bgo_s [ccit] = (rda >= 96 && gs_flags [rda - 96] == 2) ? 2 : 0;
;
	lda     #<(_bgo_s)
	ldx     #>(_bgo_s)
	clc
	adc     _ccit
	bcc     L5F4B
	inx
L5F4B:	sta     sreg
	stx     sreg+1
	lda     _rda
	cmp     #$60
	tya
	bcc     L67C2
	tax
	lda     _rda
	sec
	sbc     #$60
	bcs     L5F50
	dex
L5F50:	sta     ptr1
	txa
	clc
	adc     #>(_gs_flags)
	sta     ptr1+1
	ldy     #<(_gs_flags)
	lda     (ptr1),y
	cmp     #$02
	beq     L67BA
	lda     #$00
L67BA:	ldy     #$00
L67C2:	sta     (sreg),y
;
; bgo_ctr [ccit] = (rda >= 96) ? 0 : 120 + (rand8 () & 0x1f);
;
	lda     #<(_bgo_ctr)
	ldx     #>(_bgo_ctr)
	clc
	adc     _ccit
	bcc     L5F58
	inx
L5F58:	jsr     pushax
	lda     _rda
	cmp     #$60
	bcc     L5F5B
	lda     #$00
	jmp     L67BB
L5F5B:	jsr     _rand8
	and     #$1F
	clc
	adc     #$78
L67BB:	ldy     #$00
	jsr     staspidx
;
; bgo_col_idx [ccit] = col_idx;
;
	ldx     #$00
	lda     _ccit
	asl     a
	bcc     L67B4
	inx
	clc
L67B4:	adc     #<(_bgo_col_idx)
	sta     ptr1
	txa
	adc     #>(_bgo_col_idx)
	sta     ptr1+1
	lda     _col_idx
	ldy     #$00
	sta     (ptr1),y
	iny
	lda     #$00
	sta     (ptr1),y
;
; bgo_type [ccit] = rda;
;
	ldy     _ccit
	lda     _rda
	sta     _bgo_type,y
;
; bgo_total ++;
;
	lda     _bgo_total
	clc
	adc     #$01
	sta     _bgo_total
;
; break;
;
	rts
;
; ccit = BG_OBJS_MAX; while (ccit --) {
;
L67BC:	lda     _ccit
	pha
	sec
	sbc     #$01
	sta     _ccit
	pla
	tax
	jne     L5F34
;
; }
;
	rts

.endproc

; ---------------------------------------------------------------
; void __near__ scroll_paint_chunk (void)
; ---------------------------------------------------------------

.segment	"CODE"

.proc	_scroll_paint_chunk: near

.segment	"CODE"

;
; if (col_idx != col_idx_latest && state_ctr >= 7) {
;
	lda     _col_idx_latest
	cmp     _col_idx
	beq     L67CF
	lda     _state_ctr
	cmp     #$07
	bcc     L67CF
;
; state_ctr = 0;
;
	lda     #$00
	sta     _state_ctr
;
; col_idx_latest = col_idx;
;
L67CF:	lda     _col_idx
	sta     _col_idx_latest
;
; gpint = col_idx << 2;
;
	ldx     #$00
	lda     _col_idx
	jsr     aslax2
	sta     _gpint
	stx     _gpint+1
;
; col_ptr = map_ptr + ((gpint + gpint + gpint) << 1);
;
	lda     _map_ptr
	ldx     _map_ptr+1
	jsr     pushax
	lda     _gpint
	clc
	adc     _gpint
	pha
	lda     _gpint+1
	adc     _gpint+1
	tax
	pla
	clc
	adc     _gpint
	pha
	txa
	adc     _gpint+1
	sta     tmp1
	pla
	asl     a
	rol     tmp1
	ldx     tmp1
	jsr     tosaddax
	sta     _col_ptr
	stx     _col_ptr+1
;
; rdc = gpint & 31;
;
	lda     _gpint
	and     #$1F
	sta     _rdc
;
; rdd = (col_idx & 8);
;
	lda     _col_idx
	and     #$08
	sta     _rdd
;
; scroll_state = SCROLL_STATE_NONE;
;
	lda     #$00
	sta     _scroll_state
;
; if (state_ctr < 6) {
;
	lda     _state_ctr
	cmp     #$06
	jcs     L67D1
;
; rdct = (state_ctr << 2);
;
	asl     a
	asl     a
	sta     _rdct
;
; gp_addr = (rdd ? NAMETABLE_B : NAMETABLE_A) + rdc + col_v_offset;
;
	lda     _rdd
	beq     L5F87
	ldx     #$24
	jmp     L67C8
L5F87:	ldx     #$20
L67C8:	lda     #$00
	clc
	adc     _rdc
	bcc     L67CB
	inx
	clc
L67CB:	adc     _col_v_offset
	sta     _gp_addr
	txa
	adc     _col_v_offset+1
	sta     _gp_addr+1
;
; gp_aux = (unsigned char *) (col_ptr + rdct);
;
	lda     _col_ptr
	ldx     _col_ptr+1
	clc
	adc     _rdct
	bcc     L67C4
	inx
L67C4:	sta     _gp_aux
	stx     _gp_aux+1
;
; gp_gen = gp_aux;
;
	sta     _gp_gen
	stx     _gp_gen+1
;
; rda = *gp_gen ++; rdb = *gp_gen ++;
;
	sta     regsave
	stx     regsave+1
	clc
	adc     #$01
	bcc     L5F92
	inx
L5F92:	sta     _gp_gen
	stx     _gp_gen+1
	ldy     #$00
	lda     (regsave),y
	sta     _rda
	lda     _gp_gen
	ldx     _gp_gen+1
	sta     regsave
	stx     regsave+1
	clc
	adc     #$01
	bcc     L5F95
	inx
L5F95:	sta     _gp_gen
	stx     _gp_gen+1
	lda     (regsave),y
	sta     _rdb
;
; if (rda == 48) {
;
	lda     _rda
	cmp     #$30
	bne     L5F96
;
; rde = 0; scroll_bg_object_create ();
;
	sty     _rde
	jsr     _scroll_bg_object_create
;
; rda = 54;
;
	lda     #$36
	sta     _rda
;
; UPDATE = MSB (gp_addr) | NT_UPD_HORZ;
;
L5F96:	lda     _gp_ul
	ldx     _gp_ul+1
	sta     regsave
	stx     regsave+1
	clc
	adc     #$01
	bcc     L5F9E
	inx
L5F9E:	sta     _gp_ul
	stx     _gp_ul+1
	lda     _gp_addr+1
	ora     #$40
	ldy     #$00
	sta     (regsave),y
;
; UPDATE = LSB (gp_addr);
;
	lda     _gp_ul
	ldx     _gp_ul+1
	sta     regsave
	stx     regsave+1
	clc
	adc     #$01
	bcc     L5FA3
	inx
L5FA3:	sta     _gp_ul
	stx     _gp_ul+1
	lda     _gp_addr
	sta     (regsave),y
;
; UPDATE = 4;
;
	lda     _gp_ul
	ldx     _gp_ul+1
	sta     regsave
	stx     regsave+1
	clc
	adc     #$01
	bcc     L5FA8
	inx
L5FA8:	sta     _gp_ul
	stx     _gp_ul+1
	lda     #$04
	sta     (regsave),y
;
; UPDATE = main_ts_tmaps_0 [rda];
;
	lda     _gp_ul
	ldx     _gp_ul+1
	sta     regsave
	stx     regsave+1
	clc
	adc     #$01
	bcc     L5FAB
	inx
L5FAB:	sta     _gp_ul
	stx     _gp_ul+1
	ldy     _rda
	lda     _main_ts_tmaps_0,y
	ldy     #$00
	sta     (regsave),y
;
; UPDATE = main_ts_tmaps_1 [rda];
;
	lda     _gp_ul
	ldx     _gp_ul+1
	sta     regsave
	stx     regsave+1
	clc
	adc     #$01
	bcc     L5FB0
	inx
L5FB0:	sta     _gp_ul
	stx     _gp_ul+1
	ldy     _rda
	lda     _main_ts_tmaps_1,y
	ldy     #$00
	sta     (regsave),y
;
; UPDATE = main_ts_tmaps_0 [rdb];
;
	lda     _gp_ul
	ldx     _gp_ul+1
	sta     regsave
	stx     regsave+1
	clc
	adc     #$01
	bcc     L5FB5
	inx
L5FB5:	sta     _gp_ul
	stx     _gp_ul+1
	ldy     _rdb
	lda     _main_ts_tmaps_0,y
	ldy     #$00
	sta     (regsave),y
;
; UPDATE = main_ts_tmaps_1 [rdb];
;
	lda     _gp_ul
	ldx     _gp_ul+1
	sta     regsave
	stx     regsave+1
	clc
	adc     #$01
	bcc     L5FBA
	inx
L5FBA:	sta     _gp_ul
	stx     _gp_ul+1
	ldy     _rdb
	lda     _main_ts_tmaps_1,y
	ldy     #$00
	sta     (regsave),y
;
; gp_addr += 32;
;
	lda     #$20
	clc
	adc     _gp_addr
	sta     _gp_addr
	bcc     L5FC0
	inc     _gp_addr+1
;
; UPDATE = MSB (gp_addr) | NT_UPD_HORZ;
;
L5FC0:	lda     _gp_ul
	ldx     _gp_ul+1
	sta     regsave
	stx     regsave+1
	clc
	adc     #$01
	bcc     L5FC2
	inx
L5FC2:	sta     _gp_ul
	stx     _gp_ul+1
	lda     _gp_addr+1
	ora     #$40
	sta     (regsave),y
;
; UPDATE = LSB (gp_addr);
;
	lda     _gp_ul
	ldx     _gp_ul+1
	sta     regsave
	stx     regsave+1
	clc
	adc     #$01
	bcc     L5FC7
	inx
L5FC7:	sta     _gp_ul
	stx     _gp_ul+1
	lda     _gp_addr
	sta     (regsave),y
;
; UPDATE = 4;
;
	lda     _gp_ul
	ldx     _gp_ul+1
	sta     regsave
	stx     regsave+1
	clc
	adc     #$01
	bcc     L5FCC
	inx
L5FCC:	sta     _gp_ul
	stx     _gp_ul+1
	lda     #$04
	sta     (regsave),y
;
; UPDATE = main_ts_tmaps_2 [rda];
;
	lda     _gp_ul
	ldx     _gp_ul+1
	sta     regsave
	stx     regsave+1
	clc
	adc     #$01
	bcc     L5FCF
	inx
L5FCF:	sta     _gp_ul
	stx     _gp_ul+1
	ldy     _rda
	lda     _main_ts_tmaps_2,y
	ldy     #$00
	sta     (regsave),y
;
; UPDATE = main_ts_tmaps_3 [rda];
;
	lda     _gp_ul
	ldx     _gp_ul+1
	sta     regsave
	stx     regsave+1
	clc
	adc     #$01
	bcc     L5FD4
	inx
L5FD4:	sta     _gp_ul
	stx     _gp_ul+1
	ldy     _rda
	lda     _main_ts_tmaps_3,y
	ldy     #$00
	sta     (regsave),y
;
; UPDATE = main_ts_tmaps_2 [rdb];
;
	lda     _gp_ul
	ldx     _gp_ul+1
	sta     regsave
	stx     regsave+1
	clc
	adc     #$01
	bcc     L5FD9
	inx
L5FD9:	sta     _gp_ul
	stx     _gp_ul+1
	ldy     _rdb
	lda     _main_ts_tmaps_2,y
	ldy     #$00
	sta     (regsave),y
;
; UPDATE = main_ts_tmaps_3 [rdb];
;
	lda     _gp_ul
	ldx     _gp_ul+1
	sta     regsave
	stx     regsave+1
	clc
	adc     #$01
	bcc     L5FDE
	inx
L5FDE:	sta     _gp_ul
	stx     _gp_ul+1
	ldy     _rdb
	lda     _main_ts_tmaps_3,y
	ldy     #$00
	sta     (regsave),y
;
; gp_addr += 32;
;
	lda     #$20
	clc
	adc     _gp_addr
	sta     _gp_addr
	bcc     L5FE4
	inc     _gp_addr+1
;
; rda = *gp_gen ++; rdb = *gp_gen;
;
L5FE4:	lda     _gp_gen
	ldx     _gp_gen+1
	sta     regsave
	stx     regsave+1
	clc
	adc     #$01
	bcc     L5FE7
	inx
L5FE7:	sta     _gp_gen
	stx     _gp_gen+1
	lda     (regsave),y
	sta     _rda
	lda     _gp_gen
	sta     ptr1
	lda     _gp_gen+1
	sta     ptr1+1
	lda     (ptr1),y
	sta     _rdb
;
; if (rda == 48) {
;
	lda     _rda
	cmp     #$30
	bne     L67D0
;
; rde = 1; scroll_bg_object_create ();
;
	lda     #$01
	sta     _rde
	jsr     _scroll_bg_object_create
;
; rda = 54;
;
	lda     #$36
;
; } else if (rda >= 96) {
;
	jmp     L67C9
L67D0:	lda     _rda
	cmp     #$60
	bcc     L5FF2
;
; rde = 1; scroll_bg_object_create ();
;
	lda     #$01
	sta     _rde
	jsr     _scroll_bg_object_create
;
; rda = 0;
;
	lda     #$00
L67C9:	sta     _rda
;
; UPDATE = MSB (gp_addr) | NT_UPD_HORZ;
;
L5FF2:	lda     _gp_ul
	ldx     _gp_ul+1
	sta     regsave
	stx     regsave+1
	clc
	adc     #$01
	bcc     L5FFA
	inx
L5FFA:	sta     _gp_ul
	stx     _gp_ul+1
	lda     _gp_addr+1
	ora     #$40
	ldy     #$00
	sta     (regsave),y
;
; UPDATE = LSB (gp_addr);
;
	lda     _gp_ul
	ldx     _gp_ul+1
	sta     regsave
	stx     regsave+1
	clc
	adc     #$01
	bcc     L5FFF
	inx
L5FFF:	sta     _gp_ul
	stx     _gp_ul+1
	lda     _gp_addr
	sta     (regsave),y
;
; UPDATE = 4;
;
	lda     _gp_ul
	ldx     _gp_ul+1
	sta     regsave
	stx     regsave+1
	clc
	adc     #$01
	bcc     L6004
	inx
L6004:	sta     _gp_ul
	stx     _gp_ul+1
	lda     #$04
	sta     (regsave),y
;
; UPDATE = main_ts_tmaps_0 [rda];
;
	lda     _gp_ul
	ldx     _gp_ul+1
	sta     regsave
	stx     regsave+1
	clc
	adc     #$01
	bcc     L6007
	inx
L6007:	sta     _gp_ul
	stx     _gp_ul+1
	ldy     _rda
	lda     _main_ts_tmaps_0,y
	ldy     #$00
	sta     (regsave),y
;
; UPDATE = main_ts_tmaps_1 [rda];
;
	lda     _gp_ul
	ldx     _gp_ul+1
	sta     regsave
	stx     regsave+1
	clc
	adc     #$01
	bcc     L600C
	inx
L600C:	sta     _gp_ul
	stx     _gp_ul+1
	ldy     _rda
	lda     _main_ts_tmaps_1,y
	ldy     #$00
	sta     (regsave),y
;
; UPDATE = main_ts_tmaps_0 [rdb];
;
	lda     _gp_ul
	ldx     _gp_ul+1
	sta     regsave
	stx     regsave+1
	clc
	adc     #$01
	bcc     L6011
	inx
L6011:	sta     _gp_ul
	stx     _gp_ul+1
	ldy     _rdb
	lda     _main_ts_tmaps_0,y
	ldy     #$00
	sta     (regsave),y
;
; UPDATE = main_ts_tmaps_1 [rdb];
;
	lda     _gp_ul
	ldx     _gp_ul+1
	sta     regsave
	stx     regsave+1
	clc
	adc     #$01
	bcc     L6016
	inx
L6016:	sta     _gp_ul
	stx     _gp_ul+1
	ldy     _rdb
	lda     _main_ts_tmaps_1,y
	ldy     #$00
	sta     (regsave),y
;
; gp_addr += 32;
;
	lda     #$20
	clc
	adc     _gp_addr
	sta     _gp_addr
	bcc     L601C
	inc     _gp_addr+1
;
; UPDATE = MSB (gp_addr) | NT_UPD_HORZ;
;
L601C:	lda     _gp_ul
	ldx     _gp_ul+1
	sta     regsave
	stx     regsave+1
	clc
	adc     #$01
	bcc     L601E
	inx
L601E:	sta     _gp_ul
	stx     _gp_ul+1
	lda     _gp_addr+1
	ora     #$40
	sta     (regsave),y
;
; UPDATE = LSB (gp_addr);
;
	lda     _gp_ul
	ldx     _gp_ul+1
	sta     regsave
	stx     regsave+1
	clc
	adc     #$01
	bcc     L6023
	inx
L6023:	sta     _gp_ul
	stx     _gp_ul+1
	lda     _gp_addr
	sta     (regsave),y
;
; UPDATE = 4;
;
	lda     _gp_ul
	ldx     _gp_ul+1
	sta     regsave
	stx     regsave+1
	clc
	adc     #$01
	bcc     L6028
	inx
L6028:	sta     _gp_ul
	stx     _gp_ul+1
	lda     #$04
	sta     (regsave),y
;
; UPDATE = main_ts_tmaps_2 [rda];
;
	lda     _gp_ul
	ldx     _gp_ul+1
	sta     regsave
	stx     regsave+1
	clc
	adc     #$01
	bcc     L602B
	inx
L602B:	sta     _gp_ul
	stx     _gp_ul+1
	ldy     _rda
	lda     _main_ts_tmaps_2,y
	ldy     #$00
	sta     (regsave),y
;
; UPDATE = main_ts_tmaps_3 [rda];
;
	lda     _gp_ul
	ldx     _gp_ul+1
	sta     regsave
	stx     regsave+1
	clc
	adc     #$01
	bcc     L6030
	inx
L6030:	sta     _gp_ul
	stx     _gp_ul+1
	ldy     _rda
	lda     _main_ts_tmaps_3,y
	ldy     #$00
	sta     (regsave),y
;
; UPDATE = main_ts_tmaps_2 [rdb];
;
	lda     _gp_ul
	ldx     _gp_ul+1
	sta     regsave
	stx     regsave+1
	clc
	adc     #$01
	bcc     L6035
	inx
L6035:	sta     _gp_ul
	stx     _gp_ul+1
	ldy     _rdb
	lda     _main_ts_tmaps_2,y
	ldy     #$00
	sta     (regsave),y
;
; UPDATE = main_ts_tmaps_3 [rdb];
;
	lda     _gp_ul
	ldx     _gp_ul+1
	sta     regsave
	stx     regsave+1
	clc
	adc     #$01
	bcc     L603A
	inx
L603A:	sta     _gp_ul
	stx     _gp_ul+1
	ldy     _rdb
	lda     _main_ts_tmaps_3,y
	ldy     #$00
	sta     (regsave),y
;
; col_v_offset += 128;
;
	lda     #$80
	clc
	adc     _col_v_offset
	sta     _col_v_offset
	bcc     L6040
	inc     _col_v_offset+1
;
; gp_gen = gp_aux;
;
L6040:	lda     _gp_aux
	sta     _gp_gen
	lda     _gp_aux+1
	sta     _gp_gen+1
;
; gp_aux = scr_buffer + (rdd ? 192 : 0) + ((col_idx & 0x7) << 1) + scr_v_offset;
;
	lda     _rdd
	beq     L6048
	lda     #$C0
L6048:	clc
	adc     #<(_scr_buffer)
	sta     ptr1
	tya
	adc     #>(_scr_buffer)
	sta     ptr1+1
	lda     _col_idx
	ldx     #$00
	and     #$07
	asl     a
	bcc     L67CC
	inx
	clc
L67CC:	adc     ptr1
	pha
	txa
	adc     ptr1+1
	tax
	pla
	clc
	adc     _scr_v_offset
	bcc     L67C5
	inx
L67C5:	sta     _gp_aux
	stx     _gp_aux+1
;
; *gp_aux ++ = behs [*gp_gen ++]; *gp_aux = behs [*gp_gen ++]; gp_aux += 15;
;
	sta     regsave
	stx     regsave+1
	clc
	adc     #$01
	bcc     L604D
	inx
L604D:	sta     _gp_aux
	stx     _gp_aux+1
	lda     regsave
	ldx     regsave+1
	jsr     pushax
	lda     _gp_gen
	ldx     _gp_gen+1
	sta     regsave
	stx     regsave+1
	clc
	adc     #$01
	bcc     L6050
	inx
L6050:	sta     _gp_gen
	stx     _gp_gen+1
	ldy     #$00
	lda     (regsave),y
	sta     ptr1
	tya
	clc
	adc     #>(_behs)
	sta     ptr1+1
	ldy     #<(_behs)
	lda     (ptr1),y
	ldy     #$00
	jsr     staspidx
	lda     _gp_aux
	ldx     _gp_aux+1
	jsr     pushax
	lda     _gp_gen
	ldx     _gp_gen+1
	sta     regsave
	stx     regsave+1
	clc
	adc     #$01
	bcc     L6054
	inx
L6054:	sta     _gp_gen
	stx     _gp_gen+1
	ldy     #$00
	lda     (regsave),y
	sta     ptr1
	tya
	clc
	adc     #>(_behs)
	sta     ptr1+1
	ldy     #<(_behs)
	lda     (ptr1),y
	ldy     #$00
	jsr     staspidx
	lda     #$0F
	clc
	adc     _gp_aux
	sta     _gp_aux
	bcc     L6057
	inc     _gp_aux+1
;
; *gp_aux ++ = behs [*gp_gen ++]; *gp_aux = behs [*gp_gen];
;
L6057:	lda     _gp_aux
	ldx     _gp_aux+1
	sta     regsave
	stx     regsave+1
	clc
	adc     #$01
	bcc     L6059
	inx
L6059:	sta     _gp_aux
	stx     _gp_aux+1
	lda     regsave
	ldx     regsave+1
	jsr     pushax
	lda     _gp_gen
	ldx     _gp_gen+1
	sta     regsave
	stx     regsave+1
	clc
	adc     #$01
	bcc     L605C
	inx
L605C:	sta     _gp_gen
	stx     _gp_gen+1
	ldy     #$00
	lda     (regsave),y
	sta     ptr1
	tya
	clc
	adc     #>(_behs)
	sta     ptr1+1
	ldy     #<(_behs)
	lda     (ptr1),y
	ldy     #$00
	jsr     staspidx
	lda     _gp_aux
	sta     sreg
	lda     _gp_aux+1
	sta     sreg+1
	lda     _gp_gen
	sta     ptr1
	lda     _gp_gen+1
	sta     ptr1+1
	ldy     #$00
	lda     (ptr1),y
	sta     ptr1
	tya
	clc
	adc     #>(_behs)
	sta     ptr1+1
	ldy     #<(_behs)
	lda     (ptr1),y
	ldy     #$00
	sta     (sreg),y
;
; scr_v_offset += 32;
;
	lda     #$20
	clc
	adc     _scr_v_offset
	sta     _scr_v_offset
;
; } else if (state_ctr < 7) {
;
	jmp     L67D3
L67D1:	lda     _state_ctr
	cmp     #$07
	jcs     L67D2
;
; gp_addr = (rdd ? NAMETABLE_B : NAMETABLE_A) + 0x03c0 + (col_idx & 0x7);
;
	lda     _rdd
	beq     L6068
	ldx     #$24
	jmp     L67CA
L6068:	ldx     #$20
L67CA:	lda     #$00
	clc
	adc     #$C0
	sta     ptr1
	txa
	adc     #$03
	sta     ptr1+1
	lda     _col_idx
	and     #$07
	clc
	adc     ptr1
	ldx     ptr1+1
	bcc     L67D4
	inx
L67D4:	sta     _gp_addr
	stx     _gp_addr+1
;
; gp_gen = (unsigned char *) col_ptr;
;
	lda     _col_ptr
	sta     _gp_gen
	lda     _col_ptr+1
	sta     _gp_gen+1
;
; gpit = 6; do {
;
	lda     #$06
	sta     _gpit
;
; rda = *gp_gen ++;
;
L6071:	lda     _gp_gen
	ldx     _gp_gen+1
	sta     regsave
	stx     regsave+1
	clc
	adc     #$01
	bcc     L6076
	inx
L6076:	sta     _gp_gen
	stx     _gp_gen+1
	ldy     #$00
	lda     (regsave),y
	sta     _rda
;
; rdt = attr_lookup_0_0 [rda];
;
	ldy     _rda
	lda     _attr_lookup_0_0,y
	sta     _rdt
;
; rda = *gp_gen ++;
;
	lda     _gp_gen
	ldx     _gp_gen+1
	sta     regsave
	stx     regsave+1
	clc
	adc     #$01
	bcc     L607D
	inx
L607D:	sta     _gp_gen
	stx     _gp_gen+1
	ldy     #$00
	lda     (regsave),y
	sta     _rda
;
; rdt += attr_lookup_0_1 [rda];
;
	ldy     _rda
	lda     _attr_lookup_0_1,y
	clc
	adc     _rdt
	sta     _rdt
;
; rda = *gp_gen ++;
;
	lda     _gp_gen
	ldx     _gp_gen+1
	sta     regsave
	stx     regsave+1
	clc
	adc     #$01
	bcc     L6084
	inx
L6084:	sta     _gp_gen
	stx     _gp_gen+1
	ldy     #$00
	lda     (regsave),y
	sta     _rda
;
; rdt += attr_lookup_0_2 [rda];
;
	ldy     _rda
	lda     _attr_lookup_0_2,y
	clc
	adc     _rdt
	sta     _rdt
;
; rda = *gp_gen ++;
;
	lda     _gp_gen
	ldx     _gp_gen+1
	sta     regsave
	stx     regsave+1
	clc
	adc     #$01
	bcc     L608B
	inx
L608B:	sta     _gp_gen
	stx     _gp_gen+1
	ldy     #$00
	lda     (regsave),y
	sta     _rda
;
; rdt += attr_lookup_0_3 [rda];
;
	ldy     _rda
	lda     _attr_lookup_0_3,y
	clc
	adc     _rdt
	sta     _rdt
;
; UPDATE = MSB (gp_addr);
;
	lda     _gp_ul
	ldx     _gp_ul+1
	sta     regsave
	stx     regsave+1
	clc
	adc     #$01
	bcc     L6091
	inx
L6091:	sta     _gp_ul
	stx     _gp_ul+1
	lda     _gp_addr+1
	ldy     #$00
	sta     (regsave),y
;
; UPDATE = LSB (gp_addr);
;
	lda     _gp_ul
	ldx     _gp_ul+1
	sta     regsave
	stx     regsave+1
	clc
	adc     #$01
	bcc     L6096
	inx
L6096:	sta     _gp_ul
	stx     _gp_ul+1
	lda     _gp_addr
	sta     (regsave),y
;
; UPDATE= rdt;
;
	lda     _gp_ul
	ldx     _gp_ul+1
	sta     regsave
	stx     regsave+1
	clc
	adc     #$01
	bcc     L609B
	inx
L609B:	sta     _gp_ul
	stx     _gp_ul+1
	lda     _rdt
	sta     (regsave),y
;
; gp_addr += 8;
;
	lda     #$08
	clc
	adc     _gp_addr
	sta     _gp_addr
	bcc     L609F
	inc     _gp_addr+1
;
; } while (-- gpit);
;
L609F:	dec     _gpit
	lda     _gpit
	tax
	jne     L6071
;
; col_v_offset = scr_v_offset = 0;
;
	sta     _scr_v_offset
	sta     _col_v_offset
	sta     _col_v_offset+1
;
; } else {
;
	jmp     L67D3
;
; scroll_state = SCROLL_STATE_FREE;
;
L67D2:	lda     #$01
	sta     _scroll_state
;
; if (state_ctr < 7) state_ctr ++;
;
L67D3:	lda     _state_ctr
	cmp     #$07
	bcs     L60A7
	clc
	adc     #$01
	sta     _state_ctr
;
; }
;
L60A7:	rts

.endproc

; ---------------------------------------------------------------
; void __near__ scroll_to (void)
; ---------------------------------------------------------------

.segment	"CODE"

.proc	_scroll_to: near

.segment	"CODE"

;
; if (cam_pos > cam_pos_old) {
;
	lda     _cam_pos
	ldx     _cam_pos+1
	jsr     pushax
	lda     _cam_pos_old
	ldx     _cam_pos_old+1
	jsr     tosicmp
	bmi     L60AB
	beq     L60AB
;
; col_idx = (cam_pos >> 5) + 9;
;
	lda     _cam_pos
	ldx     _cam_pos+1
	jsr     asrax4
	jsr     asrax1
	clc
	adc     #$09
	sta     _col_idx
;
; scroll_paint_chunk ();
;
	jsr     _scroll_paint_chunk
;
; } else if (cam_pos < cam_pos_old) {
;
	jmp     L60BA
L60AB:	lda     _cam_pos
	cmp     _cam_pos_old
	lda     _cam_pos+1
	sbc     _cam_pos_old+1
	bvc     L67D5
	eor     #$80
L67D5:	bpl     L67D6
;
; col_idx = (cam_pos >> 5) - 1;
;
	lda     _cam_pos
	ldx     _cam_pos+1
	jsr     asrax4
	jsr     asrax1
	sec
	sbc     #$01
	sta     _col_idx
;
; scroll_paint_chunk ();
;
	jsr     _scroll_paint_chunk
;
; } else scroll_state = SCROLL_STATE_FREE;
;
	jmp     L60BA
L67D6:	lda     #$01
	sta     _scroll_state
;
; cam_pos_old = cam_pos;
;
L60BA:	lda     _cam_pos
	sta     _cam_pos_old
	lda     _cam_pos+1
	sta     _cam_pos_old+1
;
; }
;
	rts

.endproc

; ---------------------------------------------------------------
; void __near__ scroll_draw_one_chunk_completely (void)
; ---------------------------------------------------------------

.segment	"CODE"

.proc	_scroll_draw_one_chunk_completely: near

.segment	"CODE"

;
; gpint = col_idx << 2;
;
	ldx     #$00
	lda     _col_idx
	jsr     aslax2
	sta     _gpint
	stx     _gpint+1
;
; col_ptr = map_ptr + ((gpint + gpint + gpint) << 1);
;
	lda     _map_ptr
	ldx     _map_ptr+1
	jsr     pushax
	lda     _gpint
	clc
	adc     _gpint
	pha
	lda     _gpint+1
	adc     _gpint+1
	tax
	pla
	clc
	adc     _gpint
	pha
	txa
	adc     _gpint+1
	sta     tmp1
	pla
	asl     a
	rol     tmp1
	ldx     tmp1
	jsr     tosaddax
	sta     _col_ptr
	stx     _col_ptr+1
;
; rdc = gpint & 31;
;
	lda     _gpint
	and     #$1F
	sta     _rdc
;
; rdd = (col_idx & 8);
;
	lda     _col_idx
	and     #$08
	sta     _rdd
;
; gp_addr = (rdd ? NAMETABLE_B : NAMETABLE_A) + rdc;
;
	lda     _rdd
	beq     L60CE
	ldx     #$24
	jmp     L67DA
L60CE:	ldx     #$20
L67DA:	lda     #$00
	clc
	adc     _rdc
	bcc     L67D7
	inx
L67D7:	sta     _gp_addr
	stx     _gp_addr+1
;
; scr_buffer_ptr = scr_buffer + (rdd ? 192 : 0) + ((col_idx & 0x7) << 1);
;
	lda     _rdd
	beq     L60D7
	lda     #$C0
L60D7:	clc
	adc     #<(_scr_buffer)
	sta     ptr1
	lda     #$00
	adc     #>(_scr_buffer)
	sta     ptr1+1
	lda     _col_idx
	ldx     #$00
	and     #$07
	asl     a
	bcc     L67DD
	inx
	clc
L67DD:	adc     ptr1
	sta     _scr_buffer_ptr
	txa
	adc     ptr1+1
	sta     _scr_buffer_ptr+1
;
; for (state_ctr = 0; state_ctr < 6; state_ctr ++) {
;
	lda     #$00
L67E1:	sta     _state_ctr
	cmp     #$06
	jcs     L60DC
;
; rdct = (state_ctr << 2);
;
	lda     _state_ctr
	asl     a
	asl     a
	sta     _rdct
;
; gp_aux = (unsigned char *) (col_ptr + rdct);
;
	lda     _col_ptr
	ldx     _col_ptr+1
	clc
	adc     _rdct
	bcc     L67D8
	inx
L67D8:	sta     _gp_aux
	stx     _gp_aux+1
;
; gp_gen = gp_aux;
;
	sta     _gp_gen
	stx     _gp_gen+1
;
; rda = *gp_gen ++; rdb = *gp_gen ++;
;
	sta     regsave
	stx     regsave+1
	clc
	adc     #$01
	bcc     L60ED
	inx
L60ED:	sta     _gp_gen
	stx     _gp_gen+1
	ldy     #$00
	lda     (regsave),y
	sta     _rda
	lda     _gp_gen
	ldx     _gp_gen+1
	sta     regsave
	stx     regsave+1
	clc
	adc     #$01
	bcc     L60F0
	inx
L60F0:	sta     _gp_gen
	stx     _gp_gen+1
	lda     (regsave),y
	sta     _rdb
;
; if (rda == 48) {
;
	lda     _rda
	cmp     #$30
	bne     L60F1
;
; rde = 0; scroll_bg_object_create ();
;
	sty     _rde
	jsr     _scroll_bg_object_create
;
; rda = 54;
;
	lda     #$36
	sta     _rda
;
; vram_adr (gp_addr);
;
L60F1:	lda     _gp_addr
	ldx     _gp_addr+1
	jsr     _vram_adr
;
; vram_put (main_ts_tmaps_0 [rda]);
;
	ldy     _rda
	lda     _main_ts_tmaps_0,y
	jsr     _vram_put
;
; vram_put (main_ts_tmaps_1 [rda]);
;
	ldy     _rda
	lda     _main_ts_tmaps_1,y
	jsr     _vram_put
;
; vram_put (main_ts_tmaps_0 [rdb]);
;
	ldy     _rdb
	lda     _main_ts_tmaps_0,y
	jsr     _vram_put
;
; vram_put (main_ts_tmaps_1 [rdb]);
;
	ldy     _rdb
	lda     _main_ts_tmaps_1,y
	jsr     _vram_put
;
; gp_addr += 32;
;
	lda     #$20
	clc
	adc     _gp_addr
	sta     _gp_addr
	bcc     L610C
	inc     _gp_addr+1
;
; vram_adr (gp_addr);
;
L610C:	lda     _gp_addr
	ldx     _gp_addr+1
	jsr     _vram_adr
;
; vram_put (main_ts_tmaps_2 [rda]);
;
	ldy     _rda
	lda     _main_ts_tmaps_2,y
	jsr     _vram_put
;
; vram_put (main_ts_tmaps_3 [rda]);
;
	ldy     _rda
	lda     _main_ts_tmaps_3,y
	jsr     _vram_put
;
; vram_put (main_ts_tmaps_2 [rdb]);
;
	ldy     _rdb
	lda     _main_ts_tmaps_2,y
	jsr     _vram_put
;
; vram_put (main_ts_tmaps_3 [rdb]);
;
	ldy     _rdb
	lda     _main_ts_tmaps_3,y
	jsr     _vram_put
;
; gp_addr += 32;
;
	lda     #$20
	clc
	adc     _gp_addr
	sta     _gp_addr
	bcc     L6121
	inc     _gp_addr+1
;
; rda = *gp_gen ++; rdb = *gp_gen;
;
L6121:	lda     _gp_gen
	ldx     _gp_gen+1
	sta     regsave
	stx     regsave+1
	clc
	adc     #$01
	bcc     L6124
	inx
L6124:	sta     _gp_gen
	stx     _gp_gen+1
	ldy     #$00
	lda     (regsave),y
	sta     _rda
	lda     _gp_gen
	sta     ptr1
	lda     _gp_gen+1
	sta     ptr1+1
	lda     (ptr1),y
	sta     _rdb
;
; if (rda == 48) {
;
	lda     _rda
	cmp     #$30
	bne     L67DF
;
; rde = 1; scroll_bg_object_create ();
;
	lda     #$01
	sta     _rde
	jsr     _scroll_bg_object_create
;
; rda = 54;
;
	lda     #$36
;
; } else if (rda >= 96) {
;
	jmp     L67DB
L67DF:	lda     _rda
	cmp     #$60
	bcc     L612F
;
; rde = 1; scroll_bg_object_create ();
;
	lda     #$01
	sta     _rde
	jsr     _scroll_bg_object_create
;
; rda = 0;
;
	lda     #$00
L67DB:	sta     _rda
;
; vram_adr (gp_addr);
;
L612F:	lda     _gp_addr
	ldx     _gp_addr+1
	jsr     _vram_adr
;
; vram_put (main_ts_tmaps_0 [rda]);
;
	ldy     _rda
	lda     _main_ts_tmaps_0,y
	jsr     _vram_put
;
; vram_put (main_ts_tmaps_1 [rda]);
;
	ldy     _rda
	lda     _main_ts_tmaps_1,y
	jsr     _vram_put
;
; vram_put (main_ts_tmaps_0 [rdb]);
;
	ldy     _rdb
	lda     _main_ts_tmaps_0,y
	jsr     _vram_put
;
; vram_put (main_ts_tmaps_1 [rdb]);
;
	ldy     _rdb
	lda     _main_ts_tmaps_1,y
	jsr     _vram_put
;
; gp_addr += 32;
;
	lda     #$20
	clc
	adc     _gp_addr
	sta     _gp_addr
	bcc     L614A
	inc     _gp_addr+1
;
; vram_adr (gp_addr);
;
L614A:	lda     _gp_addr
	ldx     _gp_addr+1
	jsr     _vram_adr
;
; vram_put (main_ts_tmaps_2 [rda]);
;
	ldy     _rda
	lda     _main_ts_tmaps_2,y
	jsr     _vram_put
;
; vram_put (main_ts_tmaps_3 [rda]);
;
	ldy     _rda
	lda     _main_ts_tmaps_3,y
	jsr     _vram_put
;
; vram_put (main_ts_tmaps_2 [rdb]);
;
	ldy     _rdb
	lda     _main_ts_tmaps_2,y
	jsr     _vram_put
;
; vram_put (main_ts_tmaps_3 [rdb]);
;
	ldy     _rdb
	lda     _main_ts_tmaps_3,y
	jsr     _vram_put
;
; gp_addr += 32;
;
	lda     #$20
	clc
	adc     _gp_addr
	sta     _gp_addr
	bcc     L615F
	inc     _gp_addr+1
;
; *scr_buffer_ptr ++ = behs [*gp_aux ++]; *scr_buffer_ptr = behs [*gp_aux ++]; scr_buffer_ptr += 15;
;
L615F:	lda     _scr_buffer_ptr
	ldx     _scr_buffer_ptr+1
	sta     regsave
	stx     regsave+1
	clc
	adc     #$01
	bcc     L6161
	inx
L6161:	sta     _scr_buffer_ptr
	stx     _scr_buffer_ptr+1
	lda     regsave
	ldx     regsave+1
	jsr     pushax
	lda     _gp_aux
	ldx     _gp_aux+1
	sta     regsave
	stx     regsave+1
	clc
	adc     #$01
	bcc     L6164
	inx
L6164:	sta     _gp_aux
	stx     _gp_aux+1
	ldy     #$00
	lda     (regsave),y
	sta     ptr1
	tya
	clc
	adc     #>(_behs)
	sta     ptr1+1
	ldy     #<(_behs)
	lda     (ptr1),y
	ldy     #$00
	jsr     staspidx
	lda     _scr_buffer_ptr
	ldx     _scr_buffer_ptr+1
	jsr     pushax
	lda     _gp_aux
	ldx     _gp_aux+1
	sta     regsave
	stx     regsave+1
	clc
	adc     #$01
	bcc     L6168
	inx
L6168:	sta     _gp_aux
	stx     _gp_aux+1
	ldy     #$00
	lda     (regsave),y
	sta     ptr1
	tya
	clc
	adc     #>(_behs)
	sta     ptr1+1
	ldy     #<(_behs)
	lda     (ptr1),y
	ldy     #$00
	jsr     staspidx
	lda     #$0F
	clc
	adc     _scr_buffer_ptr
	sta     _scr_buffer_ptr
	bcc     L616B
	inc     _scr_buffer_ptr+1
;
; *scr_buffer_ptr ++ = behs [*gp_aux ++]; *scr_buffer_ptr = behs [*gp_aux]; scr_buffer_ptr += 15;
;
L616B:	lda     _scr_buffer_ptr
	ldx     _scr_buffer_ptr+1
	sta     regsave
	stx     regsave+1
	clc
	adc     #$01
	bcc     L616D
	inx
L616D:	sta     _scr_buffer_ptr
	stx     _scr_buffer_ptr+1
	lda     regsave
	ldx     regsave+1
	jsr     pushax
	lda     _gp_aux
	ldx     _gp_aux+1
	sta     regsave
	stx     regsave+1
	clc
	adc     #$01
	bcc     L6170
	inx
L6170:	sta     _gp_aux
	stx     _gp_aux+1
	ldy     #$00
	lda     (regsave),y
	sta     ptr1
	tya
	clc
	adc     #>(_behs)
	sta     ptr1+1
	ldy     #<(_behs)
	lda     (ptr1),y
	ldy     #$00
	jsr     staspidx
	lda     _scr_buffer_ptr
	sta     sreg
	lda     _scr_buffer_ptr+1
	sta     sreg+1
	lda     _gp_aux
	sta     ptr1
	lda     _gp_aux+1
	sta     ptr1+1
	ldy     #$00
	lda     (ptr1),y
	sta     ptr1
	tya
	clc
	adc     #>(_behs)
	sta     ptr1+1
	ldy     #<(_behs)
	lda     (ptr1),y
	ldy     #$00
	sta     (sreg),y
	lda     #$0F
	clc
	adc     _scr_buffer_ptr
	sta     _scr_buffer_ptr
	bcc     L6176
	inc     _scr_buffer_ptr+1
;
; for (state_ctr = 0; state_ctr < 6; state_ctr ++) {
;
L6176:	lda     _state_ctr
	clc
	adc     #$01
	jmp     L67E1
;
; gp_addr = (rdd ? NAMETABLE_B : NAMETABLE_A) + 0x03c0 + (col_idx & 0x7);
;
L60DC:	lda     _rdd
	beq     L617A
	ldx     #$24
	jmp     L67DC
L617A:	ldx     #$20
L67DC:	lda     #$00
	clc
	adc     #$C0
	sta     ptr1
	txa
	adc     #$03
	sta     ptr1+1
	lda     _col_idx
	and     #$07
	clc
	adc     ptr1
	ldx     ptr1+1
	bcc     L67E0
	inx
L67E0:	sta     _gp_addr
	stx     _gp_addr+1
;
; gp_gen = (unsigned char *) col_ptr;
;
	lda     _col_ptr
	sta     _gp_gen
	lda     _col_ptr+1
	sta     _gp_gen+1
;
; gpit = 6; do {
;
	lda     #$06
	sta     _gpit
;
; rda = *gp_gen ++;
;
L6183:	lda     _gp_gen
	ldx     _gp_gen+1
	sta     regsave
	stx     regsave+1
	clc
	adc     #$01
	bcc     L6188
	inx
L6188:	sta     _gp_gen
	stx     _gp_gen+1
	ldy     #$00
	lda     (regsave),y
	sta     _rda
;
; rdt = attr_lookup_0_0 [rda];
;
	ldy     _rda
	lda     _attr_lookup_0_0,y
	sta     _rdt
;
; rda = *gp_gen ++;
;
	lda     _gp_gen
	ldx     _gp_gen+1
	sta     regsave
	stx     regsave+1
	clc
	adc     #$01
	bcc     L618F
	inx
L618F:	sta     _gp_gen
	stx     _gp_gen+1
	ldy     #$00
	lda     (regsave),y
	sta     _rda
;
; rdt += attr_lookup_0_1 [rda];
;
	ldy     _rda
	lda     _attr_lookup_0_1,y
	clc
	adc     _rdt
	sta     _rdt
;
; rda = *gp_gen ++;
;
	lda     _gp_gen
	ldx     _gp_gen+1
	sta     regsave
	stx     regsave+1
	clc
	adc     #$01
	bcc     L6196
	inx
L6196:	sta     _gp_gen
	stx     _gp_gen+1
	ldy     #$00
	lda     (regsave),y
	sta     _rda
;
; rdt += attr_lookup_0_2 [rda];
;
	ldy     _rda
	lda     _attr_lookup_0_2,y
	clc
	adc     _rdt
	sta     _rdt
;
; rda = *gp_gen ++;
;
	lda     _gp_gen
	ldx     _gp_gen+1
	sta     regsave
	stx     regsave+1
	clc
	adc     #$01
	bcc     L619D
	inx
L619D:	sta     _gp_gen
	stx     _gp_gen+1
	ldy     #$00
	lda     (regsave),y
	sta     _rda
;
; rdt += attr_lookup_0_3 [rda];
;
	ldy     _rda
	lda     _attr_lookup_0_3,y
	clc
	adc     _rdt
	sta     _rdt
;
; vram_adr (gp_addr);
;
	lda     _gp_addr
	ldx     _gp_addr+1
	jsr     _vram_adr
;
; vram_put (rdt);
;
	lda     _rdt
	jsr     _vram_put
;
; gp_addr += 8;
;
	lda     #$08
	clc
	adc     _gp_addr
	sta     _gp_addr
	bcc     L61A8
	inc     _gp_addr+1
;
; } while (-- gpit);
;
L61A8:	dec     _gpit
	jne     L6183
;
; }
;
	rts

.endproc

; ---------------------------------------------------------------
; void __near__ scroll_draw_screen (void)
; ---------------------------------------------------------------

.segment	"CODE"

.proc	_scroll_draw_screen: near

.segment	"CODE"

;
; cx1 = (cam_pos >> 5); 
;
	lda     _cam_pos
	ldx     _cam_pos+1
	jsr     asrax4
	jsr     asrax1
	sta     _cx1
;
; if (cx1) cx1 --;
;
	lda     _cx1
	beq     L61AE
	sec
	sbc     #$01
	sta     _cx1
;
; if (cx1) cx1 --;
;
L61AE:	lda     _cx1
	beq     L61B1
	sec
	sbc     #$01
	sta     _cx1
;
; if (cx1) cx1 --;
;
L61B1:	lda     _cx1
	beq     L67E2
	sec
	sbc     #$01
	sta     _cx1
;
; cx2 = cx1 + 13; if (cx2 > 159) cx2 = 159;
;
L67E2:	lda     _cx1
	clc
	adc     #$0D
	sta     _cx2
	cmp     #$A0
	bcc     L67E3
	lda     #$9F
	sta     _cx2
;
; for (col_idx = cx1; col_idx <= cx2; col_idx ++) {
;
L67E3:	lda     _cx1
L67E6:	sta     _col_idx
	sec
	sbc     _cx2
	bcc     L61C1
	bne     L67E5
;
; scroll_draw_one_chunk_completely ();
;
L61C1:	jsr     _scroll_draw_one_chunk_completely
;
; for (col_idx = cx1; col_idx <= cx2; col_idx ++) {
;
	lda     _col_idx
	clc
	adc     #$01
	jmp     L67E6
;
; state_ctr = 0; col_v_offset = scr_v_offset = 0; col_idx_latest = 0xffff;
;
L67E5:	lda     #$00
	sta     _state_ctr
	sta     _scr_v_offset
	sta     _col_v_offset
	sta     _col_v_offset+1
	lda     #$FF
	sta     _col_idx_latest
;
; }
;
	rts

.endproc

; ---------------------------------------------------------------
; void __near__ enter_screen (__near__ const unsigned char *, __near__ __near__ function returning void *)
; ---------------------------------------------------------------

.segment	"CODE"

.proc	_enter_screen: near

.segment	"CODE"

;
; void enter_screen (const unsigned char *pal, void (*func) (void)) {
;
	jsr     pushax
;
; scroll (0, 0);
;
	jsr     push0
	jsr     _scroll
;
; bankswitch_prg_b (PRG_BANK_B_MAIN);
;
	lda     #$06
	jsr     _bankswitch_prg_b
;
; cls ();
;
	jsr     _cls
;
; (*func) ();
;
	ldy     #$01
	lda     (sp),y
	tax
	dey
	lda     (sp),y
	jsr     callax
;
; bankswitch_prg_a (PRG_BANK_A_MAIN_DATA);
;
	lda     #$04
	jsr     _bankswitch_prg_a
;
; pal_bg (pal);
;
	ldy     #$03
	lda     (sp),y
	tax
	dey
	lda     (sp),y
	jsr     _pal_bg
;
; ppu_on_all ();
;
	jsr     _ppu_on_all
;
; fade_in ();
;
	jsr     _fade_in
;
; }
;
	jmp     incsp4

.endproc

; ---------------------------------------------------------------
; void __near__ exit_cleanly (void)
; ---------------------------------------------------------------

.segment	"CODE"

.proc	_exit_cleanly: near

.segment	"CODE"

;
; oam_hide_rest (0);
;
	lda     #$00
	jsr     _oam_hide_rest
;
; music_stop ();
;
	jsr     _music_stop
;
; bankswitch_prg_b (PRG_BANK_B_MAIN);
;
	lda     #$06
	jsr     _bankswitch_prg_b
;
; fade_out ();
;
	jsr     _fade_out
;
; ppu_off (); 
;
	jmp     _ppu_off

.endproc

; ---------------------------------------------------------------
; void __near__ wait_time_or_input (void)
; ---------------------------------------------------------------

.segment	"CODE"

.proc	_wait_time_or_input: near

.segment	"CODE"

;
; rda = (pad_poll (0) != 0);
;
	lda     #$00
	jsr     _pad_poll
	cmp     #$00
	jsr     boolne
	sta     _rda
;
; while (game_time) {
;
	jmp     L61EC
;
; ticker ++; if (ticker == ticks) {
;
L61EA:	lda     _ticker
	clc
	adc     #$01
	sta     _ticker
	lda     _ticks
	cmp     _ticker
	bne     L61EF
;
; ticker = 0;
;
	lda     #$00
	sta     _ticker
;
; game_time --;
;
	lda     _game_time
	sec
	sbc     #$01
	sta     _game_time
;
; if (pad_poll (0)) {
;
L61EF:	lda     #$00
	jsr     _pad_poll
	tax
	beq     L67E9
;
; if (!rda) break;
;
	lda     _rda
	bne     L61F9
	rts
;
; rda = 0;
;
L67E9:	sta     _rda
;
; ppu_wait_nmi ();
;
L61F9:	jsr     _ppu_wait_nmi
;
; while (game_time) {
;
L61EC:	lda     _game_time
	bne     L61EA
;
; }
;
	rts

.endproc

; ---------------------------------------------------------------
; void __near__ do_screen (unsigned char)
; ---------------------------------------------------------------

.segment	"CODE"

.proc	_do_screen: near

.segment	"CODE"

;
; void do_screen (unsigned char seconds) {
;
	jsr     pusha
;
; game_time = seconds; ticker = 0;
;
	ldy     #$00
	lda     (sp),y
	sta     _game_time
	sty     _ticker
;
; wait_time_or_input ();
;
	jsr     _wait_time_or_input
;
; exit_cleanly ();
;
	jsr     _exit_cleanly
;
; }
;
	jmp     incsp1

.endproc

; ---------------------------------------------------------------
; void __near__ screen_title (void)
; ---------------------------------------------------------------

.segment	"CODE"

.proc	_screen_title: near

.segment	"CODE"

;
; bankswitch_prg_a (PRG_BANK_A_RLE_SCREENS);
;
	lda     #$03
	jsr     _bankswitch_prg_a
;
; bankswitch_prg_b (PRG_BANK_B_MAIN);
;
	lda     #$06
	jsr     _bankswitch_prg_b
;
; vram_adr (NAMETABLE_A);
;
	ldx     #$20
	lda     #$00
	jsr     _vram_adr
;
; vram_unrle (title_rle);
;
	lda     #<(_title_rle)
	ldx     #>(_title_rle)
	jsr     _vram_unrle
;
; tkrom_bankswitch (BG_BANK_0, CHR_BANK_FONT);
;
	lda     #$82
	jsr     pusha
	lda     #$09
	jsr     _tkrom_bankswitch
;
; tkrom_bankswitch (BG_BANK_1, CHR_BANK_TITLE);
;
	lda     #$83
	jsr     pusha
	lda     #$0E
	jsr     _tkrom_bankswitch
;
; tkrom_bankswitch (BG_BANK_2, CHR_BANK_TITLE + 1);
;
	lda     #$84
	jsr     pusha
	lda     #$0F
	jsr     _tkrom_bankswitch
;
; bankswitch_prg_b (PRG_BANK_B_MAIN);
;
	lda     #$06
	jsr     _bankswitch_prg_b
;
; if (first_time) {
;
	lda     _first_time
	beq     L6218
;
; p_s (10, 17, "PRESS START!");
;
	jsr     decsp2
	lda     #$0A
	ldy     #$01
	sta     (sp),y
	lda     #$11
	dey
	sta     (sp),y
	lda     #<(L621D)
	ldx     #>(L621D)
;
; } else {
;
	jmp     L67EA
;
; p_s (8, 16, "START  TO BEGIN%%SELECT TO CONTINUE");
;
L6218:	jsr     decsp2
	lda     #$08
	ldy     #$01
	sta     (sp),y
	lda     #$10
	dey
	sta     (sp),y
	lda     #<(L6223)
	ldx     #>(L6223)
L67EA:	jsr     _p_s
;
; p_s (5, 25, "@ 2017 THE MOJON TWINS");
;
	jsr     decsp2
	lda     #$05
	ldy     #$01
	sta     (sp),y
	lda     #$19
	dey
	sta     (sp),y
	lda     #<(L6228)
	ldx     #>(L6228)
	jmp     _p_s

.endproc

; ---------------------------------------------------------------
; void __near__ screen_game_over (void)
; ---------------------------------------------------------------

.segment	"CODE"

.proc	_screen_game_over: near

.segment	"CODE"

;
; tkrom_bankswitch (BG_BANK_0, CHR_BANK_FONT);
;
	lda     #$82
	jsr     pusha
	lda     #$09
	jsr     _tkrom_bankswitch
;
; bankswitch_prg_b (PRG_BANK_B_MAIN);
;
	lda     #$06
	jsr     _bankswitch_prg_b
;
; p_s (11, 14, "GAME OVER!");
;
	jsr     decsp2
	lda     #$0B
	ldy     #$01
	sta     (sp),y
	lda     #$0E
	dey
	sta     (sp),y
	lda     #<(L6233)
	ldx     #>(L6233)
	jmp     _p_s

.endproc

; ---------------------------------------------------------------
; void __near__ flush_buffer (void)
; ---------------------------------------------------------------

.segment	"CODE"

.proc	_flush_buffer: near

.segment	"CODE"

;
; *gp_ul = NT_UPD_EOF;
;
	lda     _gp_ul
	sta     ptr1
	lda     _gp_ul+1
	sta     ptr1+1
	lda     #$FF
	ldy     #$00
	sta     (ptr1),y
;
; ppu_wait_nmi ();
;
	jsr     _ppu_wait_nmi
;
; gp_ul = update_list;
;
	lda     #<(_update_list)
	sta     _gp_ul
	lda     #>(_update_list)
	sta     _gp_ul+1
;
; }
;
	rts

.endproc

; ---------------------------------------------------------------
; void __near__ cutscene_show (unsigned char)
; ---------------------------------------------------------------

.segment	"CODE"

.proc	_cutscene_show: near

.segment	"CODE"

;
; void cutscene_show (unsigned char n) {
;
	jsr     pusha
;
; ppu_on_all ();
;
	jsr     _ppu_on_all
;
; scroll (0, 472);
;
	jsr     push0
	ldx     #$01
	lda     #$D8
	jsr     _scroll
;
; fade_in ();
;
	jsr     _fade_in
;
; gp_gen = (unsigned char *) str_cuts0_index [n];
;
	ldx     #$00
	lda     (sp,x)
	asl     a
	bcc     L67EC
	inx
	clc
L67EC:	adc     #<(_str_cuts0_index)
	sta     ptr1
	txa
	adc     #>(_str_cuts0_index)
	sta     ptr1+1
	ldy     #$01
	lda     (ptr1),y
	sta     _gp_gen+1
	dey
	lda     (ptr1),y
	sta     _gp_gen
;
; reset = 1; clear = 0; cutscene_do = 1; 
;
	lda     #$01
	sta     _reset
	sty     _clear
	lda     #$01
	sta     _cutscene_do
;
; panic_exit = 0;
;
	sty     _panic_exit
;
; set_vram_update (update_list);
;
	lda     #<(_update_list)
	ldx     #>(_update_list)
	jsr     _set_vram_update
;
; while (cutscene_do) {
;
	jmp     L6250
;
; if (reset) {
;
L624E:	lda     _reset
	jeq     L6252
;
; if (clear) {
;
	lda     _clear
	jeq     L6254
;
; gp_addr = NAMETABLE_A + 2 + (TOP << 5);
;
	lda     #$22
	sta     _gp_addr
	sta     _gp_addr+1
;
; for (gpit = 0; gpit < 6; gpit ++) {
;
	lda     #$00
L67F6:	sta     _gpit
	cmp     #$06
	jcs     L67EF
;
; gp_ul = update_list;
;
	lda     #<(_update_list)
	ldx     #>(_update_list)
	sta     _gp_ul
	stx     _gp_ul+1
;
; UPDATE = MSB (gp_addr) | NT_UPD_HORZ;
;
	sta     regsave
	stx     regsave+1
	clc
	adc     #$01
	bcc     L6264
	inx
L6264:	sta     _gp_ul
	stx     _gp_ul+1
	lda     _gp_addr+1
	ora     #$40
	ldy     #$00
	sta     (regsave),y
;
; UPDATE = LSB (gp_addr);
;
	lda     _gp_ul
	ldx     _gp_ul+1
	sta     regsave
	stx     regsave+1
	clc
	adc     #$01
	bcc     L6269
	inx
L6269:	sta     _gp_ul
	stx     _gp_ul+1
	lda     _gp_addr
	sta     (regsave),y
;
; UPDATE = 32;
;
	lda     _gp_ul
	ldx     _gp_ul+1
	sta     regsave
	stx     regsave+1
	clc
	adc     #$01
	bcc     L626E
	inx
L626E:	sta     _gp_ul
	stx     _gp_ul+1
	lda     #$20
	sta     (regsave),y
;
; gpjt = 32; while (gpjt --) UPDATE = 63;
;
	sta     _gpjt
	jmp     L67EE
L6272:	lda     _gp_ul
	ldx     _gp_ul+1
	sta     regsave
	stx     regsave+1
	clc
	adc     #$01
	bcc     L6277
	inx
L6277:	sta     _gp_ul
	stx     _gp_ul+1
	lda     #$3F
	sta     (regsave),y
L67EE:	lda     _gpjt
	pha
	sec
	sbc     #$01
	sta     _gpjt
	pla
	tax
	bne     L6272
;
; *gp_ul = NT_UPD_EOF;
;
	lda     _gp_ul
	sta     ptr1
	lda     _gp_ul+1
	sta     ptr1+1
	lda     #$FF
	sta     (ptr1),y
;
; delay (4);
;
	lda     #$04
	jsr     _delay
;
; gp_addr += 64;
;
	lda     #$40
	clc
	adc     _gp_addr
	sta     _gp_addr
	bcc     L627F
	inc     _gp_addr+1
;
; for (gpit = 0; gpit < 6; gpit ++) {
;
L627F:	lda     _gpit
	clc
	adc     #$01
	jmp     L67F6
;
; } else clear = 1;
;
L6254:	lda     #$01
	sta     _clear
;
; rdy = TOP; rdx = 3;
;
L67EF:	lda     #$11
	sta     _rdy
	lda     #$03
	sta     _rdx
;
; reset = 0;
;
	lda     #$00
	sta     _reset
;
; flush = 0;
;
	sta     _flush
;
; rda = *gp_gen ++;
;
L6252:	lda     _gp_gen
	ldx     _gp_gen+1
	sta     regsave
	stx     regsave+1
	clc
	adc     #$01
	bcc     L628D
	inx
L628D:	sta     _gp_gen
	stx     _gp_gen+1
	ldy     #$00
	lda     (regsave),y
	sta     _rda
;
; if (!rda) {
;
	lda     _rda
	bne     L67F0
;
; cutscene_do = 0;
;
	sta     _cutscene_do
;
; } else if (rda == NEW_LINE) {
;
	jmp     L6250
L67F0:	lda     _rda
	cmp     #$01
	bne     L67F1
;
; rdx = 3; rdy += 2;
;
	lda     #$03
	sta     _rdx
	lda     #$02
	clc
	adc     _rdy
	sta     _rdy
;
; if (flush) flush_buffer ();
;
	lda     _flush
	jeq     L6250
	jsr     _flush_buffer
;
; } else if (rda == NEW_PAGE) {
;
	jmp     L6250
L67F1:	lda     _rda
	cmp     #$02
	bne     L629D
;
; while (pad_poll (0));
;
L62A1:	lda     #$00
	jsr     _pad_poll
	tax
	bne     L62A1
;
; if (flush) flush_buffer ();
;
	lda     _flush
	beq     L67F2
	jsr     _flush_buffer
;
; while (!pad_poll (0) & (PAD_A || PAD_B)); 
;
L62A9:	lda     #$00
L67F2:	jsr     _pad_poll
	jsr     bnega
	sta     ptr1
	stx     ptr1+1
	lda     #$01
	and     ptr1
	pha
	lda     #$00
	and     ptr1+1
	sta     tmp1
	pla
	ora     tmp1
	bne     L62A9
;
; reset = 1;
;
	lda     #$01
	sta     _reset
;
; } else {
;
	jmp     L6250
;
; if (!flush) gp_ul = update_list;
;
L629D:	lda     _flush
	bne     L67F4
	lda     #<(_update_list)
	sta     _gp_ul
	lda     #>(_update_list)
	sta     _gp_ul+1
;
; gp_addr = NAMETABLE_A + rdx + (rdy << 5); rdx ++;
;
L67F4:	lda     _rdx
	sta     ptr1
	tya
	clc
	adc     #$20
	sta     ptr1+1
	ldx     #$00
	lda     _rdy
	jsr     aslax4
	stx     tmp1
	asl     a
	rol     tmp1
	clc
	adc     ptr1
	sta     _gp_addr
	lda     tmp1
	adc     ptr1+1
	sta     _gp_addr+1
	lda     _rdx
	clc
	adc     #$01
	sta     _rdx
;
; UPDATE = MSB (gp_addr);
;
	lda     _gp_ul
	ldx     _gp_ul+1
	sta     regsave
	stx     regsave+1
	clc
	adc     #$01
	bcc     L62BA
	inx
L62BA:	sta     _gp_ul
	stx     _gp_ul+1
	lda     _gp_addr+1
	sta     (regsave),y
;
; UPDATE = LSB (gp_addr);
;
	lda     _gp_ul
	ldx     _gp_ul+1
	sta     regsave
	stx     regsave+1
	clc
	adc     #$01
	bcc     L62BF
	inx
L62BF:	sta     _gp_ul
	stx     _gp_ul+1
	lda     _gp_addr
	sta     (regsave),y
;
; UPDATE = rda;
;
	lda     _gp_ul
	ldx     _gp_ul+1
	sta     regsave
	stx     regsave+1
	clc
	adc     #$01
	bcc     L62C4
	inx
L62C4:	sta     _gp_ul
	stx     _gp_ul+1
	lda     _rda
	sta     (regsave),y
;
; if (!flush) {
;
	lda     _flush
	bne     L6250
;
; *gp_ul = NT_UPD_EOF;
;
	lda     _gp_ul
	sta     ptr1
	lda     _gp_ul+1
	sta     ptr1+1
	lda     #$FF
	sta     (ptr1),y
;
; gpit = 4; while (gpit --) {
;
	lda     #$04
	sta     _gpit
	jmp     L67F5
;
; ppu_wait_nmi ();
;
L62CC:	jsr     _ppu_wait_nmi
;
; rdb = pad_poll (0);
;
	lda     #$00
	jsr     _pad_poll
	sta     _rdb
;
; if (rdb & PAD_START) {
;
	and     #$08
	beq     L62D4
;
; cutscene_do = 0;
;
	lda     #$00
	sta     _cutscene_do
;
; panic_exit = 1;
;
	lda     #$01
	sta     _panic_exit
;
; break;
;
	jmp     L6250
;
; } else if (rdb) {
;
L62D4:	lda     _rdb
	beq     L67F5
;
; flush = 1;
;
	lda     #$01
	sta     _flush
;
; gp_ul = update_list;
;
	lda     #<(_update_list)
	sta     _gp_ul
	lda     #>(_update_list)
	sta     _gp_ul+1
;
; while (pad_poll (0));
;
L62E3:	lda     #$00
	jsr     _pad_poll
	tax
	bne     L62E3
;
; break;
;
	jmp     L6250
;
; gpit = 4; while (gpit --) {
;
L67F5:	lda     _gpit
	pha
	sec
	sbc     #$01
	sta     _gpit
	pla
	tax
	bne     L62CC
;
; while (cutscene_do) {
;
L6250:	lda     _cutscene_do
	jne     L624E
;
; while (pad_poll (0));
;
L62E8:	lda     #$00
	jsr     _pad_poll
	tax
	bne     L62E8
;
; set_vram_update (0);
;
	jsr     _set_vram_update
;
; fade_out ();
;
	jsr     _fade_out
;
; scroll (0,0);
;
	jsr     push0
	jsr     _scroll
;
; ppu_off ();
;
	jsr     _ppu_off
;
; }
;
	jmp     incsp1

.endproc

; ---------------------------------------------------------------
; void __near__ game_init (void)
; ---------------------------------------------------------------

.segment	"CODE"

.proc	_game_init: near

.segment	"CODE"

;
; tkrom_bankswitch (BG_BANK_0, CHR_BANK_TS_GAME);
;
	lda     #$82
	jsr     pusha
	lda     #$00
	jsr     _tkrom_bankswitch
;
; tkrom_bankswitch (BG_BANK_1, CHR_BANK_TS_GAME + 1);
;
	lda     #$83
	jsr     pusha
	lda     #$01
	jsr     _tkrom_bankswitch
;
; tkrom_bankswitch (BG_BANK_2, CHR_BANK_TS_GAME + 2);
;
	lda     #$84
	jsr     pusha
	lda     #$02
	jsr     _tkrom_bankswitch
;
; tkrom_bankswitch (BG_BANK_3, CHR_BANK_TS_GAME + 3);
;
	lda     #$85
	jsr     pusha
	lda     #$03
	jsr     _tkrom_bankswitch
;
; tkrom_bankswitch (FG_BANK_01, CHR_BANK_SPRITESET);
;
	lda     #$80
	jsr     pusha
	lda     #$12
	jsr     _tkrom_bankswitch
;
; tkrom_bankswitch (FG_BANK_23, CHR_BANK_SPRITESET + 2);
;
	lda     #$81
	jsr     pusha
	lda     #$14
	jsr     _tkrom_bankswitch
;
; bankswitch_prg_a (PRG_BANK_A_MAIN_DATA);
;
	lda     #$04
	jsr     _bankswitch_prg_a
;
; bankswitch_prg_b (PRG_BANK_B_MAIN);
;
	lda     #$06
	jsr     _bankswitch_prg_b
;
; c_pal_fg = mypal_game_fg0;
;
	lda     #<(_mypal_game_fg0)
	sta     _c_pal_fg
	lda     #>(_mypal_game_fg0)
	sta     _c_pal_fg+1
;
; c_enems_t = enems_t_0;
;
	lda     #<(_enems_t_0)
	sta     _c_enems_t
	lda     #>(_enems_t_0)
	sta     _c_enems_t+1
;
; c_enems_yx1 = enems_yx1_0;
;
	lda     #<(_enems_yx1_0)
	sta     _c_enems_yx1
	lda     #>(_enems_yx1_0)
	sta     _c_enems_yx1+1
;
; c_enems_yx2 = enems_yx2_0;
;
	lda     #<(_enems_yx2_0)
	sta     _c_enems_yx2
	lda     #>(_enems_yx2_0)
	sta     _c_enems_yx2+1
;
; c_enems_mn = enems_mn_0;
;
	lda     #<(_enems_mn_0)
	sta     _c_enems_mn
	lda     #>(_enems_mn_0)
	sta     _c_enems_mn+1
;
; c_hotspots_yx = hotspots_yx_0;
;
	lda     #<(_hotspots_yx_0)
	sta     _c_hotspots_yx
	lda     #>(_hotspots_yx_0)
	sta     _c_hotspots_yx+1
;
; c_hotspots_t = hotspots_t_0;
;
	lda     #<(_hotspots_t_0)
	sta     _c_hotspots_t
	lda     #>(_hotspots_t_0)
	sta     _c_hotspots_t+1
;
; guay_ct = 0;
;
	lda     #$00
	sta     _guay_ct
;
; if (pcontinues) {
;
	lda     _pcontinues
	beq     L67F8
;
; level = 1; n_pant = 9;
;
	lda     #$01
	sta     _level
	lda     #$09
	sta     _n_pant
;
; if (pinv != 0xff) hotspots_restore_carried_object ();
;
	lda     _pinv
	cmp     #$FF
	beq     L6322
	jsr     _hotspots_restore_carried_object
;
; } else {
;
	jmp     _player_init
;
; stage = 0;
;
L67F8:	sta     _stage
;
; level = LEVEL_INI; n_pant = SCR_INI; 
;
	lda     #$03
	sta     _level
	lda     #$09
	sta     _n_pant
;
; gpit = 4; while (gpit --) gs_flags [gpit] = 0; 
;
	lda     #$04
	sta     _gpit
	jmp     L67F9
L632B:	ldy     _gpit
	lda     #$00
	sta     _gs_flags,y
L67F9:	lda     _gpit
	pha
	sec
	sbc     #$01
	sta     _gpit
	pla
	tax
	bne     L632B
;
; hotspots_init ();
;
	jsr     _hotspots_init
;
; player_init (); // Remember pinv is reset here.
;
L6322:	jmp     _player_init

.endproc

; ---------------------------------------------------------------
; void __near__ game_strip_setup (void)
; ---------------------------------------------------------------

.segment	"CODE"

.proc	_game_strip_setup: near

.segment	"CODE"

;
; base_pant = (level << 4) + (level << 2); // * 20 
;
	ldx     #$00
	lda     _level
	jsr     aslax4
	sta     ptr1
	stx     ptr1+1
	ldx     #$00
	lda     _level
	jsr     aslax2
	clc
	adc     ptr1
	sta     _base_pant
	txa
	adc     ptr1+1
;
; map_ptr = map_0 + (base_pant << 7) + (base_pant << 6); // * 192
;
	ldx     #$00
	lda     _base_pant
	jsr     aslax4
	jsr     aslax3
	clc
	adc     #<(_map_0)
	sta     ptr1
	txa
	adc     #>(_map_0)
	sta     ptr1+1
	ldx     #$00
	lda     _base_pant
	jsr     aslax4
	jsr     aslax2
	clc
	adc     ptr1
	sta     _map_ptr
	txa
	adc     ptr1+1
	sta     _map_ptr+1
;
; px_world = (n_pant << 8) | prx;
;
	lda     _prx
	sta     _px_world
	lda     _n_pant
	sta     _px_world+1
;
; section_x0 = 0; section_x1 = 4864; // 320*16-256
;
	lda     #$00
	sta     _section_x0
	sta     _section_x0+1
	ldx     #$13
	sta     _section_x1
	stx     _section_x1+1
;
; section = (signed int *) sections [level]; gpit = 1; while (section [gpit] < 5120) {
;
	tax
	lda     _level
	asl     a
	bcc     L67FF
	inx
	clc
L67FF:	adc     #<(_sections)
	sta     ptr1
	txa
	adc     #>(_sections)
	sta     ptr1+1
	ldy     #$01
	lda     (ptr1),y
	sta     _section+1
	dey
	lda     (ptr1),y
	sta     _section
	ldx     #$00
	lda     #$01
	sta     _gpit
	jmp     L6804
;
; if (px_world < section [gpit]) {
;
L634A:	lda     _px_world
	ldx     _px_world+1
	jsr     pushax
	ldx     #$00
	lda     _gpit
	asl     a
	bcc     L6800
	inx
	clc
L6800:	adc     _section
	sta     ptr1
	txa
	adc     _section+1
	sta     ptr1+1
	ldy     #$01
	lda     (ptr1),y
	tax
	dey
	lda     (ptr1),y
	jsr     tosicmp
	bpl     L6350
;
; section_x1 = section [gpit] - 256;
;
	ldx     #$00
	lda     _gpit
	asl     a
	bcc     L6801
	inx
	clc
L6801:	adc     _section
	sta     ptr1
	txa
	adc     _section+1
	sta     ptr1+1
	ldy     #$01
	lda     (ptr1),y
	tax
	dey
	lda     (ptr1),y
	dex
	sta     _section_x1
	stx     _section_x1+1
;
; break;
;
	jmp     _camera_do
;
; section_x0 = section [gpit];
;
L6350:	ldx     #$00
	lda     _gpit
	asl     a
	bcc     L6802
	inx
	clc
L6802:	adc     _section
	sta     ptr1
	txa
	adc     _section+1
	sta     ptr1+1
	ldy     #$01
	lda     (ptr1),y
	sta     _section_x0+1
	dey
	lda     (ptr1),y
	sta     _section_x0
;
; gpit ++;
;
	lda     _gpit
	clc
	adc     #$01
	sta     _gpit
;
; section = (signed int *) sections [level]; gpit = 1; while (section [gpit] < 5120) {
;
	ldx     #$00
L6804:	lda     _gpit
	asl     a
	bcc     L6803
	inx
	clc
L6803:	adc     _section
	sta     ptr1
	txa
	adc     _section+1
	sta     ptr1+1
	iny
	lda     (ptr1),y
	tax
	dey
	lda     (ptr1),y
	cmp     #$00
	txa
	sbc     #$14
	bvc     L634F
	eor     #$80
L634F:	jmi     L634A
;
; camera_do ();
;
	jmp     _camera_do

.endproc

; ---------------------------------------------------------------
; void __near__ game_stuff_preload (void)
; ---------------------------------------------------------------

.segment	"CODE"

.proc	_game_stuff_preload: near

.segment	"CODE"

;
; cam_pant = MSB (cam_pos);
;
	lda     _cam_pos+1
	sta     _cam_pant
;
; if (cam_pant == cam_pant_old) return;
;
	lda     _cam_pant_old
	cmp     _cam_pant
	beq     L635B
;
; if (cam_pant > cam_pant_old) rdpant = cam_pant + 1;
;
	lda     _cam_pant
	sec
	sbc     _cam_pant_old
	bcc     L6808
	beq     L6808
	lda     _cam_pant
	clc
	adc     #$01
;
; else rdpant = cam_pant; 
;
	jmp     L6806
L6808:	lda     _cam_pant
L6806:	sta     _rdpant
;
; cam_pant_old = cam_pant;
;
	lda     _cam_pant
	sta     _cam_pant_old
;
; bankswitch_prg_b (PRG_BANK_B_ENEMS);
;
	lda     #$07
	jsr     _bankswitch_prg_b
;
; enems_load ();
;
	jsr     _enems_load
;
; bankswitch_prg_b (PRG_BANK_B_MAIN);
;
	lda     #$06
	jsr     _bankswitch_prg_b
;
; hotspots_load ();
;
	jmp     _hotspots_load
;
; }
;
L635B:	rts

.endproc

; ---------------------------------------------------------------
; void __near__ game_loop (void)
; ---------------------------------------------------------------

.segment	"CODE"

.proc	_game_loop: near

.segment	"CODE"

;
; bankswitch_prg_a (PRG_BANK_A_MAIN_DATA);
;
	lda     #$04
	jsr     _bankswitch_prg_a
;
; bankswitch_prg_b (PRG_BANK_B_MAIN);
;
	lda     #$06
	jsr     _bankswitch_prg_b
;
; if (!soft_reenter) {
;
	lda     _soft_reenter
	bne     L6378
;
; c_pal_bg = c_pal_bgs [stage];
;
	tax
	lda     _stage
	asl     a
	bcc     L6810
	inx
	clc
L6810:	adc     #<(_c_pal_bgs)
	sta     ptr1
	txa
	adc     #>(_c_pal_bgs)
	sta     ptr1+1
	ldy     #$01
	lda     (ptr1),y
	tax
	dey
	lda     (ptr1),y
	sta     _c_pal_bg
	stx     _c_pal_bg+1
;
; pal_bg (c_pal_bg);
;
	jsr     _pal_bg
;
; pal_spr (c_pal_fg);
;
	lda     _c_pal_fg
	ldx     _c_pal_fg+1
	jsr     _pal_spr
;
; palfx_init ();
;
	jsr     _palfx_init
;
; bg_object_init ();
;
	jsr     _bg_object_init
;
; game_strip_setup ();
;
	jsr     _game_strip_setup
;
; hud_and_split_setup ();
;
L6378:	jsr     _hud_and_split_setup
;
; bankswitch_prg_a (PRG_BANK_A_SCROLL);
;
	lda     #$00
	jsr     _bankswitch_prg_a
;
; bankswitch_prg_b (PRG_BANK_B_SCROLL);
;
	lda     #$01
	jsr     _bankswitch_prg_b
;
; scroll_draw_screen ();
;
	jsr     _scroll_draw_screen
;
; ppu_on_all ();
;
	jsr     _ppu_on_all
;
; set_vram_update (update_list);
;
	lda     #<(_update_list)
	ldx     #>(_update_list)
	jsr     _set_vram_update
;
; bankswitch_prg_a (PRG_BANK_A_MAIN_DATA);
;
	lda     #$04
	jsr     _bankswitch_prg_a
;
; bankswitch_prg_b (PRG_BANK_B_MAIN);
;
	lda     #$06
	jsr     _bankswitch_prg_b
;
; scroll_state = SCROLL_STATE_FREE;
;
	lda     #$01
	sta     _scroll_state
;
; for (frame_counter = 0; frame_counter < 3; frame_counter ++) {
;
	lda     #$00
L6826:	sta     _frame_counter
	cmp     #$03
	bcs     L6394
;
; gp_ul = update_list;
;
	lda     #<(_update_list)
	sta     _gp_ul
	lda     #>(_update_list)
	sta     _gp_ul+1
;
; bg_object_do ();
;
	jsr     _bg_object_do
;
; *gp_ul = NT_UPD_EOF;
;
	lda     _gp_ul
	sta     ptr1
	lda     _gp_ul+1
	sta     ptr1+1
	lda     #$FF
	ldy     #$00
	sta     (ptr1),y
;
; ppu_wait_nmi ();
;
	jsr     _ppu_wait_nmi
;
; for (frame_counter = 0; frame_counter < 3; frame_counter ++) {
;
	lda     _frame_counter
	clc
	adc     #$01
	jmp     L6826
;
; if (!soft_reenter) {
;
L6394:	lda     _soft_reenter
	bne     L6814
;
; cam_pant = MSB (cam_pos);
;
	lda     _cam_pos+1
	sta     _cam_pant
;
; rdpant = cam_pant; 
;
	sta     _rdpant
;
; bankswitch_prg_b (PRG_BANK_B_ENEMS);
;
	lda     #$07
	jsr     _bankswitch_prg_b
;
; enems_load (); 
;
	jsr     _enems_load
;
; bankswitch_prg_b (PRG_BANK_B_MAIN);
;
	lda     #$06
	jsr     _bankswitch_prg_b
;
; hotspots_load ();
;
	jsr     _hotspots_load
;
; rdpant = cam_pant + 1; 
;
	lda     _cam_pant
	clc
	adc     #$01
	sta     _rdpant
;
; bankswitch_prg_b (PRG_BANK_B_ENEMS);
;
	lda     #$07
	jsr     _bankswitch_prg_b
;
; enems_load (); 
;
	jsr     _enems_load
;
; bankswitch_prg_b (PRG_BANK_B_MAIN);
;
	lda     #$06
	jsr     _bankswitch_prg_b
;
; hotspots_load ();
;
	jsr     _hotspots_load
;
; cam_pant_old = MSB (cam_pos);
;
	lda     _cam_pos+1
	sta     _cam_pant_old
;
; SCR_BUFFER_PTR_UPD;
;
L6814:	lda     _n_pant
	and     #$01
	beq     L63C4
	lda     #$C0
L63C4:	clc
	adc     #<(_scr_buffer)
	sta     _scr_buffer_ptr
	lda     #$00
	adc     #>(_scr_buffer)
	sta     _scr_buffer_ptr+1
;
; fade_in_split ();
;
	jsr     _fade_in_split
;
; if (!cutscene) {
;
	lda     _cutscene
	bne     L6816
;
; if (!music_on) {
;
	lda     _music_on
	bne     L63C9
;
; music_play (MUSIC_INGAME_BASE + stage);
;
	lda     _stage
	clc
	adc     #$01
	jsr     _music_play
;
; music_on = 1;
;
	lda     #$01
	sta     _music_on
;
; } else music_pause (0);
;
	jmp     L6816
L63C9:	lda     #$00
	jsr     _music_pause
;
; soft_reenter = game_res = frame_counter = 0;
;
L6816:	lda     #$00
	sta     _frame_counter
	sta     _game_res
	sta     _soft_reenter
;
; paused = no_ct = tt_ct = half_life = psignal = 0;
;
	sta     _psignal
	sta     _half_life
	sta     _tt_ct
	sta     _no_ct
	sta     _paused
;
; while (!game_res) {
;
	jmp     L63DF
;
; if (!paused) {
;
L63DD:	lda     _paused
	bne     L63E1
;
; half_life = 1 - half_life;
;
	lda     #$01
	sec
	sbc     _half_life
	sta     _half_life
;
; frame_counter ++;
;
	lda     _frame_counter
	clc
	adc     #$01
	sta     _frame_counter
;
; palfx_do ();
;
	jsr     _palfx_do
;
; gp_ul = update_list;
;
L63E1:	lda     #<(_update_list)
	sta     _gp_ul
	lda     #>(_update_list)
	sta     _gp_ul+1
;
; pad_this_frame = pad0;
;
	lda     _pad0
	sta     _pad_this_frame
;
; pad0 = pad_poll (0);
;
	lda     #$00
	jsr     _pad_poll
	sta     _pad0
;
; pad_this_frame = (pad_this_frame ^ pad0) & pad0;
;
	eor     _pad_this_frame
	sta     ptr1
	lda     _pad0
	and     ptr1
	sta     _pad_this_frame
;
; if (pad_this_frame & PAD_START) {
;
	and     #$08
	beq     L63F1
;
; sfx_play (SFX_PAUSE, SC_LEVEL);
;
	lda     #$0C
	jsr     pusha
	lda     #$01
	jsr     _sfx_play
;
; if (paused) { 
;
	lda     _paused
	beq     L63F6
;
; pal_bright (4); 
;
	lda     #$04
	jsr     _pal_bright
;
; music_pause (0);
;
	lda     #$00
;
; } else { 
;
	jmp     L680C
;
; pal_bright (3);
;
L63F6:	lda     #$03
	jsr     _pal_bright
;
; music_pause (1);
;
	lda     #$01
L680C:	jsr     _music_pause
;
; paused = !paused;
;
	lda     _paused
	jsr     bnega
	sta     _paused
;
; tkrom_bankswitch (BG_BANK_0, CHR_BANK_TS_ANIM + ((frame_counter >> 3) & 3));
;
L63F1:	lda     #$82
	jsr     pusha
	lda     _frame_counter
	lsr     a
	lsr     a
	lsr     a
	and     #$03
	clc
	adc     #$04
	jsr     _tkrom_bankswitch
;
; split (cam_pos & 0x1ff, SCROLL_Y);
;
	lda     _cam_pos+1
	and     #$01
	tax
	lda     _cam_pos
	jsr     pushax
	ldx     #$01
	lda     #$BC
	jsr     _split
;
; if (!paused) {
;
	lda     _paused
	bne     L640C
;
; game_stuff_preload ();
;
	jsr     _game_stuff_preload
;
; if (!ntsc || fskip_ctr < 5) {
;
	lda     _ntsc
	beq     L6817
	lda     _fskip_ctr
	cmp     #$05
	bcs     L6818
;
; oam_index = 28;
;
L6817:	lda     #$1C
	sta     _oam_index
;
; if (cutscene) {
;
	lda     _cutscene
	beq     L6414
;
; bg_object_do ();
;
	jsr     _bg_object_do
;
; } else {
;
	jmp     L680D
;
; player_move ();
;
L6414:	jsr     _player_move
;
; camera_do ();
;
	jsr     _camera_do
;
; bg_object_do ();
;
	jsr     _bg_object_do
;
; bankswitch_prg_b (PRG_BANK_B_ENEMS);
;
	lda     #$07
	jsr     _bankswitch_prg_b
;
; enems_do ();
;
	jsr     _enems_do
;
; bankswitch_prg_b (PRG_BANK_B_MAIN);
;
	lda     #$06
	jsr     _bankswitch_prg_b
;
; player_render ();
;
	jsr     _player_render
;
; hotspots_do ();
;
L680D:	jsr     _hotspots_do
;
; hud_do ();
;
	jsr     _hud_do
;
; oam_hide_rest (oam_index);
;
	lda     _oam_index
	jsr     _oam_hide_rest
;
; fskip_ctr ++; if (fskip_ctr == 6) fskip_ctr = 0;
;
L6818:	lda     _fskip_ctr
	clc
	adc     #$01
	sta     _fskip_ctr
	cmp     #$06
	bne     L6427
	lda     #$00
	sta     _fskip_ctr
;
; bankswitch_prg_a (PRG_BANK_A_SCROLL);
;
L6427:	lda     #$00
	jsr     _bankswitch_prg_a
;
; bankswitch_prg_b (PRG_BANK_B_SCROLL);
;
	lda     #$01
	jsr     _bankswitch_prg_b
;
; scroll_to ();
;
	jsr     _scroll_to
;
; bankswitch_prg_a (PRG_BANK_A_MAIN_DATA);
;
	lda     #$04
	jsr     _bankswitch_prg_a
;
; bankswitch_prg_b (PRG_BANK_B_MAIN);
;
	lda     #$06
	jsr     _bankswitch_prg_b
;
; *gp_ul = NT_UPD_EOF;
;
L640C:	lda     _gp_ul
	sta     ptr1
	lda     _gp_ul+1
	sta     ptr1+1
	lda     #$FF
	ldy     #$00
	sta     (ptr1),y
;
; ppu_wait_nmi ();
;
	jsr     _ppu_wait_nmi
;
; if (psignal) {
;
	lda     _psignal
	beq     L6437
;
; if (psignal == PLAYER_KILLED) {
;
	cmp     #$05
	bne     L6819
;
; music_pause (1);
;
	lda     #$01
	jsr     _music_pause
;
; delay_split (ticks);
;
	lda     _ticks
	jsr     _delay_split
;
; } else if (psignal == PLAYER_WINS) {
;
	jmp     L681A
L6819:	lda     _psignal
	cmp     #$09
	bne     L681A
;
; music_stop  ();
;
	jsr     _music_stop
;
; delay_split (8);
;
	lda     #$08
	jsr     _delay_split
;
; music_play (MUSIC_CLEAR);
;
	lda     #$05
	jsr     _music_play
;
; ticker = ticks; game_time = 7;
;
	lda     _ticks
	sta     _ticker
	lda     #$07
	sta     _game_time
;
; while (game_time) {
;
	jmp     L644D
;
; if (ticker) ticker --; else {
;
L644B:	lda     _ticker
	beq     L644F
	pha
	sec
	sbc     #$01
	sta     _ticker
	jmp     L680E
;
; ticker = ticks; game_time --;
;
L644F:	lda     _ticks
	sta     _ticker
	lda     _game_time
	pha
	sec
	sbc     #$01
	sta     _game_time
L680E:	pla
;
; split_and_wait ();
;
	jsr     _split_and_wait
;
; while (game_time) {
;
L644D:	lda     _game_time
	bne     L644B
;
; music_stop ();
;
	jsr     _music_stop
;
; game_res = psignal;
;
L681A:	lda     _psignal
	sta     _game_res
;
; if (px_world < section_x0 + 4) game_res = PLAYER_EXIT_LEFT;
;
L6437:	lda     _px_world
	ldx     _px_world+1
	jsr     pushax
	lda     _section_x0
	ldx     _section_x0+1
	clc
	adc     #$04
	bcc     L645C
	inx
L645C:	jsr     tosicmp
	bpl     L645A
	lda     #$03
;
; else if (px_world > section_x1 + 244) game_res = PLAYER_EXIT_RIGHT; 
;
	jmp     L680F
L645A:	lda     _px_world
	ldx     _px_world+1
	jsr     pushax
	lda     _section_x1
	ldx     _section_x1+1
	clc
	adc     #$F4
	bcc     L6462
	inx
L6462:	jsr     tosicmp
	bmi     L6460
	beq     L6460
	lda     #$04
L680F:	sta     _game_res
;
; if (pad0 & PAD_SELECT) {
;
L6460:	lda     _pad0
	and     #$04
	beq     L681B
;
; sfx_play (SFX_SHOW_MAP, SC_PLAYER);
;
	lda     #$09
	jsr     pusha
	lda     #$00
	jsr     _sfx_play
;
; game_res = PLAYER_MAP;
;
	lda     #$0B
	sta     _game_res
;
; soft_reenter = 1;
;
	lda     #$01
	sta     _soft_reenter
;
; if ((cutscene == 1 && frame_counter == 0) || (cutscene == 2 && frame_counter == 90)) game_res = PLAYER_RESTORE;
;
L681B:	lda     _cutscene
	cmp     #$01
	bne     L681E
	lda     _frame_counter
	beq     L6825
L681E:	lda     _cutscene
	cmp     #$02
	bne     L63DF
	lda     _frame_counter
	cmp     #$5A
	bne     L63DF
L6825:	lda     #$08
	sta     _game_res
;
; while (!game_res) {
;
L63DF:	lda     _game_res
	jeq     L63DD
;
; fade_out_split ();
;
	jsr     _fade_out_split
;
; oam_hide_rest (4);
;
	lda     #$04
	jsr     _oam_hide_rest
;
; set_vram_update (0);
;
	ldx     #$00
	txa
	jsr     _set_vram_update
;
; ppu_off ();
;
	jmp     _ppu_off

.endproc

; ---------------------------------------------------------------
; void __near__ game_title (void)
; ---------------------------------------------------------------

.segment	"CODE"

.proc	_game_title: near

.segment	"CODE"

;
; enter_screen (mypal_game_bg0, screen_title);
;
	lda     #<(_mypal_game_bg0)
	ldx     #>(_mypal_game_bg0)
	jsr     pushax
	lda     #<(_screen_title)
	ldx     #>(_screen_title)
	jsr     _enter_screen
;
; music_play (MUSIC_TITLE);
;
	lda     #$00
	jsr     _music_play
;
; pad0 = pad_poll (0);
;
L682C:	lda     #$00
L6827:	jsr     _pad_poll
	sta     _pad0
;
; if (pad0 & PAD_START) {
;
	and     #$08
	beq     L6828
;
; pcontinues = 0; break;
;
	lda     #$00
	jmp     L682D
;
; if ((pad0 & PAD_SELECT) && !first_time) {
;
L6828:	lda     _pad0
	and     #$04
	beq     L6827
	lda     _first_time
	bne     L682C
;
; pcontinues = 1; break;
;
	lda     #$01
L682D:	sta     _pcontinues
;
; music_stop ();
;
	jsr     _music_stop
;
; sfx_play (SFX_PAUSE, SC_LEVEL);
;
	lda     #$0C
	jsr     pusha
	lda     #$01
	jsr     _sfx_play
;
; fade_out ();
;
	jsr     _fade_out
;
; if (!pcontinues) delay (halfticks);
;
	lda     _pcontinues
	bne     L649C
	lda     _halfticks
	jsr     _delay
;
; ppu_off ();
;
L649C:	jsr     _ppu_off
;
; first_time = 0;
;
	lda     #$00
	sta     _first_time
;
; }
;
	rts

.endproc

; ---------------------------------------------------------------
; void __near__ game_over (void)
; ---------------------------------------------------------------

.segment	"CODE"

.proc	_game_over: near

.segment	"CODE"

;
; enter_screen (mypal_game_bg0, screen_game_over);
;
	lda     #<(_mypal_game_bg0)
	ldx     #>(_mypal_game_bg0)
	jsr     pushax
	lda     #<(_screen_game_over)
	ldx     #>(_screen_game_over)
	jsr     _enter_screen
;
; music_play (MUSIC_GAME_OVER);
;
	lda     #$06
	jsr     _music_play
;
; do_screen (10);
;
	lda     #$0A
	jmp     _do_screen

.endproc

; ---------------------------------------------------------------
; void __near__ game_ending (void)
; ---------------------------------------------------------------

.segment	"CODE"

.proc	_game_ending: near

.segment	"CODE"

;
; bankswitch_prg_b (PRG_BANK_B_MAIN);
;
	lda     #$06
	jsr     _bankswitch_prg_b
;
; tkrom_bankswitch (BG_BANK_0, CHR_BANK_FONT);
;
	lda     #$82
	jsr     pusha
	lda     #$09
	jsr     _tkrom_bankswitch
;
; tkrom_bankswitch (BG_BANK_1, CHR_BANK_ENDING + 1);
;
	lda     #$83
	jsr     pusha
	lda     #$11
	jsr     _tkrom_bankswitch
;
; tkrom_bankswitch (BG_BANK_2, CHR_BANK_ENDING + 2);
;
	lda     #$84
	jsr     pusha
	lda     #$12
	jsr     _tkrom_bankswitch
;
; bankswitch_prg_a (PRG_BANK_A_MAIN_DATA);
;
	lda     #$04
	jsr     _bankswitch_prg_a
;
; pal_bg (mypal_ending);
;
	lda     #<(_mypal_ending)
	ldx     #>(_mypal_ending)
	jsr     _pal_bg
;
; bankswitch_prg_a (PRG_BANK_A_RLE_SCREENS);
;
	lda     #$03
	jsr     _bankswitch_prg_a
;
; vram_adr (NAMETABLE_A);
;
	ldx     #$20
	lda     #$00
	jsr     _vram_adr
;
; vram_unrle (ending_rle);
;
	lda     #<(_ending_rle)
	ldx     #>(_ending_rle)
	jsr     _vram_unrle
;
; music_play (MUSIC_TITLE);
;
	lda     #$00
	jsr     _music_play
;
; cutscene_show (3);
;
	lda     #$03
	jsr     _cutscene_show
;
; music_stop ();
;
	jsr     _music_stop
;
; delay (ticks);
;
	lda     _ticks
	jmp     _delay

.endproc

; ---------------------------------------------------------------
; void __near__ game_intro (void)
; ---------------------------------------------------------------

.segment	"CODE"

.proc	_game_intro: near

.segment	"CODE"

;
; bankswitch_prg_b (PRG_BANK_B_MAIN);
;
	lda     #$06
	jsr     _bankswitch_prg_b
;
; tkrom_bankswitch (BG_BANK_0, CHR_BANK_FONT);
;
	lda     #$82
	jsr     pusha
	lda     #$09
	jsr     _tkrom_bankswitch
;
; music_play (MUSIC_CUTSCENE);
;
	lda     #$07
	jsr     _music_play
;
; tkrom_bankswitch (BG_BANK_1, CHR_BANK_CUTS1 + 0);
;
	lda     #$83
	jsr     pusha
	lda     #$0A
	jsr     _tkrom_bankswitch
;
; tkrom_bankswitch (BG_BANK_2, CHR_BANK_CUTS1 + 1);
;
	lda     #$84
	jsr     pusha
	lda     #$0B
	jsr     _tkrom_bankswitch
;
; bankswitch_prg_a (PRG_BANK_A_RLE_SCREENS);
;
	lda     #$03
	jsr     _bankswitch_prg_a
;
; vram_adr (NAMETABLE_A);
;
	ldx     #$20
	lda     #$00
	jsr     _vram_adr
;
; vram_unrle (plate1_rle);
;
	lda     #<(_plate1_rle)
	ldx     #>(_plate1_rle)
	jsr     _vram_unrle
;
; bankswitch_prg_a (PRG_BANK_A_MAIN_DATA);
;
	lda     #$04
	jsr     _bankswitch_prg_a
;
; cutscene_show (0);
;
	lda     #$00
	jsr     _cutscene_show
;
; if (!panic_exit) {
;
	lda     _panic_exit
	bne     L64E0
;
; tkrom_bankswitch (BG_BANK_1, CHR_BANK_CUTS2 + 0);
;
	lda     #$83
	jsr     pusha
	lda     #$0C
	jsr     _tkrom_bankswitch
;
; tkrom_bankswitch (BG_BANK_2, CHR_BANK_CUTS2 + 1);
;
	lda     #$84
	jsr     pusha
	lda     #$0D
	jsr     _tkrom_bankswitch
;
; bankswitch_prg_a (PRG_BANK_A_RLE_SCREENS);
;
	lda     #$03
	jsr     _bankswitch_prg_a
;
; vram_adr (NAMETABLE_A);
;
	ldx     #$20
	lda     #$00
	jsr     _vram_adr
;
; vram_unrle (plate2_rle);
;
	lda     #<(_plate2_rle)
	ldx     #>(_plate2_rle)
	jsr     _vram_unrle
;
; bankswitch_prg_a (PRG_BANK_A_MAIN_DATA);
;
	lda     #$04
	jsr     _bankswitch_prg_a
;
; cutscene_show (1);
;
	lda     #$01
	jsr     _cutscene_show
;
; if (!panic_exit) {
;
L64E0:	lda     _panic_exit
	bne     L64F2
;
; cls ();
;
	jsr     _cls
;
; cutscene_show (2);
;
	lda     #$02
	jsr     _cutscene_show
;
; music_stop ();
;
L64F2:	jmp     _music_stop

.endproc

; ---------------------------------------------------------------
; void __near__ minimap_do (void)
; ---------------------------------------------------------------

.segment	"CODE"

.proc	_minimap_do: near

.segment	"CODE"

;
; tkrom_bankswitch (BG_BANK_3, CHR_BANK_MAP);
;
	lda     #$85
	jsr     pusha
	lda     #$08
	jsr     _tkrom_bankswitch
;
; bankswitch_prg_a (PRG_BANK_A_RLE_SCREENS);
;
	lda     #$03
	jsr     _bankswitch_prg_a
;
; scroll (0,0);
;
	jsr     push0
	jsr     _scroll
;
; vram_adr (NAMETABLE_A);
;
	ldx     #$20
	lda     #$00
	jsr     _vram_adr
;
; vram_unrle (map_rle);
;
	lda     #<(_map_rle)
	ldx     #>(_map_rle)
	jsr     _vram_unrle
;
; bankswitch_prg_a (PRG_BANK_A_MAIN_DATA);
;
	lda     #$04
	jsr     _bankswitch_prg_a
;
; rdx = 6; rdy = 12;
;
	lda     #$06
	sta     _rdx
	lda     #$0C
	sta     _rdy
;
; for (gpit = 0; gpit < 80; gpit ++) {
;
	lda     #$00
	sta     _gpit
	tax
L6832:	lda     _gpit
	cmp     #$50
	jcs     L6839
;
; rda = 0;
;
	stx     _rda
;
; if (hrt [gpit] > 1 && hrt [gpit] < 0x20) {
;
	ldy     _gpit
	lda     _hrt,y
	cmp     #$02
	bcc     L6526
	ldy     _gpit
	lda     _hrt,y
	cmp     #$20
	bcs     L6526
;
; if (hrt [gpit] < 16) {
;
	ldy     _gpit
	lda     _hrt,y
	cmp     #$10
	bcs     L6836
;
; rda = 224 + hrt [gpit];
;
	ldy     _gpit
	lda     _hrt,y
	clc
	adc     #$E0
;
; } else rda = 254;
;
	jmp     L6830
L6836:	lda     #$FE
L6830:	sta     _rda
;
; if (rda) {
;
L6526:	lda     _rda
	beq     L6837
;
; vram_adr (NAMETABLE_A + (rdy << 5) + rdx);
;
	lda     _rdy
	jsr     aslax4
	stx     tmp1
	asl     a
	rol     tmp1
	pha
	lda     tmp1
	clc
	adc     #$20
	tax
	pla
	clc
	adc     _rdx
	bcc     L682E
	inx
L682E:	jsr     _vram_adr
;
; vram_put (rda);
;
	lda     _rda
	jsr     _vram_put
;
; rdx ++; 
;
L6837:	lda     _rdx
	clc
	adc     #$01
	sta     _rdx
;
; if (rdx == 26) { rdy ++; rdx = 6; }
;
	ldx     #$00
	lda     _rdx
	cmp     #$1A
	bne     L6838
	lda     _rdy
	clc
	adc     #$01
	sta     _rdy
	lda     #$06
	sta     _rdx
;
; for (gpit = 0; gpit < 80; gpit ++) {
;
L6838:	lda     _gpit
	clc
	adc     #$01
	sta     _gpit
	jmp     L6832
;
; vram_adr (NAMETABLE_A + ((12 + level) << 5) + 6 + n_pant);
;
L6839:	lda     _level
	clc
	adc     #$0C
	bcc     L653A
	inx
L653A:	jsr     shlax4
	stx     tmp1
	asl     a
	rol     tmp1
	pha
	lda     tmp1
	clc
	adc     #$20
	tax
	pla
	clc
	adc     #$06
	bcc     L6831
	inx
	clc
L6831:	adc     _n_pant
	bcc     L682F
	inx
L682F:	jsr     _vram_adr
;
; vram_put (224);
;
	lda     #$E0
	jsr     _vram_put
;
; pal_bg (mypal_game_bg0);
;
	lda     #<(_mypal_game_bg0)
	ldx     #>(_mypal_game_bg0)
	jsr     _pal_bg
;
; ppu_on_all ();
;
	jsr     _ppu_on_all
;
; fade_in ();
;
	jsr     _fade_in
;
; rda = pad0;
;
L683A:	lda     _pad0
	sta     _rda
;
; pad0 = pad_poll (0);
;
	lda     #$00
	jsr     _pad_poll
	sta     _pad0
;
; rda = (rda ^ pad0) & pad0;
;
	eor     _rda
	sta     ptr1
	lda     _pad0
	and     ptr1
	sta     _rda
;
; if (rda) break;
;
	lda     _rda
	beq     L683A
;
; fade_out ();
;
	jsr     _fade_out
;
; ppu_off ();
;
	jsr     _ppu_off
;
; pal_bg (c_pal_bg);
;
	lda     _c_pal_bg
	ldx     _c_pal_bg+1
	jsr     _pal_bg
;
; tkrom_bankswitch (BG_BANK_3, CHR_BANK_TS_GAME + 3);
;
	lda     #$85
	jsr     pusha
	lda     #$03
	jmp     _tkrom_bankswitch

.endproc

; ---------------------------------------------------------------
; void __near__ main (void)
; ---------------------------------------------------------------

.segment	"CODE"

.proc	_main: near

.segment	"CODE"

;
; ntsc = ppu_system ();
;
	jsr     _ppu_system
	sta     _ntsc
;
; ticks = ntsc ? 60 : 50;
;
	lda     _ntsc
	beq     L655C
	lda     #$3C
	jmp     L683F
L655C:	lda     #$32
L683F:	sta     _ticks
;
; halfticks = ticks >> 1;
;
	lsr     a
	sta     _halfticks
;
; first_time = 1;
;
	lda     #$01
	sta     _first_time
;
; famitone_init (2, music_ROM02);
;
	lda     #$02
	jsr     pusha
	lda     #<(_music_ROM02)
	ldx     #>(_music_ROM02)
	jsr     _famitone_init
;
; bank_bg (0);
;
	lda     #$00
	jsr     _bank_bg
;
; bank_spr (1);
;
	lda     #$01
	jsr     _bank_spr
;
; oam_size (0);
;
	lda     #$00
	jsr     _oam_size
;
; pal_bright (0);
;
	lda     #$00
	jsr     _pal_bright
;
; soft_reenter = pcontinues = 0;
;
	lda     #$00
	sta     _pcontinues
	sta     _soft_reenter
;
; game_title ();
;
L6572:	jsr     _game_title
;
; if (pcontinues == 0) game_intro ();
;
	lda     _pcontinues
	bne     L6577
	jsr     _game_intro
;
; game_init ();
;
L6577:	jsr     _game_init
;
; if (pcontinues) {
;
	lda     _pcontinues
	beq     L6845
;
; bankswitch_prg_b (PRG_BANK_B_MAIN);
;
	lda     #$06
	jsr     _bankswitch_prg_b
;
; player_register_safe_spot ();
;
	jsr     _player_register_safe_spot
;
; n_pant = 19; level = 0; cutscene = 2;
;
	lda     #$13
	sta     _n_pant
	lda     #$00
	sta     _level
	lda     #$02
	sta     _cutscene
;
; music_on = 0;
;
	lda     #$00
L6845:	sta     _music_on
;
; keep_playing = 1;
;
	lda     #$01
	sta     _keep_playing
;
; while (keep_playing) {  
;
	jmp     L658C
;
; game_loop ();
;
L658A:	jsr     _game_loop
;
; switch (game_res) {
;
	lda     _game_res
;
; }
;
	cmp     #$01
	beq     L6840
	cmp     #$02
	beq     L6841
	cmp     #$03
	beq     L65A4
	cmp     #$04
	jeq     L65B0
	cmp     #$05
	jeq     L65BD
	cmp     #$06
	jeq     L6842
	cmp     #$07
	jeq     L65DC
	cmp     #$08
	jeq     L65E7
	cmp     #$09
	jeq     L65EE
	cmp     #$0A
	jeq     L65F3
	cmp     #$0B
	jeq     L65F8
	cmp     #$FF
	jeq     L6843
	jmp     L658C
;
; level --;
;
L6840:	lda     _level
	sec
	sbc     #$01
	sta     _level
;
; py = 3328 /*3072*/; pvy = -PLAYER_VY_JUMP_FLICK; pvx = 0;
;
	ldx     #$0D
	lda     #$00
	sta     _py
	stx     _py+1
	lda     #$C0
	sta     _pvy
	lda     #$00
	sta     _pvx
;
; break;
;
	jmp     L658C
;
; level ++;
;
L6841:	lda     _level
	clc
	adc     #$01
	sta     _level
;
; pvx = pvy = 0;
;
	lda     #$00
	sta     _pvy
	sta     _pvx
;
; py = 0;
;
	tax
;
; break;
;
	jmp     L6844
;
; px -= (16<<FIX_BITS);
;
L65A4:	lda     _px
	sec
	sbc     #$00
	sta     _px
	lda     _px+1
	sbc     #$01
	sta     _px+1
;
; if (px < 0) {
;
	ldx     _px+1
	cpx     #$80
	bcc     L65A8
;
; px += 256<<FIX_BITS;
;
	lda     #$00
	clc
	adc     _px
	sta     _px
	lda     #$10
	adc     _px+1
	sta     _px+1
;
; n_pant --;
;
	lda     _n_pant
	sec
	sbc     #$01
	sta     _n_pant
;
; prx = px >> FIX_BITS;
;
L65A8:	lda     _px
	ldx     _px+1
	jsr     asrax4
	sta     _prx
;
; break;
;
	jmp     L658C
;
; px += (16<<FIX_BITS);
;
L65B0:	lda     #$00
	clc
	adc     _px
	sta     _px
	lda     #$01
	adc     _px+1
	sta     _px+1
;
; if (px > 256<<FIX_BITS) {
;
	lda     _px
	cmp     #$01
	lda     _px+1
	sbc     #$10
	bvs     L65B6
	eor     #$80
L65B6:	bpl     L65B4
;
; px -= 256<<FIX_BITS;
;
	lda     _px
	sec
	sbc     #$00
	sta     _px
	lda     _px+1
	sbc     #$10
	sta     _px+1
;
; n_pant ++;
;
	lda     _n_pant
	clc
	adc     #$01
	sta     _n_pant
;
; prx = px >> FIX_BITS;
;
L65B4:	lda     _px
	ldx     _px+1
	jsr     asrax4
	sta     _prx
;
; break;
;
	jmp     L658C
;
; bankswitch_prg_b (PRG_BANK_B_MAIN);
;
L65BD:	lda     #$06
	jsr     _bankswitch_prg_b
;
; player_restore_safe_spot ();
;
	jsr     _player_restore_safe_spot
;
; player_reset_movement ();
;
	jsr     _player_reset_movement
;
; pflickers = ticks + ticks + ticks;
;
	lda     _ticks
	clc
	adc     _ticks
	bcc     L683E
	clc
L683E:	adc     _ticks
	sta     _pflickers
;
; if (plife) plife --; else {
;
	lda     _plife
	beq     L65C4
	sec
	sbc     #$01
	sta     _plife
	jmp     L658C
;
; game_over ();
;
L65C4:	jsr     _game_over
;
; keep_playing = 0;
;
	lda     #$00
	sta     _keep_playing
;
; break;
;
	jmp     L658C
;
; level = HUB_LEVEL; n_pant = HUB_SCR;
;
L6842:	lda     #$01
	sta     _level
	lda     #$09
	sta     _n_pant
;
; prx = HUB_X << 4; px = prx << FIX_BITS;
;
	lda     #$A0
	sta     _prx
	ldx     #$00
	lda     _prx
	jsr     aslax4
	sta     _px
	stx     _px+1
;
; pry = HUB_Y << 4; py = pry << FIX_BITS;
;
	lda     #$50
	sta     _pry
	ldx     #$00
	lda     _pry
	jsr     aslax4
	sta     _py
	stx     _py+1
;
; guay_ct = ticks;
;
	lda     _ticks
	sta     _guay_ct
;
; break;
;
	jmp     L658C
;
; bankswitch_prg_b (PRG_BANK_B_MAIN);
;
L65DC:	lda     #$06
	jsr     _bankswitch_prg_b
;
; player_register_safe_spot ();
;
	jsr     _player_register_safe_spot
;
; n_pant = 19; level = 0; cutscene = 1;
;
	lda     #$13
	sta     _n_pant
	lda     #$00
	sta     _level
	lda     #$01
	sta     _cutscene
;
; break;
;
	jmp     L658C
;
; bankswitch_prg_b (PRG_BANK_B_MAIN);
;
L65E7:	lda     #$06
	jsr     _bankswitch_prg_b
;
; player_restore_safe_spot ();
;
	jsr     _player_restore_safe_spot
;
; cutscene = 0;
;
	lda     #$00
	sta     _cutscene
;
; break;
;
	jmp     L658C
;
; game_ending ();
;
L65EE:	jsr     _game_ending
;
; keep_playing = 0;
;
	lda     #$00
	sta     _keep_playing
;
; break;
;
	jmp     L658C
;
; game_over ();
;
L65F3:	jsr     _game_over
;
; keep_playing = 0;
;
	lda     #$00
	sta     _keep_playing
;
; break;
;
	jmp     L658C
;
; minimap_do ();
;
L65F8:	jsr     _minimap_do
;
; break;
;
	jmp     L658C
;
; level = 0; n_pant = 0;
;
L6843:	lda     #$00
	sta     _level
	sta     _n_pant
;
; prx = 32; px = prx << FIX_BITS;
;
	lda     #$20
	sta     _prx
	ldx     #$00
	lda     _prx
	jsr     aslax4
	sta     _px
	stx     _px+1
;
; pry = 64; py = pry << FIX_BITS;
;
	lda     #$40
	sta     _pry
	ldx     #$00
	lda     _pry
	jsr     aslax4
L6844:	sta     _py
	stx     _py+1
;
; while (keep_playing) {  
;
L658C:	lda     _keep_playing
	jne     L658A
;
; while (1) {
;
	jmp     L6572

.endproc

