;
; File generated by cc65 v 2.15 - Git f7cdfbf
;
	.fopt		compiler,"cc65 v 2.15 - Git f7cdfbf"
	.setcpu		"6502"
	.smart		on
	.autoimport	on
	.case		on
	.debuginfo	off
	.importzp	sp, sreg, regsave, regbank
	.importzp	tmp1, tmp2, tmp3, tmp4, ptr1, ptr2, ptr3, ptr4
	.macpack	longbranch
	.forceimport	__STARTUP__
	.import		_pal_bg
	.import		_pal_bright
	.import		_ppu_wait_nmi
	.import		_ppu_on_all
	.import		_ppu_system
	.import		_oam_size
	.import		_famitone_init
	.import		_scroll
	.import		_bank_spr
	.import		_bank_bg
	.import		_set_vram_update
	.import		_tokumaru_lzss
	.import		_bankswitch
	.export		_rda
	.export		_rdb
	.export		_rdc
	.export		_rdd
	.export		_rdct
	.export		_rdt
	.export		_rdx
	.export		_rdy
	.export		_gpit
	.export		_gpjt
	.export		_gpint
	.export		_gp_gen
	.export		_gp_aux
	.export		_gp_ul
	.export		_gp_addr
	.export		_pad0
	.export		_pad
	.export		_half_life
	.export		_frame_counter
	.export		_col_idx
	.export		_col_ptr
	.export		_map_ptr
	.export		_state_ctr
	.export		_col_v_offset
	.export		_cam_pos
	.export		_cam_pos_old
	.export		_cx1
	.export		_cx2
	.export		_ticks
	.export		_halfticks
	.export		_bitmasks
	.export		_map_0
	.export		_main_ts_tmaps_0
	.export		_main_ts_tmaps_1
	.export		_main_ts_tmaps_2
	.export		_main_ts_tmaps_3
	.export		_main_ts_pals
	.export		_attr_lookup_0_0
	.export		_attr_lookup_0_1
	.export		_attr_lookup_0_2
	.export		_attr_lookup_0_3
	.export		_main_ts_patterns_c
	.export		_main_ss_patterns_c
	.export		_mypal_game_bg0
	.export		_mypal_game_bg1
	.export		_mypal_game_bg2
	.export		_mypal_game_bg3
	.export		_mypal_game_fg0
	.export		_mypal_game_fg1
	.export		_mypal_light_bg
	.export		_mypal_light_fg
	.export		_mypal_cuts
	.export		_mypal_reds
	.export		_scroll_paint_chunk
	.export		_scroll_draw_one_chunk_completely
	.export		_scroll_to
	.export		_scroll_draw_screen
	.export		_test_scroller
	.import		_music_ROM1
	.export		_main

.segment	"DATA"

.segment	"ZEROPAGE"
.segment	"BSS"

.segment	"RODATA"

.segment	"CODE"
_bitmasks:
	.byte	$FC
	.byte	$F3
	.byte	$CF
	.byte	$3F
.segment	"ROM0"
_map_0:
	.byte	$08
	.byte	$08
	.byte	$08
	.byte	$2C
	.byte	$09
	.byte	$2C
	.byte	$08
	.byte	$2C
	.byte	$25
	.byte	$2C
	.byte	$08
	.byte	$2C
	.byte	$25
	.byte	$2C
	.byte	$08
	.byte	$2C
	.byte	$08
	.byte	$2C
	.byte	$25
	.byte	$2C
	.byte	$09
	.byte	$2C
	.byte	$08
	.byte	$08
	.byte	$08
	.byte	$08
	.byte	$2C
	.byte	$2C
	.byte	$2C
	.byte	$2C
	.byte	$2C
	.byte	$2C
	.byte	$2C
	.byte	$2C
	.byte	$2C
	.byte	$2C
	.byte	$2C
	.byte	$09
	.byte	$2C
	.byte	$2C
	.byte	$2C
	.byte	$2C
	.byte	$2C
	.byte	$2C
	.byte	$2F
	.byte	$2C
	.byte	$08
	.byte	$08
	.byte	$08
	.byte	$08
	.byte	$2C
	.byte	$2C
	.byte	$2C
	.byte	$2C
	.byte	$2C
	.byte	$2C
	.byte	$2C
	.byte	$05
	.byte	$2F
	.byte	$07
	.byte	$09
	.byte	$09
	.byte	$2C
	.byte	$2C
	.byte	$2C
	.byte	$2C
	.byte	$2C
	.byte	$13
	.byte	$2C
	.byte	$07
	.byte	$08
	.byte	$08
	.byte	$08
	.byte	$08
	.byte	$2C
	.byte	$2C
	.byte	$2C
	.byte	$2D
	.byte	$2C
	.byte	$2C
	.byte	$2C
	.byte	$2C
	.byte	$09
	.byte	$08
	.byte	$09
	.byte	$09
	.byte	$2C
	.byte	$2C
	.byte	$2C
	.byte	$2C
	.byte	$2C
	.byte	$2C
	.byte	$2C
	.byte	$2C
	.byte	$08
	.byte	$08
	.byte	$08
	.byte	$08
	.byte	$2C
	.byte	$2C
	.byte	$2C
	.byte	$2E
	.byte	$2C
	.byte	$2C
	.byte	$2C
	.byte	$2C
	.byte	$1B
	.byte	$08
	.byte	$09
	.byte	$09
	.byte	$2C
	.byte	$2C
	.byte	$2C
	.byte	$2C
	.byte	$2C
	.byte	$2C
	.byte	$2C
	.byte	$2C
	.byte	$2C
	.byte	$2C
	.byte	$08
	.byte	$08
	.byte	$2C
	.byte	$2C
	.byte	$2C
	.byte	$2C
	.byte	$2C
	.byte	$2C
	.byte	$2C
	.byte	$05
	.byte	$09
	.byte	$07
	.byte	$09
	.byte	$09
	.byte	$2C
	.byte	$05
	.byte	$2C
	.byte	$14
	.byte	$2C
	.byte	$2C
	.byte	$2C
	.byte	$2C
	.byte	$2C
	.byte	$09
	.byte	$08
	.byte	$08
	.byte	$2C
	.byte	$2C
	.byte	$2C
	.byte	$2C
	.byte	$2C
	.byte	$2C
	.byte	$2C
	.byte	$2C
	.byte	$2F
	.byte	$2D
	.byte	$09
	.byte	$09
	.byte	$2C
	.byte	$2C
	.byte	$2C
	.byte	$2C
	.byte	$2C
	.byte	$2C
	.byte	$2C
	.byte	$2C
	.byte	$09
	.byte	$09
	.byte	$08
	.byte	$08
	.byte	$2C
	.byte	$2C
	.byte	$2C
	.byte	$2C
	.byte	$2C
	.byte	$2C
	.byte	$2C
	.byte	$2C
	.byte	$2C
	.byte	$2C
	.byte	$08
	.byte	$08
	.byte	$2C
	.byte	$2C
	.byte	$2C
	.byte	$2C
	.byte	$2C
	.byte	$2C
	.byte	$2F
	.byte	$2C
	.byte	$09
	.byte	$09
	.byte	$08
	.byte	$09
	.byte	$2C
	.byte	$08
	.byte	$2C
	.byte	$09
	.byte	$2C
	.byte	$08
	.byte	$2C
	.byte	$09
	.byte	$2C
	.byte	$08
	.byte	$08
	.byte	$09
	.byte	$2A
	.byte	$00
	.byte	$00
	.byte	$29
	.byte	$00
	.byte	$05
	.byte	$28
	.byte	$07
	.byte	$09
	.byte	$03
	.byte	$08
	.byte	$0C
	.byte	$09
	.byte	$0C
	.byte	$0C
	.byte	$0C
	.byte	$21
	.byte	$0C
	.byte	$00
	.byte	$0C
	.byte	$21
	.byte	$00
	.byte	$2A
	.byte	$23
	.byte	$00
	.byte	$29
	.byte	$2A
	.byte	$00
	.byte	$28
	.byte	$29
	.byte	$25
	.byte	$37
	.byte	$03
	.byte	$03
	.byte	$0C
	.byte	$0C
	.byte	$0C
	.byte	$0C
	.byte	$0C
	.byte	$0C
	.byte	$0C
	.byte	$0C
	.byte	$20
	.byte	$00
	.byte	$2A
	.byte	$00
	.byte	$00
	.byte	$29
	.byte	$0C
	.byte	$00
	.byte	$20
	.byte	$00
	.byte	$00
	.byte	$05
	.byte	$09
	.byte	$07
	.byte	$03
	.byte	$03
	.byte	$0C
	.byte	$0C
	.byte	$0C
	.byte	$0C
	.byte	$0C
	.byte	$0C
	.byte	$20
	.byte	$00
	.byte	$2A
	.byte	$00
	.byte	$00
	.byte	$00
	.byte	$00
	.byte	$00
	.byte	$00
	.byte	$29
	.byte	$00
	.byte	$22
	.byte	$28
	.byte	$0C
	.byte	$23
	.byte	$04
	.byte	$03
	.byte	$21
	.byte	$0C
	.byte	$20
	.byte	$0C
	.byte	$00
	.byte	$20
	.byte	$00
	.byte	$2A
	.byte	$00
	.byte	$00
	.byte	$00
	.byte	$2A
	.byte	$00
	.byte	$28
	.byte	$00
	.byte	$00
	.byte	$00
	.byte	$00
	.byte	$00
	.byte	$0C
	.byte	$22
	.byte	$0C
	.byte	$0C
	.byte	$0C
	.byte	$20
	.byte	$2A
	.byte	$00
	.byte	$28
	.byte	$00
	.byte	$2A
	.byte	$00
	.byte	$00
	.byte	$00
	.byte	$00
	.byte	$00
	.byte	$00
	.byte	$29
	.byte	$00
	.byte	$00
	.byte	$28
	.byte	$23
	.byte	$23
	.byte	$0C
	.byte	$28
	.byte	$21
	.byte	$2A
	.byte	$00
	.byte	$28
	.byte	$00
	.byte	$00
	.byte	$29
	.byte	$00
	.byte	$00
	.byte	$28
	.byte	$00
	.byte	$00
	.byte	$00
	.byte	$28
	.byte	$29
	.byte	$00
	.byte	$00
	.byte	$23
	.byte	$29
	.byte	$0C
	.byte	$22
	.byte	$0C
	.byte	$0C
	.byte	$04
	.byte	$0C
	.byte	$00
	.byte	$21
	.byte	$00
	.byte	$00
	.byte	$2A
	.byte	$00
	.byte	$28
	.byte	$00
	.byte	$2A
	.byte	$00
	.byte	$00
	.byte	$00
	.byte	$00
	.byte	$00
	.byte	$00
	.byte	$29
	.byte	$2A
	.byte	$00
	.byte	$28
	.byte	$29
	.byte	$22
	.byte	$00
	.byte	$00
	.byte	$00
	.byte	$00
	.byte	$00
	.byte	$28
	.byte	$03
	.byte	$00
	.byte	$00
	.byte	$00
	.byte	$00
	.byte	$28
	.byte	$00
	.byte	$2A
	.byte	$00
	.byte	$00
	.byte	$29
	.byte	$2A
	.byte	$00
	.byte	$28
	.byte	$23
	.byte	$2A
	.byte	$00
	.byte	$00
	.byte	$23
	.byte	$2A
	.byte	$0C
	.byte	$23
	.byte	$0C
	.byte	$03
	.byte	$03
	.byte	$00
	.byte	$00
	.byte	$00
	.byte	$23
	.byte	$00
	.byte	$00
	.byte	$28
	.byte	$29
	.byte	$00
	.byte	$21
	.byte	$28
	.byte	$23
	.byte	$23
	.byte	$0C
	.byte	$0C
	.byte	$0C
	.byte	$0C
	.byte	$22
	.byte	$0C
	.byte	$0C
	.byte	$0C
	.byte	$0C
	.byte	$03
	.byte	$0C
	.byte	$00
	.byte	$0C
	.byte	$23
	.byte	$0C
	.byte	$0C
	.byte	$0C
	.byte	$0C
	.byte	$0C
	.byte	$0C
	.byte	$0C
	.byte	$0C
	.byte	$0C
	.byte	$0C
	.byte	$0C
	.byte	$20
	.byte	$21
	.byte	$20
	.byte	$00
	.byte	$2A
	.byte	$23
	.byte	$22
	.byte	$0C
	.byte	$0C
	.byte	$0C
	.byte	$00
	.byte	$00
	.byte	$00
	.byte	$29
	.byte	$22
	.byte	$00
	.byte	$0C
	.byte	$00
	.byte	$0C
	.byte	$22
	.byte	$0C
	.byte	$0C
	.byte	$0C
	.byte	$0C
	.byte	$0C
	.byte	$0C
	.byte	$0C
	.byte	$0C
	.byte	$0C
	.byte	$0C
	.byte	$0C
	.byte	$20
	.byte	$20
	.byte	$29
	.byte	$00
	.byte	$29
	.byte	$2A
	.byte	$00
	.byte	$00
	.byte	$00
	.byte	$00
	.byte	$00
	.byte	$28
	.byte	$29
	.byte	$2A
	.byte	$00
	.byte	$22
	.byte	$29
	.byte	$0C
	.byte	$22
	.byte	$0C
	.byte	$0C
	.byte	$0C
	.byte	$0C
	.byte	$0C
	.byte	$21
	.byte	$0C
	.byte	$23
	.byte	$00
	.byte	$00
	.byte	$28
	.byte	$00
	.byte	$00
	.byte	$00
	.byte	$28
	.byte	$00
	.byte	$2A
	.byte	$00
	.byte	$28
	.byte	$00
	.byte	$2A
	.byte	$00
	.byte	$28
	.byte	$00
	.byte	$00
	.byte	$00
	.byte	$00
	.byte	$29
	.byte	$2A
	.byte	$23
	.byte	$0C
	.byte	$0C
	.byte	$00
	.byte	$29
	.byte	$2A
	.byte	$00
	.byte	$28
	.byte	$29
	.byte	$2A
	.byte	$00
	.byte	$28
	.byte	$29
	.byte	$2A
	.byte	$00
	.byte	$28
	.byte	$23
	.byte	$00
	.byte	$0C
	.byte	$23
	.byte	$0C
	.byte	$0C
	.byte	$0C
	.byte	$0C
	.byte	$0C
	.byte	$03
	.byte	$03
	.byte	$2A
	.byte	$00
	.byte	$28
	.byte	$29
	.byte	$00
	.byte	$00
	.byte	$00
	.byte	$29
	.byte	$2A
	.byte	$00
	.byte	$00
	.byte	$00
	.byte	$2A
	.byte	$00
	.byte	$22
	.byte	$29
	.byte	$0C
	.byte	$00
	.byte	$0C
	.byte	$04
	.byte	$0C
	.byte	$22
	.byte	$03
	.byte	$00
	.byte	$28
	.byte	$29
	.byte	$2A
	.byte	$00
	.byte	$00
	.byte	$00
	.byte	$00
	.byte	$00
	.byte	$28
	.byte	$00
	.byte	$2A
	.byte	$00
	.byte	$28
	.byte	$00
	.byte	$2A
	.byte	$00
	.byte	$28
	.byte	$29
	.byte	$04
	.byte	$04
	.byte	$28
	.byte	$29
	.byte	$00
	.byte	$00
	.byte	$00
	.byte	$00
	.byte	$00
	.byte	$00
	.byte	$00
	.byte	$00
	.byte	$00
	.byte	$29
	.byte	$2A
	.byte	$00
	.byte	$00
	.byte	$04
	.byte	$2A
	.byte	$00
	.byte	$00
	.byte	$00
	.byte	$00
	.byte	$00
	.byte	$00
	.byte	$29
	.byte	$00
	.byte	$00
	.byte	$00
	.byte	$29
	.byte	$0C
	.byte	$0C
	.byte	$21
	.byte	$0C
	.byte	$00
	.byte	$0C
	.byte	$00
	.byte	$21
	.byte	$00
	.byte	$00
	.byte	$00
	.byte	$00
	.byte	$28
	.byte	$29
	.byte	$00
	.byte	$04
	.byte	$28
	.byte	$00
	.byte	$00
	.byte	$00
	.byte	$00
	.byte	$00
	.byte	$2A
	.byte	$00
	.byte	$0C
	.byte	$0C
	.byte	$0C
	.byte	$0C
	.byte	$0C
	.byte	$0C
	.byte	$0C
	.byte	$0C
	.byte	$21
	.byte	$0C
	.byte	$00
	.byte	$00
	.byte	$00
	.byte	$00
	.byte	$28
	.byte	$29
	.byte	$00
	.byte	$00
	.byte	$28
	.byte	$04
	.byte	$00
	.byte	$00
	.byte	$28
	.byte	$29
	.byte	$0C
	.byte	$0C
	.byte	$0C
	.byte	$0C
	.byte	$0C
	.byte	$0C
	.byte	$0C
	.byte	$0C
	.byte	$0C
	.byte	$0C
	.byte	$21
	.byte	$20
	.byte	$00
	.byte	$00
	.byte	$00
	.byte	$00
	.byte	$28
	.byte	$00
	.byte	$00
	.byte	$00
	.byte	$00
	.byte	$00
	.byte	$00
	.byte	$00
	.byte	$0C
	.byte	$0C
	.byte	$0C
	.byte	$0C
	.byte	$0C
	.byte	$0C
	.byte	$0C
	.byte	$0C
	.byte	$0C
	.byte	$0C
	.byte	$00
	.byte	$00
	.byte	$2A
	.byte	$00
	.byte	$00
	.byte	$00
	.byte	$00
	.byte	$00
	.byte	$28
	.byte	$00
	.byte	$00
	.byte	$04
	.byte	$00
	.byte	$00
	.byte	$0C
	.byte	$0C
	.byte	$0C
	.byte	$0C
	.byte	$0C
	.byte	$0C
	.byte	$0C
	.byte	$0C
	.byte	$0C
	.byte	$20
	.byte	$00
	.byte	$00
	.byte	$00
	.byte	$00
	.byte	$00
	.byte	$00
	.byte	$28
	.byte	$29
	.byte	$00
	.byte	$00
	.byte	$28
	.byte	$00
	.byte	$00
	.byte	$00
	.byte	$0C
	.byte	$00
	.byte	$0C
	.byte	$00
	.byte	$20
	.byte	$00
	.byte	$00
	.byte	$00
	.byte	$2A
	.byte	$00
	.byte	$00
	.byte	$29
	.byte	$00
	.byte	$03
	.byte	$28
	.byte	$29
	.byte	$00
	.byte	$00
	.byte	$00
	.byte	$29
	.byte	$00
	.byte	$00
	.byte	$00
	.byte	$00
	.byte	$28
	.byte	$29
	.byte	$00
	.byte	$00
	.byte	$28
	.byte	$29
	.byte	$00
	.byte	$00
	.byte	$28
	.byte	$29
	.byte	$2A
	.byte	$00
	.byte	$03
	.byte	$00
	.byte	$2A
	.byte	$00
	.byte	$00
	.byte	$29
	.byte	$2A
	.byte	$00
	.byte	$00
	.byte	$29
	.byte	$2A
	.byte	$00
	.byte	$00
	.byte	$00
	.byte	$28
	.byte	$00
	.byte	$2A
	.byte	$00
	.byte	$00
	.byte	$29
	.byte	$00
	.byte	$00
	.byte	$28
	.byte	$00
	.byte	$00
	.byte	$00
	.byte	$28
	.byte	$00
	.byte	$2A
	.byte	$00
	.byte	$28
	.byte	$00
	.byte	$00
	.byte	$00
	.byte	$00
	.byte	$00
	.byte	$28
	.byte	$21
	.byte	$2A
	.byte	$00
	.byte	$00
	.byte	$29
	.byte	$00
	.byte	$00
	.byte	$28
	.byte	$00
	.byte	$2A
	.byte	$00
	.byte	$00
	.byte	$29
	.byte	$2A
	.byte	$00
	.byte	$00
	.byte	$29
	.byte	$00
	.byte	$00
	.byte	$28
	.byte	$00
	.byte	$00
	.byte	$00
	.byte	$0C
	.byte	$0C
	.byte	$21
	.byte	$0C
	.byte	$00
	.byte	$00
	.byte	$03
	.byte	$29
	.byte	$01
	.byte	$00
	.byte	$01
	.byte	$29
	.byte	$01
	.byte	$00
	.byte	$01
	.byte	$04
	.byte	$01
	.byte	$00
	.byte	$01
	.byte	$00
	.byte	$01
	.byte	$00
	.byte	$01
	.byte	$00
	.byte	$0C
	.byte	$0C
	.byte	$0C
	.byte	$0C
	.byte	$20
	.byte	$20
	.byte	$2A
	.byte	$00
	.byte	$00
	.byte	$29
	.byte	$00
	.byte	$04
	.byte	$28
	.byte	$00
	.byte	$2A
	.byte	$00
	.byte	$00
	.byte	$00
	.byte	$2A
	.byte	$00
	.byte	$00
	.byte	$04
	.byte	$00
	.byte	$00
	.byte	$20
	.byte	$00
	.byte	$00
	.byte	$29
	.byte	$00
	.byte	$00
	.byte	$28
	.byte	$29
	.byte	$00
	.byte	$00
	.byte	$28
	.byte	$00
	.byte	$2A
	.byte	$00
	.byte	$28
	.byte	$00
	.byte	$00
	.byte	$00
	.byte	$00
	.byte	$00
	.byte	$00
	.byte	$00
	.byte	$00
	.byte	$00
	.byte	$00
	.byte	$29
	.byte	$00
	.byte	$00
	.byte	$00
	.byte	$00
	.byte	$00
	.byte	$00
	.byte	$00
	.byte	$29
	.byte	$2A
	.byte	$00
	.byte	$00
	.byte	$00
	.byte	$00
	.byte	$00
	.byte	$00
	.byte	$00
	.byte	$2A
	.byte	$00
	.byte	$28
	.byte	$00
	.byte	$2A
	.byte	$00
	.byte	$00
	.byte	$00
	.byte	$00
	.byte	$00
	.byte	$2A
	.byte	$00
	.byte	$00
	.byte	$29
	.byte	$00
	.byte	$00
	.byte	$00
	.byte	$00
	.byte	$2A
	.byte	$00
	.byte	$00
	.byte	$29
	.byte	$00
	.byte	$00
	.byte	$13
	.byte	$00
	.byte	$07
	.byte	$00
	.byte	$03
	.byte	$03
	.byte	$00
	.byte	$00
	.byte	$00
	.byte	$00
	.byte	$28
	.byte	$00
	.byte	$00
	.byte	$00
	.byte	$00
	.byte	$29
	.byte	$00
	.byte	$00
	.byte	$28
	.byte	$29
	.byte	$00
	.byte	$00
	.byte	$00
	.byte	$00
	.byte	$2A
	.byte	$00
	.byte	$12
	.byte	$0B
	.byte	$03
	.byte	$03
	.byte	$2A
	.byte	$00
	.byte	$00
	.byte	$29
	.byte	$2A
	.byte	$00
	.byte	$28
	.byte	$00
	.byte	$00
	.byte	$00
	.byte	$00
	.byte	$04
	.byte	$00
	.byte	$00
	.byte	$28
	.byte	$00
	.byte	$00
	.byte	$00
	.byte	$28
	.byte	$29
	.byte	$2A
	.byte	$00
	.byte	$03
	.byte	$00
	.byte	$28
	.byte	$29
	.byte	$00
	.byte	$00
	.byte	$00
	.byte	$00
	.byte	$00
	.byte	$00
	.byte	$00
	.byte	$00
	.byte	$2A
	.byte	$00
	.byte	$28
	.byte	$29
	.byte	$03
	.byte	$00
	.byte	$01
	.byte	$0F
	.byte	$01
	.byte	$04
	.byte	$01
	.byte	$29
	.byte	$01
	.byte	$00
	.byte	$00
	.byte	$00
	.byte	$00
	.byte	$00
	.byte	$00
	.byte	$00
	.byte	$00
	.byte	$00
	.byte	$00
	.byte	$00
	.byte	$28
	.byte	$00
	.byte	$2A
	.byte	$00
	.byte	$28
	.byte	$29
	.byte	$00
	.byte	$00
	.byte	$00
	.byte	$29
	.byte	$00
	.byte	$00
	.byte	$28
	.byte	$00
	.byte	$00
	.byte	$00
	.byte	$2A
	.byte	$00
	.byte	$00
	.byte	$00
	.byte	$00
	.byte	$00
	.byte	$00
	.byte	$00
	.byte	$2A
	.byte	$00
	.byte	$00
	.byte	$29
	.byte	$2A
	.byte	$00
	.byte	$00
	.byte	$29
	.byte	$00
	.byte	$00
	.byte	$00
	.byte	$00
	.byte	$00
	.byte	$00
	.byte	$00
	.byte	$00
	.byte	$28
	.byte	$29
	.byte	$00
	.byte	$00
	.byte	$00
	.byte	$29
	.byte	$00
	.byte	$00
	.byte	$00
	.byte	$29
	.byte	$00
	.byte	$00
	.byte	$00
	.byte	$29
	.byte	$2A
	.byte	$12
	.byte	$00
	.byte	$04
	.byte	$2A
	.byte	$00
	.byte	$03
	.byte	$29
	.byte	$00
	.byte	$29
	.byte	$2A
	.byte	$00
	.byte	$28
	.byte	$29
	.byte	$2A
	.byte	$00
	.byte	$28
	.byte	$00
	.byte	$00
	.byte	$00
	.byte	$00
	.byte	$29
	.byte	$2A
	.byte	$00
	.byte	$00
	.byte	$29
	.byte	$00
	.byte	$00
	.byte	$0B
	.byte	$00
	.byte	$03
	.byte	$00
	.byte	$00
	.byte	$00
	.byte	$00
	.byte	$29
	.byte	$00
	.byte	$00
	.byte	$28
	.byte	$00
	.byte	$2A
	.byte	$0D
	.byte	$00
	.byte	$03
	.byte	$2A
	.byte	$01
	.byte	$00
	.byte	$01
	.byte	$2A
	.byte	$01
	.byte	$28
	.byte	$02
	.byte	$2A
	.byte	$00
	.byte	$28
	.byte	$00
	.byte	$00
	.byte	$00
	.byte	$2A
	.byte	$00
	.byte	$00
	.byte	$00
	.byte	$2A
	.byte	$00
	.byte	$0E
	.byte	$0F
	.byte	$03
	.byte	$03
	.byte	$01
	.byte	$01
	.byte	$01
	.byte	$01
	.byte	$01
	.byte	$02
	.byte	$01
	.byte	$00
	.byte	$01
	.byte	$29
	.byte	$02
	.byte	$00
	.byte	$00
	.byte	$00
	.byte	$28
	.byte	$00
	.byte	$00
	.byte	$00
	.byte	$00
	.byte	$29
	.byte	$00
	.byte	$00
	.byte	$03
	.byte	$00
	.byte	$02
	.byte	$00
	.byte	$00
	.byte	$00
	.byte	$00
	.byte	$00
	.byte	$28
	.byte	$00
	.byte	$00
	.byte	$00
	.byte	$00
	.byte	$00
	.byte	$00
	.byte	$00
	.byte	$2A
	.byte	$00
	.byte	$00
	.byte	$00
	.byte	$00
	.byte	$00
	.byte	$00
	.byte	$00
	.byte	$00
	.byte	$00
	.byte	$00
	.byte	$29
	.byte	$2A
	.byte	$00
	.byte	$00
	.byte	$29
	.byte	$00
	.byte	$00
	.byte	$00
	.byte	$00
	.byte	$00
	.byte	$00
	.byte	$2A
	.byte	$00
	.byte	$28
	.byte	$00
	.byte	$00
	.byte	$00
	.byte	$00
	.byte	$29
	.byte	$2A
	.byte	$00
	.byte	$28
	.byte	$29
	.byte	$00
	.byte	$00
	.byte	$00
	.byte	$00
	.byte	$00
	.byte	$00
	.byte	$00
	.byte	$00
	.byte	$2A
	.byte	$00
	.byte	$00
	.byte	$00
	.byte	$28
	.byte	$29
	.byte	$00
	.byte	$00
	.byte	$28
	.byte	$29
	.byte	$2A
	.byte	$00
	.byte	$00
	.byte	$29
	.byte	$00
	.byte	$03
	.byte	$00
	.byte	$02
	.byte	$2A
	.byte	$00
	.byte	$00
	.byte	$00
	.byte	$00
	.byte	$00
	.byte	$00
	.byte	$00
	.byte	$2A
	.byte	$00
	.byte	$2A
	.byte	$00
	.byte	$00
	.byte	$00
	.byte	$00
	.byte	$00
	.byte	$28
	.byte	$29
	.byte	$00
	.byte	$00
	.byte	$00
	.byte	$29
	.byte	$0B
	.byte	$00
	.byte	$03
	.byte	$00
	.byte	$01
	.byte	$00
	.byte	$02
	.byte	$29
	.byte	$00
	.byte	$00
	.byte	$28
	.byte	$03
	.byte	$00
	.byte	$29
	.byte	$2A
	.byte	$00
	.byte	$00
	.byte	$00
	.byte	$2A
	.byte	$00
	.byte	$28
	.byte	$29
	.byte	$2A
	.byte	$00
	.byte	$28
	.byte	$00
	.byte	$00
	.byte	$00
	.byte	$00
	.byte	$29
	.byte	$03
	.byte	$00
	.byte	$12
	.byte	$0B
	.byte	$03
	.byte	$03
	.byte	$00
	.byte	$00
	.byte	$28
	.byte	$00
	.byte	$00
	.byte	$00
	.byte	$00
	.byte	$29
	.byte	$2A
	.byte	$00
	.byte	$28
	.byte	$29
	.byte	$00
	.byte	$00
	.byte	$00
	.byte	$29
	.byte	$2A
	.byte	$00
	.byte	$00
	.byte	$29
	.byte	$12
	.byte	$00
	.byte	$03
	.byte	$03
	.byte	$00
	.byte	$29
	.byte	$00
	.byte	$00
	.byte	$00
	.byte	$29
	.byte	$00
	.byte	$00
	.byte	$00
	.byte	$29
	.byte	$00
	.byte	$00
	.byte	$00
	.byte	$29
	.byte	$2A
	.byte	$00
	.byte	$28
	.byte	$00
	.byte	$2A
	.byte	$00
	.byte	$0D
	.byte	$03
	.byte	$03
	.byte	$02
	.byte	$00
	.byte	$00
	.byte	$00
	.byte	$29
	.byte	$2A
	.byte	$00
	.byte	$28
	.byte	$00
	.byte	$00
	.byte	$00
	.byte	$00
	.byte	$00
	.byte	$2A
	.byte	$00
	.byte	$28
	.byte	$00
	.byte	$2A
	.byte	$00
	.byte	$00
	.byte	$00
	.byte	$00
	.byte	$00
	.byte	$00
	.byte	$00
	.byte	$00
	.byte	$00
	.byte	$00
	.byte	$00
	.byte	$28
	.byte	$29
	.byte	$00
	.byte	$00
	.byte	$28
	.byte	$00
	.byte	$00
	.byte	$00
	.byte	$28
	.byte	$00
	.byte	$2A
	.byte	$00
	.byte	$00
	.byte	$29
	.byte	$12
	.byte	$00
	.byte	$03
	.byte	$00
	.byte	$01
	.byte	$00
	.byte	$00
	.byte	$00
	.byte	$28
	.byte	$00
	.byte	$00
	.byte	$00
	.byte	$28
	.byte	$00
	.byte	$00
	.byte	$00
	.byte	$03
	.byte	$29
	.byte	$02
	.byte	$00
	.byte	$00
	.byte	$29
	.byte	$00
	.byte	$0D
	.byte	$00
	.byte	$03
	.byte	$2A
	.byte	$01
	.byte	$00
	.byte	$01
	.byte	$28
	.byte	$29
	.byte	$00
	.byte	$00
	.byte	$28
	.byte	$00
	.byte	$00
	.byte	$03
	.byte	$00
	.byte	$01
	.byte	$2A
	.byte	$01
	.byte	$28
	.byte	$01
	.byte	$03
	.byte	$01
	.byte	$01
	.byte	$02
	.byte	$01
	.byte	$00
	.byte	$02
	.byte	$29
	.byte	$00
	.byte	$00
	.byte	$2A
	.byte	$00
	.byte	$00
	.byte	$00
	.byte	$2A
	.byte	$00
	.byte	$28
	.byte	$00
	.byte	$00
	.byte	$00
	.byte	$00
	.byte	$00
	.byte	$0B
	.byte	$00
	.byte	$03
	.byte	$29
	.byte	$01
	.byte	$0F
	.byte	$02
	.byte	$03
	.byte	$00
	.byte	$02
	.byte	$28
	.byte	$00
	.byte	$28
	.byte	$00
	.byte	$00
	.byte	$00
	.byte	$00
	.byte	$00
	.byte	$00
	.byte	$00
	.byte	$00
	.byte	$00
	.byte	$00
	.byte	$04
	.byte	$00
	.byte	$29
	.byte	$00
	.byte	$00
	.byte	$28
	.byte	$29
	.byte	$0E
	.byte	$0F
	.byte	$03
	.byte	$03
	.byte	$01
	.byte	$01
	.byte	$2A
	.byte	$00
	.byte	$00
	.byte	$00
	.byte	$00
	.byte	$00
	.byte	$00
	.byte	$00
	.byte	$00
	.byte	$00
	.byte	$28
	.byte	$00
	.byte	$00
	.byte	$00
	.byte	$00
	.byte	$00
	.byte	$00
	.byte	$00
	.byte	$12
	.byte	$29
	.byte	$03
	.byte	$03
	.byte	$01
	.byte	$01
	.byte	$00
	.byte	$29
	.byte	$00
	.byte	$00
	.byte	$28
	.byte	$00
	.byte	$00
	.byte	$00
	.byte	$00
	.byte	$29
	.byte	$00
	.byte	$00
	.byte	$00
	.byte	$00
	.byte	$00
	.byte	$00
	.byte	$28
	.byte	$00
	.byte	$2A
	.byte	$00
	.byte	$03
	.byte	$29
	.byte	$01
	.byte	$00
	.byte	$2A
	.byte	$21
	.byte	$00
	.byte	$00
	.byte	$00
	.byte	$21
	.byte	$28
	.byte	$00
	.byte	$00
	.byte	$00
	.byte	$00
	.byte	$00
	.byte	$2A
	.byte	$00
	.byte	$00
	.byte	$00
	.byte	$13
	.byte	$00
	.byte	$07
	.byte	$03
	.byte	$08
	.byte	$08
	.byte	$00
	.byte	$01
	.byte	$0C
	.byte	$0C
	.byte	$0C
	.byte	$0C
	.byte	$21
	.byte	$0C
	.byte	$00
	.byte	$0C
	.byte	$00
	.byte	$21
	.byte	$00
	.byte	$00
	.byte	$00
	.byte	$00
	.byte	$00
	.byte	$00
	.byte	$28
	.byte	$00
	.byte	$00
	.byte	$00
	.byte	$28
	.byte	$00
	.byte	$2A
	.byte	$00
	.byte	$0C
	.byte	$0C
	.byte	$0C
	.byte	$0C
	.byte	$0C
	.byte	$20
	.byte	$22
	.byte	$29
	.byte	$0C
	.byte	$20
	.byte	$0C
	.byte	$00
	.byte	$20
	.byte	$00
	.byte	$00
	.byte	$00
	.byte	$2A
	.byte	$00
	.byte	$00
	.byte	$29
	.byte	$00
	.byte	$00
	.byte	$28
	.byte	$29
	.byte	$0C
	.byte	$0C
	.byte	$2A
	.byte	$21
	.byte	$00
	.byte	$00
	.byte	$00
	.byte	$21
	.byte	$00
	.byte	$00
	.byte	$00
	.byte	$00
	.byte	$28
	.byte	$29
	.byte	$00
	.byte	$00
	.byte	$03
	.byte	$00
	.byte	$01
	.byte	$00
	.byte	$02
	.byte	$00
	.byte	$2A
	.byte	$00
	.byte	$0C
	.byte	$0C
	.byte	$0C
	.byte	$0C
	.byte	$0C
	.byte	$20
	.byte	$0C
	.byte	$22
	.byte	$0C
	.byte	$00
	.byte	$20
	.byte	$04
	.byte	$00
	.byte	$00
	.byte	$00
	.byte	$29
	.byte	$2A
	.byte	$00
	.byte	$00
	.byte	$29
	.byte	$2A
	.byte	$00
	.byte	$28
	.byte	$00
	.byte	$22
	.byte	$00
	.byte	$21
	.byte	$00
	.byte	$00
	.byte	$00
	.byte	$2A
	.byte	$00
	.byte	$00
	.byte	$00
	.byte	$00
	.byte	$00
	.byte	$03
	.byte	$00
	.byte	$02
	.byte	$00
	.byte	$28
	.byte	$00
	.byte	$00
	.byte	$00
	.byte	$28
	.byte	$04
	.byte	$2A
	.byte	$00
	.byte	$2A
	.byte	$00
	.byte	$28
	.byte	$00
	.byte	$2A
	.byte	$00
	.byte	$00
	.byte	$29
	.byte	$00
	.byte	$00
	.byte	$00
	.byte	$29
	.byte	$00
	.byte	$00
	.byte	$00
	.byte	$00
	.byte	$00
	.byte	$00
	.byte	$00
	.byte	$29
	.byte	$2A
	.byte	$0D
	.byte	$00
	.byte	$03
	.byte	$00
	.byte	$00
	.byte	$2A
	.byte	$00
	.byte	$28
	.byte	$00
	.byte	$2A
	.byte	$00
	.byte	$00
	.byte	$00
	.byte	$00
	.byte	$00
	.byte	$28
	.byte	$00
	.byte	$2A
	.byte	$00
	.byte	$28
	.byte	$00
	.byte	$2A
	.byte	$00
	.byte	$0F
	.byte	$00
	.byte	$03
	.byte	$00
	.byte	$00
	.byte	$00
	.byte	$28
	.byte	$29
	.byte	$2A
	.byte	$00
	.byte	$28
	.byte	$29
	.byte	$00
	.byte	$00
	.byte	$28
	.byte	$29
	.byte	$00
	.byte	$00
	.byte	$00
	.byte	$29
	.byte	$04
	.byte	$00
	.byte	$00
	.byte	$29
	.byte	$00
	.byte	$00
	.byte	$28
	.byte	$29
	.byte	$00
	.byte	$29
	.byte	$2A
	.byte	$00
	.byte	$00
	.byte	$00
	.byte	$00
	.byte	$00
	.byte	$00
	.byte	$00
	.byte	$00
	.byte	$00
	.byte	$00
	.byte	$29
	.byte	$2A
	.byte	$00
	.byte	$00
	.byte	$00
	.byte	$2A
	.byte	$00
	.byte	$28
	.byte	$29
	.byte	$00
	.byte	$00
	.byte	$21
	.byte	$0C
	.byte	$00
	.byte	$21
	.byte	$00
	.byte	$00
	.byte	$00
	.byte	$00
	.byte	$2A
	.byte	$00
	.byte	$00
	.byte	$29
	.byte	$00
	.byte	$00
	.byte	$00
	.byte	$0B
	.byte	$00
	.byte	$04
	.byte	$00
	.byte	$29
	.byte	$00
	.byte	$00
	.byte	$28
	.byte	$00
	.byte	$0C
	.byte	$0C
	.byte	$0C
	.byte	$0C
	.byte	$00
	.byte	$21
	.byte	$00
	.byte	$00
	.byte	$00
	.byte	$00
	.byte	$2A
	.byte	$00
	.byte	$00
	.byte	$00
	.byte	$00
	.byte	$00
	.byte	$28
	.byte	$00
	.byte	$00
	.byte	$00
	.byte	$00
	.byte	$00
	.byte	$00
	.byte	$09
	.byte	$0C
	.byte	$0C
	.byte	$0C
	.byte	$0C
	.byte	$0C
	.byte	$0C
	.byte	$00
	.byte	$00
	.byte	$00
	.byte	$00
	.byte	$28
	.byte	$00
	.byte	$2A
	.byte	$00
	.byte	$00
	.byte	$29
	.byte	$2A
	.byte	$00
	.byte	$00
	.byte	$29
	.byte	$0B
	.byte	$0D
	.byte	$09
	.byte	$09
	.byte	$0C
	.byte	$0C
	.byte	$0C
	.byte	$0C
	.byte	$0C
	.byte	$0C
	.byte	$00
	.byte	$21
	.byte	$28
	.byte	$29
	.byte	$00
	.byte	$00
	.byte	$28
	.byte	$00
	.byte	$2A
	.byte	$00
	.byte	$28
	.byte	$00
	.byte	$00
	.byte	$00
	.byte	$0E
	.byte	$0F
	.byte	$09
	.byte	$09
	.byte	$0C
	.byte	$0C
	.byte	$0C
	.byte	$0C
	.byte	$0C
	.byte	$0C
	.byte	$0C
	.byte	$0C
	.byte	$00
	.byte	$00
	.byte	$28
	.byte	$00
	.byte	$2A
	.byte	$00
	.byte	$00
	.byte	$00
	.byte	$00
	.byte	$00
	.byte	$28
	.byte	$00
	.byte	$00
	.byte	$00
	.byte	$09
	.byte	$09
	.byte	$0C
	.byte	$0C
	.byte	$0C
	.byte	$0C
	.byte	$0C
	.byte	$0C
	.byte	$0C
	.byte	$0C
	.byte	$28
	.byte	$00
	.byte	$00
	.byte	$00
	.byte	$00
	.byte	$29
	.byte	$2A
	.byte	$00
	.byte	$00
	.byte	$00
	.byte	$2A
	.byte	$00
	.byte	$28
	.byte	$0D
	.byte	$08
	.byte	$08
	.byte	$0C
	.byte	$0C
	.byte	$0C
	.byte	$0C
	.byte	$0C
	.byte	$0C
	.byte	$0C
	.byte	$0C
	.byte	$00
	.byte	$00
	.byte	$00
	.byte	$00
	.byte	$2A
	.byte	$00
	.byte	$28
	.byte	$29
	.byte	$00
	.byte	$00
	.byte	$00
	.byte	$00
	.byte	$0E
	.byte	$0F
	.byte	$08
	.byte	$08
	.byte	$0C
	.byte	$0C
	.byte	$0C
	.byte	$0C
	.byte	$0C
	.byte	$20
	.byte	$0C
	.byte	$0C
	.byte	$21
	.byte	$20
	.byte	$00
	.byte	$00
	.byte	$00
	.byte	$29
	.byte	$2A
	.byte	$00
	.byte	$00
	.byte	$29
	.byte	$00
	.byte	$00
	.byte	$00
	.byte	$00
	.byte	$00
	.byte	$00
	.byte	$0C
	.byte	$0C
	.byte	$0C
	.byte	$0C
	.byte	$2A
	.byte	$00
	.byte	$20
	.byte	$00
	.byte	$00
	.byte	$00
	.byte	$28
	.byte	$29
	.byte	$2A
	.byte	$00
	.byte	$00
	.byte	$29
	.byte	$00
	.byte	$00
	.byte	$28
	.byte	$29
	.byte	$00
	.byte	$00
	.byte	$08
	.byte	$08
	.byte	$0C
	.byte	$0C
	.byte	$0C
	.byte	$20
	.byte	$00
	.byte	$00
	.byte	$00
	.byte	$00
	.byte	$28
	.byte	$00
	.byte	$00
	.byte	$00
	.byte	$00
	.byte	$00
	.byte	$00
	.byte	$00
	.byte	$28
	.byte	$29
	.byte	$2A
	.byte	$04
	.byte	$0B
	.byte	$29
	.byte	$08
	.byte	$08
	.byte	$22
	.byte	$00
	.byte	$00
	.byte	$00
	.byte	$2A
	.byte	$00
	.byte	$28
	.byte	$00
	.byte	$2A
	.byte	$00
	.byte	$00
	.byte	$00
	.byte	$2A
	.byte	$00
	.byte	$00
	.byte	$00
	.byte	$2A
	.byte	$00
	.byte	$00
	.byte	$00
	.byte	$00
	.byte	$00
	.byte	$00
	.byte	$00
	.byte	$28
	.byte	$00
	.byte	$00
	.byte	$00
	.byte	$00
	.byte	$29
	.byte	$00
	.byte	$00
	.byte	$00
	.byte	$29
	.byte	$2A
	.byte	$00
	.byte	$00
	.byte	$29
	.byte	$2A
	.byte	$0D
	.byte	$0D
	.byte	$03
	.byte	$03
	.byte	$02
	.byte	$02
	.byte	$29
	.byte	$03
	.byte	$03
	.byte	$00
	.byte	$00
	.byte	$28
	.byte	$00
	.byte	$00
	.byte	$00
	.byte	$28
	.byte	$29
	.byte	$00
	.byte	$00
	.byte	$00
	.byte	$00
	.byte	$0D
	.byte	$03
	.byte	$03
	.byte	$01
	.byte	$02
	.byte	$01
	.byte	$28
	.byte	$01
	.byte	$00
	.byte	$01
	.byte	$03
	.byte	$01
	.byte	$28
	.byte	$00
	.byte	$00
	.byte	$00
	.byte	$28
	.byte	$29
	.byte	$00
	.byte	$00
	.byte	$28
	.byte	$00
	.byte	$2A
	.byte	$00
	.byte	$03
	.byte	$0F
	.byte	$01
	.byte	$03
	.byte	$01
	.byte	$01
	.byte	$11
	.byte	$01
	.byte	$01
	.byte	$11
	.byte	$01
	.byte	$01
	.byte	$00
	.byte	$00
	.byte	$28
	.byte	$00
	.byte	$2A
	.byte	$00
	.byte	$28
	.byte	$29
	.byte	$00
	.byte	$00
	.byte	$00
	.byte	$00
	.byte	$2A
	.byte	$00
	.byte	$0F
	.byte	$29
	.byte	$03
	.byte	$0F
	.byte	$01
	.byte	$03
	.byte	$01
	.byte	$01
	.byte	$11
	.byte	$01
	.byte	$28
	.byte	$29
	.byte	$00
	.byte	$00
	.byte	$00
	.byte	$00
	.byte	$00
	.byte	$00
	.byte	$00
	.byte	$00
	.byte	$00
	.byte	$00
	.byte	$28
	.byte	$29
	.byte	$2A
	.byte	$00
	.byte	$28
	.byte	$29
	.byte	$03
	.byte	$0F
	.byte	$01
	.byte	$03
	.byte	$01
	.byte	$01
	.byte	$00
	.byte	$00
	.byte	$00
	.byte	$00
	.byte	$2A
	.byte	$00
	.byte	$00
	.byte	$29
	.byte	$2A
	.byte	$00
	.byte	$28
	.byte	$29
	.byte	$2A
	.byte	$00
	.byte	$00
	.byte	$00
	.byte	$2A
	.byte	$00
	.byte	$28
	.byte	$00
	.byte	$03
	.byte	$03
	.byte	$11
	.byte	$01
	.byte	$28
	.byte	$29
	.byte	$00
	.byte	$00
	.byte	$00
	.byte	$29
	.byte	$2A
	.byte	$00
	.byte	$28
	.byte	$00
	.byte	$2A
	.byte	$00
	.byte	$00
	.byte	$29
	.byte	$00
	.byte	$00
	.byte	$00
	.byte	$00
	.byte	$00
	.byte	$00
	.byte	$03
	.byte	$03
	.byte	$11
	.byte	$01
	.byte	$2A
	.byte	$00
	.byte	$00
	.byte	$00
	.byte	$00
	.byte	$00
	.byte	$00
	.byte	$29
	.byte	$2A
	.byte	$00
	.byte	$28
	.byte	$00
	.byte	$00
	.byte	$00
	.byte	$28
	.byte	$00
	.byte	$2A
	.byte	$00
	.byte	$28
	.byte	$00
	.byte	$03
	.byte	$03
	.byte	$01
	.byte	$11
	.byte	$28
	.byte	$00
	.byte	$00
	.byte	$00
	.byte	$00
	.byte	$29
	.byte	$00
	.byte	$00
	.byte	$28
	.byte	$00
	.byte	$2A
	.byte	$00
	.byte	$00
	.byte	$00
	.byte	$2A
	.byte	$00
	.byte	$00
	.byte	$00
	.byte	$00
	.byte	$00
	.byte	$0F
	.byte	$29
	.byte	$03
	.byte	$03
	.byte	$00
	.byte	$00
	.byte	$00
	.byte	$29
	.byte	$2A
	.byte	$00
	.byte	$00
	.byte	$00
	.byte	$2A
	.byte	$00
	.byte	$00
	.byte	$29
	.byte	$2A
	.byte	$00
	.byte	$00
	.byte	$29
	.byte	$2A
	.byte	$00
	.byte	$28
	.byte	$00
	.byte	$2A
	.byte	$00
	.byte	$03
	.byte	$03
	.byte	$28
	.byte	$29
	.byte	$00
	.byte	$00
	.byte	$28
	.byte	$00
	.byte	$2A
	.byte	$00
	.byte	$28
	.byte	$00
	.byte	$2A
	.byte	$00
	.byte	$28
	.byte	$29
	.byte	$2A
	.byte	$00
	.byte	$00
	.byte	$29
	.byte	$00
	.byte	$00
	.byte	$00
	.byte	$00
	.byte	$03
	.byte	$03
	.byte	$2A
	.byte	$00
	.byte	$00
	.byte	$29
	.byte	$2A
	.byte	$00
	.byte	$00
	.byte	$00
	.byte	$2A
	.byte	$00
	.byte	$28
	.byte	$00
	.byte	$00
	.byte	$00
	.byte	$28
	.byte	$00
	.byte	$2A
	.byte	$00
	.byte	$28
	.byte	$29
	.byte	$00
	.byte	$00
	.byte	$03
	.byte	$03
	.byte	$28
	.byte	$00
	.byte	$2A
	.byte	$00
	.byte	$00
	.byte	$00
	.byte	$00
	.byte	$00
	.byte	$28
	.byte	$00
	.byte	$2A
	.byte	$00
	.byte	$00
	.byte	$29
	.byte	$2A
	.byte	$00
	.byte	$00
	.byte	$00
	.byte	$2A
	.byte	$00
	.byte	$00
	.byte	$0D
	.byte	$03
	.byte	$03
	.byte	$2A
	.byte	$00
	.byte	$00
	.byte	$29
	.byte	$00
	.byte	$00
	.byte	$28
	.byte	$00
	.byte	$00
	.byte	$00
	.byte	$28
	.byte	$29
	.byte	$00
	.byte	$00
	.byte	$28
	.byte	$29
	.byte	$2A
	.byte	$00
	.byte	$00
	.byte	$29
	.byte	$0E
	.byte	$0F
	.byte	$03
	.byte	$03
	.byte	$28
	.byte	$29
	.byte	$00
	.byte	$00
	.byte	$28
	.byte	$00
	.byte	$00
	.byte	$00
	.byte	$28
	.byte	$00
	.byte	$2A
	.byte	$00
	.byte	$00
	.byte	$00
	.byte	$00
	.byte	$00
	.byte	$28
	.byte	$00
	.byte	$00
	.byte	$00
	.byte	$00
	.byte	$00
	.byte	$03
	.byte	$03
	.byte	$00
	.byte	$00
	.byte	$00
	.byte	$00
	.byte	$00
	.byte	$00
	.byte	$28
	.byte	$00
	.byte	$00
	.byte	$00
	.byte	$28
	.byte	$00
	.byte	$2A
	.byte	$00
	.byte	$00
	.byte	$00
	.byte	$00
	.byte	$00
	.byte	$28
	.byte	$29
	.byte	$00
	.byte	$00
	.byte	$03
	.byte	$03
	.byte	$28
	.byte	$29
	.byte	$00
	.byte	$00
	.byte	$00
	.byte	$29
	.byte	$00
	.byte	$00
	.byte	$00
	.byte	$00
	.byte	$00
	.byte	$00
	.byte	$00
	.byte	$00
	.byte	$00
	.byte	$00
	.byte	$00
	.byte	$29
	.byte	$00
	.byte	$00
	.byte	$00
	.byte	$00
	.byte	$00
	.byte	$00
	.byte	$00
	.byte	$00
	.byte	$28
	.byte	$00
	.byte	$2A
	.byte	$00
	.byte	$00
	.byte	$29
	.byte	$00
	.byte	$00
	.byte	$28
	.byte	$00
	.byte	$00
	.byte	$00
	.byte	$28
	.byte	$00
	.byte	$2A
	.byte	$00
	.byte	$00
	.byte	$03
	.byte	$00
	.byte	$01
	.byte	$28
	.byte	$01
	.byte	$00
	.byte	$29
	.byte	$2A
	.byte	$00
	.byte	$28
	.byte	$29
	.byte	$00
	.byte	$00
	.byte	$00
	.byte	$00
	.byte	$00
	.byte	$00
	.byte	$00
	.byte	$29
	.byte	$00
	.byte	$00
	.byte	$00
	.byte	$00
	.byte	$03
	.byte	$03
	.byte	$01
	.byte	$01
	.byte	$01
	.byte	$01
	.byte	$2A
	.byte	$00
	.byte	$00
	.byte	$29
	.byte	$00
	.byte	$00
	.byte	$00
	.byte	$29
	.byte	$2A
	.byte	$00
	.byte	$00
	.byte	$00
	.byte	$2A
	.byte	$00
	.byte	$00
	.byte	$00
	.byte	$2A
	.byte	$00
	.byte	$00
	.byte	$00
	.byte	$00
	.byte	$00
	.byte	$24
	.byte	$24
	.byte	$28
	.byte	$00
	.byte	$00
	.byte	$00
	.byte	$00
	.byte	$00
	.byte	$00
	.byte	$00
	.byte	$00
	.byte	$29
	.byte	$00
	.byte	$00
	.byte	$28
	.byte	$00
	.byte	$00
	.byte	$00
	.byte	$00
	.byte	$00
	.byte	$2A
	.byte	$00
	.byte	$28
	.byte	$29
	.byte	$03
	.byte	$03
	.byte	$00
	.byte	$00
	.byte	$00
	.byte	$00
	.byte	$00
	.byte	$00
	.byte	$28
	.byte	$29
	.byte	$00
	.byte	$00
	.byte	$28
	.byte	$00
	.byte	$2A
	.byte	$00
	.byte	$28
	.byte	$00
	.byte	$2A
	.byte	$00
	.byte	$28
	.byte	$29
	.byte	$00
	.byte	$00
	.byte	$03
	.byte	$03
	.byte	$28
	.byte	$00
	.byte	$00
	.byte	$00
	.byte	$00
	.byte	$00
	.byte	$2A
	.byte	$00
	.byte	$28
	.byte	$00
	.byte	$00
	.byte	$00
	.byte	$28
	.byte	$00
	.byte	$00
	.byte	$00
	.byte	$00
	.byte	$00
	.byte	$2A
	.byte	$00
	.byte	$00
	.byte	$00
	.byte	$03
	.byte	$03
	.byte	$2A
	.byte	$00
	.byte	$28
	.byte	$00
	.byte	$2A
	.byte	$00
	.byte	$28
	.byte	$00
	.byte	$2A
	.byte	$00
	.byte	$28
	.byte	$00
	.byte	$00
	.byte	$00
	.byte	$00
	.byte	$29
	.byte	$2A
	.byte	$00
	.byte	$28
	.byte	$00
	.byte	$00
	.byte	$00
	.byte	$03
	.byte	$03
	.byte	$00
	.byte	$00
	.byte	$00
	.byte	$00
	.byte	$00
	.byte	$29
	.byte	$00
	.byte	$00
	.byte	$28
	.byte	$29
	.byte	$00
	.byte	$00
	.byte	$00
	.byte	$00
	.byte	$00
	.byte	$00
	.byte	$28
	.byte	$00
	.byte	$2A
	.byte	$00
	.byte	$00
	.byte	$29
	.byte	$03
	.byte	$03
	.byte	$00
	.byte	$00
	.byte	$28
	.byte	$00
	.byte	$2A
	.byte	$00
	.byte	$28
	.byte	$00
	.byte	$2A
	.byte	$00
	.byte	$00
	.byte	$00
	.byte	$00
	.byte	$00
	.byte	$00
	.byte	$00
	.byte	$00
	.byte	$00
	.byte	$00
	.byte	$29
	.byte	$2A
	.byte	$00
	.byte	$03
	.byte	$03
	.byte	$00
	.byte	$00
	.byte	$00
	.byte	$00
	.byte	$00
	.byte	$29
	.byte	$2A
	.byte	$00
	.byte	$00
	.byte	$00
	.byte	$00
	.byte	$00
	.byte	$00
	.byte	$00
	.byte	$2A
	.byte	$00
	.byte	$00
	.byte	$00
	.byte	$00
	.byte	$00
	.byte	$28
	.byte	$29
	.byte	$03
	.byte	$03
	.byte	$00
	.byte	$00
	.byte	$00
	.byte	$00
	.byte	$2A
	.byte	$00
	.byte	$28
	.byte	$00
	.byte	$2A
	.byte	$00
	.byte	$00
	.byte	$29
	.byte	$00
	.byte	$00
	.byte	$00
	.byte	$29
	.byte	$2A
	.byte	$00
	.byte	$00
	.byte	$29
	.byte	$00
	.byte	$03
	.byte	$03
	.byte	$01
	.byte	$28
	.byte	$00
	.byte	$00
	.byte	$00
	.byte	$00
	.byte	$00
	.byte	$00
	.byte	$00
	.byte	$00
	.byte	$29
	.byte	$00
	.byte	$00
	.byte	$00
	.byte	$29
	.byte	$2A
	.byte	$00
	.byte	$28
	.byte	$03
	.byte	$03
	.byte	$01
	.byte	$01
	.byte	$01
	.byte	$01
	.byte	$01
	.byte	$00
	.byte	$00
	.byte	$00
	.byte	$00
	.byte	$00
	.byte	$00
	.byte	$28
	.byte	$29
	.byte	$2A
	.byte	$00
	.byte	$00
	.byte	$00
	.byte	$00
	.byte	$00
	.byte	$03
	.byte	$00
	.byte	$01
	.byte	$00
	.byte	$01
	.byte	$00
	.byte	$01
	.byte	$03
	.byte	$01
	.byte	$11
	.byte	$28
	.byte	$29
	.byte	$00
	.byte	$00
	.byte	$28
	.byte	$00
	.byte	$00
	.byte	$00
	.byte	$28
	.byte	$00
	.byte	$00
	.byte	$00
	.byte	$00
	.byte	$00
	.byte	$00
	.byte	$00
	.byte	$28
	.byte	$00
	.byte	$00
	.byte	$00
	.byte	$00
	.byte	$00
	.byte	$03
	.byte	$03
	.byte	$2A
	.byte	$00
	.byte	$00
	.byte	$23
	.byte	$2A
	.byte	$0C
	.byte	$00
	.byte	$0C
	.byte	$23
	.byte	$0C
	.byte	$13
	.byte	$0C
	.byte	$06
	.byte	$0C
	.byte	$06
	.byte	$0C
	.byte	$06
	.byte	$0C
	.byte	$06
	.byte	$0C
	.byte	$06
	.byte	$0C
	.byte	$03
	.byte	$0C
	.byte	$0C
	.byte	$29
	.byte	$0C
	.byte	$00
	.byte	$0C
	.byte	$22
	.byte	$0C
	.byte	$05
	.byte	$0C
	.byte	$06
	.byte	$0C
	.byte	$06
	.byte	$0C
	.byte	$06
	.byte	$0C
	.byte	$06
	.byte	$0C
	.byte	$06
	.byte	$0C
	.byte	$06
	.byte	$0C
	.byte	$07
	.byte	$03
	.byte	$03
	.byte	$2A
	.byte	$00
	.byte	$00
	.byte	$00
	.byte	$00
	.byte	$00
	.byte	$00
	.byte	$29
	.byte	$00
	.byte	$00
	.byte	$28
	.byte	$29
	.byte	$00
	.byte	$00
	.byte	$28
	.byte	$00
	.byte	$00
	.byte	$00
	.byte	$00
	.byte	$29
	.byte	$2A
	.byte	$00
	.byte	$03
	.byte	$03
	.byte	$28
	.byte	$00
	.byte	$2A
	.byte	$00
	.byte	$28
	.byte	$00
	.byte	$00
	.byte	$00
	.byte	$00
	.byte	$29
	.byte	$2A
	.byte	$00
	.byte	$00
	.byte	$00
	.byte	$2A
	.byte	$00
	.byte	$28
	.byte	$29
	.byte	$00
	.byte	$00
	.byte	$00
	.byte	$0D
	.byte	$03
	.byte	$03
	.byte	$2A
	.byte	$00
	.byte	$28
	.byte	$00
	.byte	$00
	.byte	$00
	.byte	$00
	.byte	$29
	.byte	$00
	.byte	$00
	.byte	$04
	.byte	$29
	.byte	$2A
	.byte	$00
	.byte	$00
	.byte	$29
	.byte	$2A
	.byte	$00
	.byte	$00
	.byte	$29
	.byte	$0E
	.byte	$0F
	.byte	$03
	.byte	$03
	.byte	$28
	.byte	$00
	.byte	$00
	.byte	$00
	.byte	$12
	.byte	$00
	.byte	$04
	.byte	$00
	.byte	$28
	.byte	$00
	.byte	$00
	.byte	$00
	.byte	$00
	.byte	$00
	.byte	$04
	.byte	$00
	.byte	$28
	.byte	$00
	.byte	$2A
	.byte	$00
	.byte	$00
	.byte	$29
	.byte	$10
	.byte	$10
	.byte	$00
	.byte	$00
	.byte	$00
	.byte	$00
	.byte	$2A
	.byte	$00
	.byte	$28
	.byte	$00
	.byte	$2A
	.byte	$00
	.byte	$28
	.byte	$00
	.byte	$00
	.byte	$00
	.byte	$00
	.byte	$00
	.byte	$12
	.byte	$00
	.byte	$04
	.byte	$29
	.byte	$00
	.byte	$00
	.byte	$10
	.byte	$10
	.byte	$00
	.byte	$29
	.byte	$2A
	.byte	$00
	.byte	$00
	.byte	$00
	.byte	$04
	.byte	$00
	.byte	$00
	.byte	$29
	.byte	$2A
	.byte	$00
	.byte	$00
	.byte	$29
	.byte	$00
	.byte	$00
	.byte	$28
	.byte	$00
	.byte	$00
	.byte	$00
	.byte	$28
	.byte	$00
	.byte	$10
	.byte	$10
	.byte	$2A
	.byte	$00
	.byte	$00
	.byte	$00
	.byte	$2A
	.byte	$00
	.byte	$28
	.byte	$00
	.byte	$2A
	.byte	$00
	.byte	$00
	.byte	$00
	.byte	$00
	.byte	$00
	.byte	$28
	.byte	$29
	.byte	$00
	.byte	$00
	.byte	$28
	.byte	$00
	.byte	$00
	.byte	$00
	.byte	$10
	.byte	$10
	.byte	$00
	.byte	$00
	.byte	$2A
	.byte	$00
	.byte	$00
	.byte	$29
	.byte	$00
	.byte	$00
	.byte	$00
	.byte	$00
	.byte	$00
	.byte	$03
	.byte	$00
	.byte	$01
	.byte	$00
	.byte	$01
	.byte	$00
	.byte	$01
	.byte	$00
	.byte	$01
	.byte	$00
	.byte	$01
	.byte	$10
	.byte	$01
	.byte	$00
	.byte	$01
	.byte	$00
	.byte	$01
	.byte	$00
	.byte	$01
	.byte	$00
	.byte	$01
	.byte	$00
	.byte	$01
	.byte	$00
	.byte	$01
	.byte	$00
	.byte	$01
	.byte	$00
	.byte	$01
	.byte	$00
	.byte	$01
	.byte	$28
	.byte	$01
	.byte	$00
	.byte	$01
	.byte	$28
	.byte	$01
	.byte	$01
	.byte	$00
	.byte	$01
	.byte	$0C
	.byte	$01
	.byte	$0C
	.byte	$01
	.byte	$21
	.byte	$01
	.byte	$29
	.byte	$01
	.byte	$00
	.byte	$01
	.byte	$00
	.byte	$01
	.byte	$00
	.byte	$01
	.byte	$29
	.byte	$01
	.byte	$00
	.byte	$01
	.byte	$29
	.byte	$01
	.byte	$00
	.byte	$00
	.byte	$00
	.byte	$22
	.byte	$00
	.byte	$0C
	.byte	$0C
	.byte	$0C
	.byte	$0C
	.byte	$21
	.byte	$0C
	.byte	$21
	.byte	$20
	.byte	$2A
	.byte	$00
	.byte	$28
	.byte	$29
	.byte	$00
	.byte	$00
	.byte	$28
	.byte	$29
	.byte	$00
	.byte	$00
	.byte	$28
	.byte	$00
	.byte	$28
	.byte	$00
	.byte	$00
	.byte	$00
	.byte	$22
	.byte	$00
	.byte	$0C
	.byte	$22
	.byte	$0C
	.byte	$0C
	.byte	$0C
	.byte	$0C
	.byte	$21
	.byte	$0C
	.byte	$00
	.byte	$21
	.byte	$00
	.byte	$29
	.byte	$2A
	.byte	$00
	.byte	$00
	.byte	$04
	.byte	$2A
	.byte	$00
	.byte	$2A
	.byte	$00
	.byte	$28
	.byte	$29
	.byte	$2A
	.byte	$00
	.byte	$28
	.byte	$29
	.byte	$0C
	.byte	$22
	.byte	$0C
	.byte	$0C
	.byte	$0C
	.byte	$0C
	.byte	$00
	.byte	$00
	.byte	$05
	.byte	$00
	.byte	$07
	.byte	$25
	.byte	$04
	.byte	$04
	.byte	$21
	.byte	$0C
	.byte	$00
	.byte	$00
	.byte	$2A
	.byte	$00
	.byte	$00
	.byte	$00
	.byte	$00
	.byte	$00
	.byte	$28
	.byte	$00
	.byte	$2A
	.byte	$00
	.byte	$00
	.byte	$29
	.byte	$20
	.byte	$00
	.byte	$00
	.byte	$29
	.byte	$37
	.byte	$09
	.byte	$04
	.byte	$04
	.byte	$0C
	.byte	$0C
	.byte	$00
	.byte	$00
	.byte	$28
	.byte	$29
	.byte	$00
	.byte	$00
	.byte	$00
	.byte	$00
	.byte	$00
	.byte	$00
	.byte	$00
	.byte	$29
	.byte	$00
	.byte	$00
	.byte	$00
	.byte	$00
	.byte	$05
	.byte	$0C
	.byte	$07
	.byte	$0C
	.byte	$04
	.byte	$04
	.byte	$0C
	.byte	$0C
	.byte	$28
	.byte	$29
	.byte	$00
	.byte	$00
	.byte	$00
	.byte	$29
	.byte	$2A
	.byte	$00
	.byte	$00
	.byte	$29
	.byte	$2A
	.byte	$00
	.byte	$28
	.byte	$00
	.byte	$00
	.byte	$00
	.byte	$0C
	.byte	$22
	.byte	$0C
	.byte	$0C
	.byte	$0C
	.byte	$0C
	.byte	$0C
	.byte	$0C
	.byte	$00
	.byte	$00
	.byte	$00
	.byte	$29
	.byte	$00
	.byte	$00
	.byte	$28
	.byte	$00
	.byte	$2A
	.byte	$00
	.byte	$00
	.byte	$29
	.byte	$2A
	.byte	$00
	.byte	$00
	.byte	$29
	.byte	$00
	.byte	$22
	.byte	$0C
	.byte	$00
	.byte	$0C
	.byte	$22
	.byte	$0C
	.byte	$03
	.byte	$28
	.byte	$00
	.byte	$00
	.byte	$00
	.byte	$28
	.byte	$00
	.byte	$2A
	.byte	$00
	.byte	$28
	.byte	$00
	.byte	$2A
	.byte	$00
	.byte	$28
	.byte	$29
	.byte	$00
	.byte	$00
	.byte	$28
	.byte	$29
	.byte	$00
	.byte	$00
	.byte	$00
	.byte	$29
	.byte	$03
	.byte	$03
	.byte	$2A
	.byte	$00
	.byte	$28
	.byte	$29
	.byte	$2A
	.byte	$00
	.byte	$28
	.byte	$29
	.byte	$00
	.byte	$00
	.byte	$00
	.byte	$29
	.byte	$2A
	.byte	$00
	.byte	$00
	.byte	$00
	.byte	$2A
	.byte	$00
	.byte	$28
	.byte	$29
	.byte	$00
	.byte	$0B
	.byte	$03
	.byte	$03
	.byte	$00
	.byte	$08
	.byte	$00
	.byte	$08
	.byte	$28
	.byte	$09
	.byte	$2A
	.byte	$00
	.byte	$28
	.byte	$00
	.byte	$2A
	.byte	$00
	.byte	$00
	.byte	$00
	.byte	$2A
	.byte	$00
	.byte	$28
	.byte	$29
	.byte	$2A
	.byte	$09
	.byte	$08
	.byte	$08
	.byte	$03
	.byte	$03
	.byte	$0C
	.byte	$0C
	.byte	$0C
	.byte	$0C
	.byte	$09
	.byte	$25
	.byte	$00
	.byte	$05
	.byte	$00
	.byte	$06
	.byte	$28
	.byte	$06
	.byte	$00
	.byte	$06
	.byte	$00
	.byte	$14
	.byte	$2A
	.byte	$00
	.byte	$09
	.byte	$09
	.byte	$25
	.byte	$08
	.byte	$03
	.byte	$03
	.byte	$0C
	.byte	$0C
	.byte	$0C
	.byte	$0C
	.byte	$09
	.byte	$09
	.byte	$2A
	.byte	$00
	.byte	$28
	.byte	$29
	.byte	$00
	.byte	$00
	.byte	$28
	.byte	$29
	.byte	$00
	.byte	$00
	.byte	$28
	.byte	$12
	.byte	$25
	.byte	$09
	.byte	$08
	.byte	$25
	.byte	$03
	.byte	$03
	.byte	$0C
	.byte	$0C
	.byte	$0C
	.byte	$0C
	.byte	$25
	.byte	$09
	.byte	$00
	.byte	$00
	.byte	$2A
	.byte	$00
	.byte	$00
	.byte	$00
	.byte	$2A
	.byte	$00
	.byte	$28
	.byte	$00
	.byte	$2A
	.byte	$00
	.byte	$09
	.byte	$09
	.byte	$08
	.byte	$08
	.byte	$03
	.byte	$03
	.byte	$0C
	.byte	$0C
	.byte	$0C
	.byte	$0C
	.byte	$25
	.byte	$09
	.byte	$00
	.byte	$05
	.byte	$00
	.byte	$14
	.byte	$00
	.byte	$00
	.byte	$00
	.byte	$13
	.byte	$00
	.byte	$06
	.byte	$28
	.byte	$06
	.byte	$25
	.byte	$09
	.byte	$08
	.byte	$08
	.byte	$03
	.byte	$03
	.byte	$0C
	.byte	$0C
	.byte	$0C
	.byte	$0C
	.byte	$09
	.byte	$25
	.byte	$28
	.byte	$00
	.byte	$00
	.byte	$00
	.byte	$28
	.byte	$00
	.byte	$2A
	.byte	$00
	.byte	$00
	.byte	$29
	.byte	$0D
	.byte	$0E
	.byte	$25
	.byte	$09
	.byte	$08
	.byte	$08
	.byte	$03
	.byte	$03
	.byte	$0C
	.byte	$0C
	.byte	$0C
	.byte	$0C
	.byte	$09
	.byte	$09
	.byte	$00
	.byte	$00
	.byte	$28
	.byte	$29
	.byte	$2A
	.byte	$00
	.byte	$00
	.byte	$00
	.byte	$2A
	.byte	$00
	.byte	$0E
	.byte	$0F
	.byte	$08
	.byte	$25
	.byte	$09
	.byte	$09
	.byte	$03
	.byte	$03
	.byte	$0C
	.byte	$0C
	.byte	$0C
	.byte	$0C
	.byte	$09
	.byte	$09
	.byte	$05
	.byte	$00
	.byte	$14
	.byte	$00
	.byte	$28
	.byte	$29
	.byte	$00
	.byte	$00
	.byte	$13
	.byte	$00
	.byte	$06
	.byte	$00
	.byte	$08
	.byte	$08
	.byte	$09
	.byte	$25
	.byte	$03
	.byte	$03
	.byte	$0C
	.byte	$0C
	.byte	$0C
	.byte	$0C
	.byte	$25
	.byte	$09
	.byte	$00
	.byte	$00
	.byte	$00
	.byte	$00
	.byte	$2A
	.byte	$00
	.byte	$00
	.byte	$29
	.byte	$2A
	.byte	$00
	.byte	$00
	.byte	$0B
	.byte	$25
	.byte	$08
	.byte	$09
	.byte	$09
	.byte	$03
	.byte	$03
	.byte	$0C
	.byte	$0C
	.byte	$0C
	.byte	$0C
	.byte	$09
	.byte	$09
	.byte	$00
	.byte	$00
	.byte	$2A
	.byte	$00
	.byte	$00
	.byte	$00
	.byte	$00
	.byte	$00
	.byte	$28
	.byte	$29
	.byte	$2A
	.byte	$00
	.byte	$08
	.byte	$08
	.byte	$09
	.byte	$25
	.byte	$03
	.byte	$03
	.byte	$0C
	.byte	$0C
	.byte	$0C
	.byte	$0C
	.byte	$25
	.byte	$09
	.byte	$05
	.byte	$00
	.byte	$06
	.byte	$29
	.byte	$06
	.byte	$00
	.byte	$14
	.byte	$00
	.byte	$00
	.byte	$00
	.byte	$13
	.byte	$00
	.byte	$25
	.byte	$08
	.byte	$09
	.byte	$09
	.byte	$03
	.byte	$03
	.byte	$09
	.byte	$00
	.byte	$08
	.byte	$00
	.byte	$09
	.byte	$00
	.byte	$28
	.byte	$00
	.byte	$00
	.byte	$00
	.byte	$00
	.byte	$00
	.byte	$2A
	.byte	$00
	.byte	$00
	.byte	$29
	.byte	$00
	.byte	$00
	.byte	$08
	.byte	$0B
	.byte	$09
	.byte	$09
	.byte	$03
	.byte	$03
	.byte	$28
	.byte	$00
	.byte	$2A
	.byte	$00
	.byte	$00
	.byte	$29
	.byte	$2A
	.byte	$00
	.byte	$28
	.byte	$00
	.byte	$2A
	.byte	$00
	.byte	$00
	.byte	$00
	.byte	$00
	.byte	$00
	.byte	$28
	.byte	$29
	.byte	$2A
	.byte	$00
	.byte	$00
	.byte	$12
	.byte	$03
	.byte	$03
	.byte	$00
	.byte	$00
	.byte	$28
	.byte	$00
	.byte	$2A
	.byte	$00
	.byte	$00
	.byte	$29
	.byte	$00
	.byte	$00
	.byte	$00
	.byte	$00
	.byte	$00
	.byte	$00
	.byte	$00
	.byte	$00
	.byte	$00
	.byte	$00
	.byte	$28
	.byte	$00
	.byte	$2A
	.byte	$00
	.byte	$03
	.byte	$03
	.byte	$28
	.byte	$29
	.byte	$00
	.byte	$00
	.byte	$00
	.byte	$00
	.byte	$00
	.byte	$00
	.byte	$00
	.byte	$00
	.byte	$00
	.byte	$00
	.byte	$00
	.byte	$00
	.byte	$00
	.byte	$00
	.byte	$0C
	.byte	$0C
	.byte	$0C
	.byte	$0C
	.byte	$0C
	.byte	$0C
	.byte	$03
	.byte	$03
	.byte	$00
	.byte	$00
	.byte	$28
	.byte	$29
	.byte	$2A
	.byte	$00
	.byte	$00
	.byte	$00
	.byte	$00
	.byte	$00
	.byte	$00
	.byte	$29
	.byte	$00
	.byte	$00
	.byte	$00
	.byte	$00
	.byte	$22
	.byte	$00
	.byte	$0C
	.byte	$0C
	.byte	$0C
	.byte	$0C
	.byte	$03
	.byte	$03
	.byte	$28
	.byte	$00
	.byte	$2A
	.byte	$00
	.byte	$28
	.byte	$00
	.byte	$2A
	.byte	$00
	.byte	$28
	.byte	$29
	.byte	$2A
	.byte	$00
	.byte	$05
	.byte	$29
	.byte	$06
	.byte	$00
	.byte	$06
	.byte	$00
	.byte	$06
	.byte	$23
	.byte	$07
	.byte	$0C
	.byte	$03
	.byte	$03
	.byte	$2A
	.byte	$00
	.byte	$28
	.byte	$08
	.byte	$00
	.byte	$00
	.byte	$00
	.byte	$00
	.byte	$2A
	.byte	$00
	.byte	$28
	.byte	$08
	.byte	$2A
	.byte	$00
	.byte	$28
	.byte	$00
	.byte	$2A
	.byte	$13
	.byte	$0C
	.byte	$06
	.byte	$0C
	.byte	$07
	.byte	$03
	.byte	$03
	.byte	$28
	.byte	$29
	.byte	$08
	.byte	$08
	.byte	$04
	.byte	$29
	.byte	$2A
	.byte	$00
	.byte	$00
	.byte	$00
	.byte	$19
	.byte	$08
	.byte	$28
	.byte	$29
	.byte	$00
	.byte	$00
	.byte	$00
	.byte	$29
	.byte	$22
	.byte	$00
	.byte	$0C
	.byte	$0C
	.byte	$03
	.byte	$03
	.byte	$09
	.byte	$25
	.byte	$08
	.byte	$08
	.byte	$04
	.byte	$00
	.byte	$00
	.byte	$29
	.byte	$00
	.byte	$00
	.byte	$1A
	.byte	$08
	.byte	$2A
	.byte	$00
	.byte	$13
	.byte	$00
	.byte	$06
	.byte	$00
	.byte	$06
	.byte	$00
	.byte	$07
	.byte	$23
	.byte	$03
	.byte	$03
	.byte	$09
	.byte	$09
	.byte	$25
	.byte	$08
	.byte	$04
	.byte	$29
	.byte	$2A
	.byte	$00
	.byte	$00
	.byte	$29
	.byte	$1B
	.byte	$08
	.byte	$00
	.byte	$05
	.byte	$2A
	.byte	$06
	.byte	$28
	.byte	$06
	.byte	$00
	.byte	$06
	.byte	$0C
	.byte	$07
	.byte	$03
	.byte	$03
	.byte	$25
	.byte	$09
	.byte	$08
	.byte	$25
	.byte	$05
	.byte	$00
	.byte	$14
	.byte	$00
	.byte	$00
	.byte	$00
	.byte	$08
	.byte	$08
	.byte	$00
	.byte	$01
	.byte	$00
	.byte	$01
	.byte	$23
	.byte	$01
	.byte	$0C
	.byte	$01
	.byte	$0C
	.byte	$01
	.byte	$03
	.byte	$01
	.byte	$01
	.byte	$01
	.byte	$01
	.byte	$01
	.byte	$01
	.byte	$11
	.byte	$11
	.byte	$01
	.byte	$01
	.byte	$01
	.byte	$01
	.byte	$01
	.byte	$01
	.byte	$11
	.byte	$11
	.byte	$01
	.byte	$01
	.byte	$01
	.byte	$02
	.byte	$02
	.byte	$28
	.byte	$29
	.byte	$2A
	.byte	$00
	.byte	$01
	.byte	$01
	.byte	$11
	.byte	$01
	.byte	$01
	.byte	$01
	.byte	$01
	.byte	$01
	.byte	$11
	.byte	$02
	.byte	$01
	.byte	$29
	.byte	$01
	.byte	$00
	.byte	$02
	.byte	$00
	.byte	$00
	.byte	$00
	.byte	$00
	.byte	$00
	.byte	$03
	.byte	$00
	.byte	$01
	.byte	$29
	.byte	$01
	.byte	$01
	.byte	$01
	.byte	$02
	.byte	$01
	.byte	$29
	.byte	$02
	.byte	$00
	.byte	$00
	.byte	$00
	.byte	$00
	.byte	$00
	.byte	$00
	.byte	$00
	.byte	$00
	.byte	$00
	.byte	$28
	.byte	$29
	.byte	$00
	.byte	$00
	.byte	$28
	.byte	$00
	.byte	$2A
	.byte	$00
	.byte	$02
	.byte	$02
	.byte	$00
	.byte	$00
	.byte	$00
	.byte	$00
	.byte	$28
	.byte	$29
	.byte	$2A
	.byte	$00
	.byte	$28
	.byte	$29
	.byte	$2A
	.byte	$00
	.byte	$28
	.byte	$29
	.byte	$2A
	.byte	$00
	.byte	$28
	.byte	$00
	.byte	$00
	.byte	$00
	.byte	$00
	.byte	$00
	.byte	$00
	.byte	$29
	.byte	$00
	.byte	$00
	.byte	$00
	.byte	$00
	.byte	$00
	.byte	$00
	.byte	$28
	.byte	$00
	.byte	$00
	.byte	$00
	.byte	$00
	.byte	$29
	.byte	$00
	.byte	$00
	.byte	$00
	.byte	$1F
	.byte	$03
	.byte	$01
	.byte	$01
	.byte	$01
	.byte	$01
	.byte	$01
	.byte	$00
	.byte	$02
	.byte	$28
	.byte	$29
	.byte	$00
	.byte	$00
	.byte	$28
	.byte	$00
	.byte	$00
	.byte	$00
	.byte	$00
	.byte	$00
	.byte	$2A
	.byte	$00
	.byte	$00
	.byte	$00
	.byte	$2A
	.byte	$00
	.byte	$03
	.byte	$29
	.byte	$01
	.byte	$10
	.byte	$01
	.byte	$10
	.byte	$01
	.byte	$11
	.byte	$02
	.byte	$01
	.byte	$28
	.byte	$01
	.byte	$00
	.byte	$02
	.byte	$00
	.byte	$29
	.byte	$00
	.byte	$00
	.byte	$00
	.byte	$29
	.byte	$2A
	.byte	$00
	.byte	$00
	.byte	$00
	.byte	$00
	.byte	$00
	.byte	$10
	.byte	$10
	.byte	$10
	.byte	$10
	.byte	$01
	.byte	$02
	.byte	$11
	.byte	$00
	.byte	$02
	.byte	$00
	.byte	$28
	.byte	$00
	.byte	$00
	.byte	$00
	.byte	$00
	.byte	$00
	.byte	$2A
	.byte	$00
	.byte	$00
	.byte	$00
	.byte	$00
	.byte	$00
	.byte	$00
	.byte	$04
	.byte	$10
	.byte	$10
	.byte	$10
	.byte	$10
	.byte	$02
	.byte	$01
	.byte	$00
	.byte	$02
	.byte	$28
	.byte	$00
	.byte	$00
	.byte	$00
	.byte	$00
	.byte	$00
	.byte	$2A
	.byte	$00
	.byte	$00
	.byte	$00
	.byte	$2A
	.byte	$00
	.byte	$00
	.byte	$00
	.byte	$04
	.byte	$00
	.byte	$10
	.byte	$10
	.byte	$10
	.byte	$10
	.byte	$11
	.byte	$01
	.byte	$01
	.byte	$11
	.byte	$02
	.byte	$01
	.byte	$00
	.byte	$02
	.byte	$2A
	.byte	$00
	.byte	$28
	.byte	$00
	.byte	$2A
	.byte	$00
	.byte	$28
	.byte	$00
	.byte	$00
	.byte	$00
	.byte	$00
	.byte	$00
	.byte	$10
	.byte	$10
	.byte	$10
	.byte	$10
	.byte	$01
	.byte	$11
	.byte	$02
	.byte	$01
	.byte	$00
	.byte	$02
	.byte	$00
	.byte	$00
	.byte	$00
	.byte	$29
	.byte	$2A
	.byte	$00
	.byte	$00
	.byte	$00
	.byte	$00
	.byte	$00
	.byte	$28
	.byte	$00
	.byte	$00
	.byte	$00
	.byte	$10
	.byte	$10
	.byte	$10
	.byte	$10
	.byte	$02
	.byte	$00
	.byte	$00
	.byte	$29
	.byte	$00
	.byte	$00
	.byte	$00
	.byte	$29
	.byte	$2A
	.byte	$00
	.byte	$00
	.byte	$00
	.byte	$2A
	.byte	$00
	.byte	$00
	.byte	$29
	.byte	$00
	.byte	$00
	.byte	$04
	.byte	$29
	.byte	$10
	.byte	$10
	.byte	$10
	.byte	$10
	.byte	$28
	.byte	$00
	.byte	$00
	.byte	$00
	.byte	$28
	.byte	$00
	.byte	$2A
	.byte	$00
	.byte	$00
	.byte	$00
	.byte	$2A
	.byte	$00
	.byte	$28
	.byte	$29
	.byte	$00
	.byte	$00
	.byte	$00
	.byte	$00
	.byte	$00
	.byte	$00
	.byte	$10
	.byte	$10
	.byte	$10
	.byte	$10
	.byte	$2A
	.byte	$00
	.byte	$28
	.byte	$00
	.byte	$2A
	.byte	$00
	.byte	$00
	.byte	$29
	.byte	$2A
	.byte	$00
	.byte	$00
	.byte	$00
	.byte	$2A
	.byte	$00
	.byte	$28
	.byte	$29
	.byte	$04
	.byte	$00
	.byte	$00
	.byte	$29
	.byte	$10
	.byte	$10
	.byte	$10
	.byte	$10
	.byte	$28
	.byte	$00
	.byte	$00
	.byte	$00
	.byte	$00
	.byte	$00
	.byte	$00
	.byte	$00
	.byte	$28
	.byte	$29
	.byte	$00
	.byte	$00
	.byte	$28
	.byte	$29
	.byte	$00
	.byte	$00
	.byte	$28
	.byte	$29
	.byte	$00
	.byte	$00
	.byte	$10
	.byte	$10
	.byte	$10
	.byte	$10
	.byte	$00
	.byte	$02
	.byte	$28
	.byte	$00
	.byte	$2A
	.byte	$00
	.byte	$00
	.byte	$29
	.byte	$2A
	.byte	$00
	.byte	$28
	.byte	$29
	.byte	$00
	.byte	$00
	.byte	$00
	.byte	$00
	.byte	$2A
	.byte	$00
	.byte	$28
	.byte	$04
	.byte	$10
	.byte	$10
	.byte	$10
	.byte	$10
	.byte	$02
	.byte	$11
	.byte	$2A
	.byte	$02
	.byte	$00
	.byte	$00
	.byte	$00
	.byte	$00
	.byte	$00
	.byte	$29
	.byte	$00
	.byte	$00
	.byte	$28
	.byte	$00
	.byte	$00
	.byte	$00
	.byte	$28
	.byte	$29
	.byte	$04
	.byte	$00
	.byte	$10
	.byte	$10
	.byte	$10
	.byte	$10
	.byte	$01
	.byte	$0C
	.byte	$01
	.byte	$03
	.byte	$02
	.byte	$01
	.byte	$28
	.byte	$01
	.byte	$00
	.byte	$02
	.byte	$28
	.byte	$00
	.byte	$00
	.byte	$00
	.byte	$00
	.byte	$00
	.byte	$00
	.byte	$00
	.byte	$28
	.byte	$29
	.byte	$10
	.byte	$10
	.byte	$10
	.byte	$10
	.byte	$0C
	.byte	$0C
	.byte	$0C
	.byte	$0C
	.byte	$0C
	.byte	$0C
	.byte	$0C
	.byte	$0C
	.byte	$03
	.byte	$10
	.byte	$02
	.byte	$03
	.byte	$28
	.byte	$01
	.byte	$2A
	.byte	$01
	.byte	$00
	.byte	$02
	.byte	$2A
	.byte	$00
	.byte	$08
	.byte	$08
	.byte	$10
	.byte	$10
	.byte	$00
	.byte	$00
	.byte	$22
	.byte	$00
	.byte	$0C
	.byte	$00
	.byte	$0C
	.byte	$22
	.byte	$10
	.byte	$10
	.byte	$03
	.byte	$03
	.byte	$02
	.byte	$01
	.byte	$28
	.byte	$02
	.byte	$00
	.byte	$00
	.byte	$0D
	.byte	$0E
	.byte	$09
	.byte	$25
	.byte	$10
	.byte	$10
	.byte	$0C
	.byte	$0C
	.byte	$21
	.byte	$0C
	.byte	$00
	.byte	$0C
	.byte	$23
	.byte	$0C
	.byte	$10
	.byte	$10
	.byte	$03
	.byte	$03
	.byte	$02
	.byte	$01
	.byte	$00
	.byte	$02
	.byte	$00
	.byte	$00
	.byte	$0F
	.byte	$0D
	.byte	$08
	.byte	$09
	.byte	$10
	.byte	$10
	.byte	$0C
	.byte	$0C
	.byte	$0C
	.byte	$03
	.byte	$0C
	.byte	$01
	.byte	$0C
	.byte	$01
	.byte	$03
	.byte	$01
	.byte	$01
	.byte	$02
	.byte	$01
	.byte	$00
	.byte	$02
	.byte	$00
	.byte	$00
	.byte	$00
	.byte	$0E
	.byte	$08
	.byte	$08
	.byte	$25
	.byte	$10
	.byte	$10
	.byte	$01
	.byte	$02
	.byte	$01
	.byte	$00
	.byte	$02
	.byte	$00
	.byte	$2A
	.byte	$00
	.byte	$00
	.byte	$00
	.byte	$2A
	.byte	$00
	.byte	$28
	.byte	$00
	.byte	$00
	.byte	$00
	.byte	$28
	.byte	$00
	.byte	$2A
	.byte	$00
	.byte	$10
	.byte	$10
	.byte	$10
	.byte	$10
	.byte	$02
	.byte	$00
	.byte	$28
	.byte	$00
	.byte	$00
	.byte	$00
	.byte	$00
	.byte	$00
	.byte	$00
	.byte	$00
	.byte	$00
	.byte	$00
	.byte	$0B
	.byte	$00
	.byte	$04
	.byte	$03
	.byte	$2A
	.byte	$02
	.byte	$00
	.byte	$00
	.byte	$10
	.byte	$10
	.byte	$10
	.byte	$10
	.byte	$00
	.byte	$29
	.byte	$2A
	.byte	$00
	.byte	$00
	.byte	$00
	.byte	$2A
	.byte	$00
	.byte	$28
	.byte	$00
	.byte	$00
	.byte	$00
	.byte	$00
	.byte	$00
	.byte	$04
	.byte	$00
	.byte	$28
	.byte	$29
	.byte	$2A
	.byte	$00
	.byte	$10
	.byte	$10
	.byte	$10
	.byte	$10
	.byte	$00
	.byte	$00
	.byte	$00
	.byte	$00
	.byte	$00
	.byte	$00
	.byte	$00
	.byte	$00
	.byte	$2A
	.byte	$12
	.byte	$28
	.byte	$04
	.byte	$2A
	.byte	$00
	.byte	$00
	.byte	$29
	.byte	$2A
	.byte	$00
	.byte	$28
	.byte	$00
	.byte	$10
	.byte	$10
	.byte	$10
	.byte	$10
	.byte	$28
	.byte	$00
	.byte	$00
	.byte	$00
	.byte	$00
	.byte	$29
	.byte	$2A
	.byte	$00
	.byte	$00
	.byte	$29
	.byte	$00
	.byte	$00
	.byte	$00
	.byte	$00
	.byte	$00
	.byte	$04
	.byte	$00
	.byte	$00
	.byte	$00
	.byte	$00
	.byte	$10
	.byte	$10
	.byte	$10
	.byte	$10
	.byte	$00
	.byte	$00
	.byte	$28
	.byte	$29
	.byte	$00
	.byte	$00
	.byte	$00
	.byte	$00
	.byte	$2A
	.byte	$00
	.byte	$00
	.byte	$00
	.byte	$2A
	.byte	$00
	.byte	$28
	.byte	$00
	.byte	$2A
	.byte	$00
	.byte	$28
	.byte	$00
	.byte	$10
	.byte	$10
	.byte	$10
	.byte	$10
	.byte	$28
	.byte	$29
	.byte	$00
	.byte	$00
	.byte	$00
	.byte	$00
	.byte	$00
	.byte	$00
	.byte	$00
	.byte	$00
	.byte	$2A
	.byte	$00
	.byte	$00
	.byte	$00
	.byte	$2A
	.byte	$00
	.byte	$0B
	.byte	$00
	.byte	$04
	.byte	$00
	.byte	$10
	.byte	$10
	.byte	$10
	.byte	$10
	.byte	$2A
	.byte	$00
	.byte	$28
	.byte	$29
	.byte	$2A
	.byte	$00
	.byte	$28
	.byte	$00
	.byte	$2A
	.byte	$00
	.byte	$28
	.byte	$00
	.byte	$2A
	.byte	$00
	.byte	$00
	.byte	$29
	.byte	$00
	.byte	$00
	.byte	$28
	.byte	$29
	.byte	$10
	.byte	$10
	.byte	$10
	.byte	$10
	.byte	$28
	.byte	$00
	.byte	$2A
	.byte	$00
	.byte	$28
	.byte	$29
	.byte	$2A
	.byte	$00
	.byte	$00
	.byte	$29
	.byte	$00
	.byte	$00
	.byte	$00
	.byte	$29
	.byte	$2A
	.byte	$00
	.byte	$28
	.byte	$29
	.byte	$01
	.byte	$24
	.byte	$01
	.byte	$29
	.byte	$01
	.byte	$24
	.byte	$00
	.byte	$00
	.byte	$00
	.byte	$00
	.byte	$2A
	.byte	$00
	.byte	$00
	.byte	$29
	.byte	$00
	.byte	$00
	.byte	$00
	.byte	$00
	.byte	$2A
	.byte	$00
	.byte	$28
	.byte	$00
	.byte	$0D
	.byte	$0E
	.byte	$24
	.byte	$01
	.byte	$00
	.byte	$01
	.byte	$24
	.byte	$01
	.byte	$28
	.byte	$29
	.byte	$2A
	.byte	$00
	.byte	$28
	.byte	$29
	.byte	$00
	.byte	$00
	.byte	$00
	.byte	$00
	.byte	$2A
	.byte	$00
	.byte	$00
	.byte	$29
	.byte	$2A
	.byte	$00
	.byte	$0F
	.byte	$00
	.byte	$01
	.byte	$00
	.byte	$01
	.byte	$10
	.byte	$01
	.byte	$10
	.byte	$00
	.byte	$00
	.byte	$28
	.byte	$00
	.byte	$2A
	.byte	$00
	.byte	$00
	.byte	$00
	.byte	$00
	.byte	$00
	.byte	$00
	.byte	$00
	.byte	$00
	.byte	$00
	.byte	$00
	.byte	$00
	.byte	$2A
	.byte	$00
	.byte	$28
	.byte	$29
	.byte	$10
	.byte	$10
	.byte	$10
	.byte	$10
	.byte	$00
	.byte	$29
	.byte	$00
	.byte	$00
	.byte	$00
	.byte	$29
	.byte	$00
	.byte	$00
	.byte	$00
	.byte	$00
	.byte	$00
	.byte	$00
	.byte	$28
	.byte	$29
	.byte	$2A
	.byte	$00
	.byte	$00
	.byte	$00
	.byte	$2A
	.byte	$04
	.byte	$10
	.byte	$10
	.byte	$10
	.byte	$10
	.byte	$02
	.byte	$00
	.byte	$28
	.byte	$00
	.byte	$2A
	.byte	$00
	.byte	$00
	.byte	$00
	.byte	$00
	.byte	$00
	.byte	$00
	.byte	$29
	.byte	$00
	.byte	$00
	.byte	$28
	.byte	$00
	.byte	$00
	.byte	$00
	.byte	$28
	.byte	$00
	.byte	$10
	.byte	$10
	.byte	$10
	.byte	$10
	.byte	$28
	.byte	$00
	.byte	$2A
	.byte	$00
	.byte	$00
	.byte	$00
	.byte	$2A
	.byte	$00
	.byte	$00
	.byte	$00
	.byte	$2A
	.byte	$00
	.byte	$00
	.byte	$00
	.byte	$2A
	.byte	$00
	.byte	$00
	.byte	$29
	.byte	$00
	.byte	$00
	.byte	$10
	.byte	$10
	.byte	$10
	.byte	$10
	.byte	$2A
	.byte	$00
	.byte	$28
	.byte	$00
	.byte	$2A
	.byte	$00
	.byte	$28
	.byte	$00
	.byte	$00
	.byte	$00
	.byte	$28
	.byte	$29
	.byte	$00
	.byte	$00
	.byte	$28
	.byte	$29
	.byte	$2A
	.byte	$0B
	.byte	$00
	.byte	$04
	.byte	$10
	.byte	$10
	.byte	$10
	.byte	$10
	.byte	$00
	.byte	$00
	.byte	$2A
	.byte	$00
	.byte	$28
	.byte	$29
	.byte	$00
	.byte	$00
	.byte	$00
	.byte	$00
	.byte	$00
	.byte	$00
	.byte	$28
	.byte	$29
	.byte	$2A
	.byte	$00
	.byte	$00
	.byte	$29
	.byte	$2A
	.byte	$00
	.byte	$10
	.byte	$10
	.byte	$10
	.byte	$10
	.byte	$01
	.byte	$01
	.byte	$02
	.byte	$01
	.byte	$00
	.byte	$02
	.byte	$28
	.byte	$29
	.byte	$00
	.byte	$00
	.byte	$28
	.byte	$00
	.byte	$00
	.byte	$00
	.byte	$28
	.byte	$00
	.byte	$2A
	.byte	$00
	.byte	$28
	.byte	$04
	.byte	$10
	.byte	$10
	.byte	$10
	.byte	$10
	.byte	$01
	.byte	$01
	.byte	$01
	.byte	$02
	.byte	$02
	.byte	$00
	.byte	$00
	.byte	$00
	.byte	$00
	.byte	$29
	.byte	$2A
	.byte	$00
	.byte	$28
	.byte	$29
	.byte	$2A
	.byte	$00
	.byte	$00
	.byte	$29
	.byte	$04
	.byte	$00
	.byte	$10
	.byte	$10
	.byte	$10
	.byte	$10
	.byte	$02
	.byte	$00
	.byte	$28
	.byte	$00
	.byte	$00
	.byte	$00
	.byte	$00
	.byte	$29
	.byte	$2A
	.byte	$00
	.byte	$00
	.byte	$00
	.byte	$2A
	.byte	$00
	.byte	$28
	.byte	$00
	.byte	$2A
	.byte	$00
	.byte	$00
	.byte	$29
	.byte	$10
	.byte	$10
	.byte	$10
	.byte	$10
	.byte	$02
	.byte	$29
	.byte	$2A
	.byte	$00
	.byte	$28
	.byte	$29
	.byte	$00
	.byte	$00
	.byte	$28
	.byte	$00
	.byte	$2A
	.byte	$00
	.byte	$28
	.byte	$29
	.byte	$00
	.byte	$00
	.byte	$00
	.byte	$29
	.byte	$04
	.byte	$00
	.byte	$10
	.byte	$10
	.byte	$10
	.byte	$10
	.byte	$00
	.byte	$00
	.byte	$00
	.byte	$00
	.byte	$2A
	.byte	$00
	.byte	$28
	.byte	$00
	.byte	$2A
	.byte	$00
	.byte	$00
	.byte	$00
	.byte	$00
	.byte	$00
	.byte	$00
	.byte	$00
	.byte	$2A
	.byte	$00
	.byte	$28
	.byte	$04
	.byte	$10
	.byte	$10
	.byte	$10
	.byte	$10
	.byte	$00
	.byte	$00
	.byte	$00
	.byte	$00
	.byte	$28
	.byte	$29
	.byte	$00
	.byte	$00
	.byte	$00
	.byte	$29
	.byte	$00
	.byte	$00
	.byte	$28
	.byte	$00
	.byte	$00
	.byte	$00
	.byte	$0B
	.byte	$29
	.byte	$04
	.byte	$04
	.byte	$10
	.byte	$10
	.byte	$10
	.byte	$10
	.byte	$02
	.byte	$00
	.byte	$00
	.byte	$00
	.byte	$00
	.byte	$00
	.byte	$00
	.byte	$00
	.byte	$00
	.byte	$00
	.byte	$28
	.byte	$00
	.byte	$00
	.byte	$00
	.byte	$00
	.byte	$00
	.byte	$00
	.byte	$00
	.byte	$28
	.byte	$00
	.byte	$10
	.byte	$10
	.byte	$10
	.byte	$10
	.byte	$02
	.byte	$00
	.byte	$2A
	.byte	$00
	.byte	$00
	.byte	$00
	.byte	$2A
	.byte	$00
	.byte	$28
	.byte	$29
	.byte	$00
	.byte	$00
	.byte	$00
	.byte	$29
	.byte	$2A
	.byte	$00
	.byte	$00
	.byte	$29
	.byte	$2A
	.byte	$00
	.byte	$10
	.byte	$10
	.byte	$10
	.byte	$10
	.byte	$00
	.byte	$00
	.byte	$28
	.byte	$00
	.byte	$00
	.byte	$00
	.byte	$28
	.byte	$29
	.byte	$00
	.byte	$00
	.byte	$00
	.byte	$00
	.byte	$00
	.byte	$00
	.byte	$00
	.byte	$29
	.byte	$0D
	.byte	$0E
	.byte	$04
	.byte	$04
	.byte	$10
	.byte	$10
	.byte	$10
	.byte	$10
	.byte	$02
	.byte	$29
	.byte	$2A
	.byte	$00
	.byte	$00
	.byte	$00
	.byte	$2A
	.byte	$00
	.byte	$00
	.byte	$29
	.byte	$00
	.byte	$00
	.byte	$00
	.byte	$00
	.byte	$2A
	.byte	$00
	.byte	$0F
	.byte	$29
	.byte	$04
	.byte	$00
	.byte	$10
	.byte	$10
	.byte	$10
	.byte	$10
	.byte	$00
	.byte	$00
	.byte	$00
	.byte	$00
	.byte	$00
	.byte	$00
	.byte	$00
	.byte	$00
	.byte	$00
	.byte	$00
	.byte	$28
	.byte	$00
	.byte	$00
	.byte	$00
	.byte	$28
	.byte	$29
	.byte	$2A
	.byte	$00
	.byte	$28
	.byte	$29
	.byte	$10
	.byte	$10
	.byte	$10
	.byte	$10
	.byte	$00
	.byte	$00
	.byte	$2A
	.byte	$00
	.byte	$00
	.byte	$29
	.byte	$2A
	.byte	$00
	.byte	$00
	.byte	$29
	.byte	$00
	.byte	$00
	.byte	$00
	.byte	$0B
	.byte	$00
	.byte	$04
	.byte	$00
	.byte	$00
	.byte	$04
	.byte	$00
	.byte	$10
	.byte	$10
	.byte	$10
	.byte	$10
	.byte	$00
	.byte	$00
	.byte	$00
	.byte	$00
	.byte	$00
	.byte	$00
	.byte	$00
	.byte	$29
	.byte	$00
	.byte	$00
	.byte	$03
	.byte	$00
	.byte	$01
	.byte	$0F
	.byte	$01
	.byte	$04
	.byte	$02
	.byte	$00
	.byte	$28
	.byte	$29
	.byte	$10
	.byte	$10
	.byte	$10
	.byte	$10
	.byte	$00
	.byte	$29
	.byte	$2A
	.byte	$00
	.byte	$00
	.byte	$00
	.byte	$00
	.byte	$00
	.byte	$28
	.byte	$00
	.byte	$00
	.byte	$00
	.byte	$28
	.byte	$29
	.byte	$2A
	.byte	$00
	.byte	$28
	.byte	$00
	.byte	$04
	.byte	$00
	.byte	$10
	.byte	$10
	.byte	$10
	.byte	$10
	.byte	$00
	.byte	$02
	.byte	$00
	.byte	$00
	.byte	$2A
	.byte	$00
	.byte	$00
	.byte	$29
	.byte	$00
	.byte	$00
	.byte	$04
	.byte	$00
	.byte	$2A
	.byte	$00
	.byte	$00
	.byte	$00
	.byte	$2A
	.byte	$00
	.byte	$00
	.byte	$29
	.byte	$10
	.byte	$10
	.byte	$10
	.byte	$10
	.byte	$01
	.byte	$01
	.byte	$02
	.byte	$01
	.byte	$00
	.byte	$02
	.byte	$2A
	.byte	$00
	.byte	$28
	.byte	$29
	.byte	$00
	.byte	$00
	.byte	$28
	.byte	$04
	.byte	$2A
	.byte	$00
	.byte	$00
	.byte	$29
	.byte	$2A
	.byte	$00
	.byte	$10
	.byte	$10
	.byte	$10
	.byte	$10
	.byte	$01
	.byte	$02
	.byte	$02
	.byte	$00
	.byte	$00
	.byte	$00
	.byte	$00
	.byte	$29
	.byte	$2A
	.byte	$00
	.byte	$00
	.byte	$00
	.byte	$00
	.byte	$00
	.byte	$00
	.byte	$00
	.byte	$00
	.byte	$0D
	.byte	$00
	.byte	$04
	.byte	$10
	.byte	$10
	.byte	$10
	.byte	$10
	.byte	$02
	.byte	$02
	.byte	$00
	.byte	$00
	.byte	$28
	.byte	$29
	.byte	$2A
	.byte	$00
	.byte	$00
	.byte	$00
	.byte	$2A
	.byte	$00
	.byte	$00
	.byte	$00
	.byte	$00
	.byte	$00
	.byte	$0F
	.byte	$29
	.byte	$04
	.byte	$00
	.byte	$10
	.byte	$10
	.byte	$10
	.byte	$10
	.byte	$00
	.byte	$00
	.byte	$00
	.byte	$29
	.byte	$2A
	.byte	$00
	.byte	$28
	.byte	$00
	.byte	$00
	.byte	$00
	.byte	$00
	.byte	$29
	.byte	$2A
	.byte	$00
	.byte	$00
	.byte	$00
	.byte	$2A
	.byte	$00
	.byte	$00
	.byte	$00
	.byte	$10
	.byte	$10
	.byte	$10
	.byte	$10
	.byte	$02
	.byte	$29
	.byte	$00
	.byte	$00
	.byte	$00
	.byte	$00
	.byte	$00
	.byte	$00
	.byte	$00
	.byte	$00
	.byte	$2A
	.byte	$00
	.byte	$28
	.byte	$00
	.byte	$00
	.byte	$00
	.byte	$00
	.byte	$29
	.byte	$05
	.byte	$00
	.byte	$10
	.byte	$10
	.byte	$10
	.byte	$10
	.byte	$2A
	.byte	$01
	.byte	$28
	.byte	$02
	.byte	$2A
	.byte	$00
	.byte	$00
	.byte	$29
	.byte	$00
	.byte	$00
	.byte	$00
	.byte	$00
	.byte	$00
	.byte	$00
	.byte	$28
	.byte	$00
	.byte	$00
	.byte	$00
	.byte	$00
	.byte	$29
	.byte	$10
	.byte	$10
	.byte	$10
	.byte	$10
	.byte	$28
	.byte	$29
	.byte	$2A
	.byte	$00
	.byte	$28
	.byte	$00
	.byte	$2A
	.byte	$00
	.byte	$00
	.byte	$00
	.byte	$2A
	.byte	$00
	.byte	$28
	.byte	$00
	.byte	$05
	.byte	$00
	.byte	$06
	.byte	$00
	.byte	$06
	.byte	$00
	.byte	$10
	.byte	$10
	.byte	$10
	.byte	$10
	.byte	$2A
	.byte	$00
	.byte	$28
	.byte	$00
	.byte	$00
	.byte	$00
	.byte	$28
	.byte	$00
	.byte	$2A
	.byte	$00
	.byte	$00
	.byte	$00
	.byte	$2A
	.byte	$00
	.byte	$28
	.byte	$00
	.byte	$00
	.byte	$00
	.byte	$28
	.byte	$05
	.byte	$10
	.byte	$10
	.byte	$10
	.byte	$10
	.byte	$02
	.byte	$01
	.byte	$00
	.byte	$02
	.byte	$00
	.byte	$29
	.byte	$2A
	.byte	$00
	.byte	$00
	.byte	$00
	.byte	$2A
	.byte	$00
	.byte	$00
	.byte	$29
	.byte	$2A
	.byte	$00
	.byte	$00
	.byte	$29
	.byte	$00
	.byte	$00
	.byte	$10
	.byte	$10
	.byte	$10
	.byte	$10
	.byte	$02
	.byte	$01
	.byte	$28
	.byte	$02
	.byte	$00
	.byte	$00
	.byte	$28
	.byte	$29
	.byte	$00
	.byte	$00
	.byte	$28
	.byte	$00
	.byte	$00
	.byte	$00
	.byte	$00
	.byte	$00
	.byte	$00
	.byte	$00
	.byte	$04
	.byte	$04
	.byte	$10
	.byte	$10
	.byte	$10
	.byte	$10
	.byte	$01
	.byte	$00
	.byte	$01
	.byte	$00
	.byte	$02
	.byte	$00
	.byte	$00
	.byte	$00
	.byte	$00
	.byte	$00
	.byte	$00
	.byte	$00
	.byte	$00
	.byte	$29
	.byte	$00
	.byte	$00
	.byte	$28
	.byte	$00
	.byte	$04
	.byte	$00
	.byte	$10
	.byte	$10
	.byte	$10
	.byte	$10
	.byte	$2A
	.byte	$02
	.byte	$00
	.byte	$29
	.byte	$00
	.byte	$00
	.byte	$00
	.byte	$00
	.byte	$00
	.byte	$00
	.byte	$00
	.byte	$00
	.byte	$00
	.byte	$00
	.byte	$28
	.byte	$00
	.byte	$2A
	.byte	$00
	.byte	$00
	.byte	$23
	.byte	$10
	.byte	$10
	.byte	$10
	.byte	$10
	.byte	$00
	.byte	$00
	.byte	$2A
	.byte	$00
	.byte	$00
	.byte	$23
	.byte	$00
	.byte	$00
	.byte	$00
	.byte	$00
	.byte	$00
	.byte	$00
	.byte	$28
	.byte	$00
	.byte	$00
	.byte	$00
	.byte	$04
	.byte	$00
	.byte	$0C
	.byte	$0C
	.byte	$10
	.byte	$10
	.byte	$10
	.byte	$10
	.byte	$2A
	.byte	$00
	.byte	$00
	.byte	$00
	.byte	$0C
	.byte	$0C
	.byte	$21
	.byte	$0C
	.byte	$00
	.byte	$00
	.byte	$00
	.byte	$29
	.byte	$00
	.byte	$00
	.byte	$00
	.byte	$04
	.byte	$23
	.byte	$0C
	.byte	$03
	.byte	$0C
	.byte	$01
	.byte	$0C
	.byte	$01
	.byte	$0C
	.byte	$00
	.byte	$29
	.byte	$2A
	.byte	$00
	.byte	$0C
	.byte	$0C
	.byte	$0C
	.byte	$0C
	.byte	$21
	.byte	$0C
	.byte	$00
	.byte	$00
	.byte	$00
	.byte	$00
	.byte	$00
	.byte	$00
	.byte	$0C
	.byte	$0C
	.byte	$0C
	.byte	$0C
	.byte	$0C
	.byte	$21
	.byte	$20
	.byte	$00
	.byte	$2A
	.byte	$00
	.byte	$23
	.byte	$0C
	.byte	$0C
	.byte	$0C
	.byte	$0C
	.byte	$0C
	.byte	$0C
	.byte	$0C
	.byte	$00
	.byte	$29
	.byte	$00
	.byte	$00
	.byte	$28
	.byte	$29
	.byte	$22
	.byte	$23
	.byte	$0C
	.byte	$0C
	.byte	$20
	.byte	$21
	.byte	$04
	.byte	$00
	.byte	$00
	.byte	$00
	.byte	$0C
	.byte	$0C
	.byte	$0C
	.byte	$0C
	.byte	$0C
	.byte	$0C
	.byte	$20
	.byte	$00
	.byte	$20
	.byte	$00
	.byte	$28
	.byte	$29
	.byte	$04
	.byte	$00
	.byte	$22
	.byte	$00
	.byte	$23
	.byte	$03
	.byte	$0C
	.byte	$01
	.byte	$21
	.byte	$01
	.byte	$23
	.byte	$01
	.byte	$0C
	.byte	$01
	.byte	$0C
	.byte	$01
	.byte	$0C
	.byte	$01
	.byte	$00
	.byte	$02
	.byte	$28
	.byte	$29
	.byte	$2A
	.byte	$00
	.byte	$00
	.byte	$03
	.byte	$00
	.byte	$01
	.byte	$00
	.byte	$01
	.byte	$10
	.byte	$10
	.byte	$10
	.byte	$10
	.byte	$01
	.byte	$29
	.byte	$01
	.byte	$00
	.byte	$01
	.byte	$00
	.byte	$01
	.byte	$00
	.byte	$02
	.byte	$29
	.byte	$00
	.byte	$22
	.byte	$0C
	.byte	$0C
	.byte	$03
	.byte	$0C
	.byte	$01
	.byte	$0C
	.byte	$01
	.byte	$03
	.byte	$01
	.byte	$01
	.byte	$01
	.byte	$01
	.byte	$2A
	.byte	$00
	.byte	$28
	.byte	$00
	.byte	$2A
	.byte	$00
	.byte	$00
	.byte	$00
	.byte	$2A
	.byte	$00
	.byte	$00
	.byte	$00
	.byte	$00
	.byte	$00
	.byte	$22
	.byte	$00
	.byte	$0C
	.byte	$00
	.byte	$0C
	.byte	$22
	.byte	$03
	.byte	$03
	.byte	$01
	.byte	$01
	.byte	$00
	.byte	$00
	.byte	$2A
	.byte	$00
	.byte	$00
	.byte	$00
	.byte	$23
	.byte	$0C
	.byte	$00
	.byte	$20
	.byte	$2A
	.byte	$00
	.byte	$28
	.byte	$29
	.byte	$00
	.byte	$00
	.byte	$00
	.byte	$29
	.byte	$00
	.byte	$00
	.byte	$22
	.byte	$29
	.byte	$03
	.byte	$00
	.byte	$2A
	.byte	$00
	.byte	$28
	.byte	$00
	.byte	$23
	.byte	$0C
	.byte	$0C
	.byte	$0C
	.byte	$21
	.byte	$0C
	.byte	$28
	.byte	$0C
	.byte	$00
	.byte	$21
	.byte	$00
	.byte	$29
	.byte	$2A
	.byte	$00
	.byte	$00
	.byte	$29
	.byte	$2A
	.byte	$0D
	.byte	$28
	.byte	$03
	.byte	$00
	.byte	$08
	.byte	$23
	.byte	$05
	.byte	$0C
	.byte	$06
	.byte	$0C
	.byte	$06
	.byte	$0C
	.byte	$06
	.byte	$0C
	.byte	$06
	.byte	$00
	.byte	$06
	.byte	$00
	.byte	$07
	.byte	$00
	.byte	$09
	.byte	$0D
	.byte	$03
	.byte	$03
	.byte	$01
	.byte	$01
	.byte	$01
	.byte	$08
	.byte	$08
	.byte	$28
	.byte	$00
	.byte	$2A
	.byte	$00
	.byte	$00
	.byte	$00
	.byte	$2A
	.byte	$00
	.byte	$28
	.byte	$00
	.byte	$1F
	.byte	$00
	.byte	$02
	.byte	$29
	.byte	$09
	.byte	$09
	.byte	$03
	.byte	$03
	.byte	$01
	.byte	$01
	.byte	$01
	.byte	$01
	.byte	$08
	.byte	$08
	.byte	$05
	.byte	$00
	.byte	$06
	.byte	$29
	.byte	$14
	.byte	$00
	.byte	$00
	.byte	$00
	.byte	$2A
	.byte	$00
	.byte	$28
	.byte	$00
	.byte	$13
	.byte	$00
	.byte	$09
	.byte	$09
	.byte	$03
	.byte	$03
	.byte	$01
	.byte	$01
	.byte	$01
	.byte	$01
	.byte	$08
	.byte	$08
	.byte	$28
	.byte	$29
	.byte	$00
	.byte	$00
	.byte	$28
	.byte	$29
	.byte	$00
	.byte	$00
	.byte	$00
	.byte	$00
	.byte	$2A
	.byte	$00
	.byte	$28
	.byte	$00
	.byte	$09
	.byte	$09
	.byte	$03
	.byte	$03
	.byte	$01
	.byte	$01
	.byte	$01
	.byte	$01
	.byte	$09
	.byte	$09
	.byte	$2A
	.byte	$00
	.byte	$00
	.byte	$00
	.byte	$2A
	.byte	$00
	.byte	$28
	.byte	$00
	.byte	$00
	.byte	$00
	.byte	$00
	.byte	$29
	.byte	$00
	.byte	$00
	.byte	$09
	.byte	$09
	.byte	$03
	.byte	$03
	.byte	$01
	.byte	$01
	.byte	$01
	.byte	$01
	.byte	$09
	.byte	$09
	.byte	$28
	.byte	$00
	.byte	$00
	.byte	$00
	.byte	$28
	.byte	$29
	.byte	$00
	.byte	$00
	.byte	$00
	.byte	$00
	.byte	$2A
	.byte	$00
	.byte	$09
	.byte	$29
	.byte	$09
	.byte	$09
	.byte	$03
	.byte	$03
	.byte	$01
	.byte	$01
	.byte	$01
	.byte	$01
	.byte	$00
	.byte	$00
	.byte	$00
	.byte	$00
	.byte	$00
	.byte	$00
	.byte	$00
	.byte	$00
	.byte	$28
	.byte	$00
	.byte	$2A
	.byte	$00
	.byte	$28
	.byte	$00
	.byte	$00
	.byte	$00
	.byte	$09
	.byte	$09
	.byte	$03
	.byte	$03
	.byte	$01
	.byte	$01
	.byte	$01
	.byte	$01
	.byte	$09
	.byte	$09
	.byte	$05
	.byte	$00
	.byte	$06
	.byte	$00
	.byte	$06
	.byte	$00
	.byte	$06
	.byte	$00
	.byte	$06
	.byte	$29
	.byte	$14
	.byte	$00
	.byte	$28
	.byte	$29
	.byte	$09
	.byte	$09
	.byte	$03
	.byte	$03
	.byte	$01
	.byte	$01
	.byte	$01
	.byte	$01
	.byte	$09
	.byte	$09
	.byte	$2A
	.byte	$05
	.byte	$00
	.byte	$06
	.byte	$2A
	.byte	$14
	.byte	$00
	.byte	$29
	.byte	$2A
	.byte	$13
	.byte	$00
	.byte	$06
	.byte	$2A
	.byte	$07
	.byte	$09
	.byte	$09
	.byte	$03
	.byte	$03
	.byte	$01
	.byte	$01
	.byte	$01
	.byte	$01
	.byte	$2A
	.byte	$00
	.byte	$28
	.byte	$23
	.byte	$04
	.byte	$0C
	.byte	$21
	.byte	$20
	.byte	$2A
	.byte	$00
	.byte	$00
	.byte	$23
	.byte	$2A
	.byte	$23
	.byte	$04
	.byte	$21
	.byte	$00
	.byte	$00
	.byte	$0F
	.byte	$00
	.byte	$03
	.byte	$0F
	.byte	$01
	.byte	$03
	.byte	$02
	.byte	$02
	.byte	$0C
	.byte	$0C
	.byte	$22
	.byte	$0C
	.byte	$0C
	.byte	$0C
	.byte	$23
	.byte	$04
	.byte	$0C
	.byte	$0C
	.byte	$0C
	.byte	$0C
	.byte	$20
	.byte	$21
	.byte	$00
	.byte	$00
	.byte	$00
	.byte	$00
	.byte	$00
	.byte	$29
	.byte	$2A
	.byte	$00
	.byte	$02
	.byte	$02
	.byte	$22
	.byte	$00
	.byte	$0C
	.byte	$03
	.byte	$0C
	.byte	$01
	.byte	$04
	.byte	$01
	.byte	$0C
	.byte	$01
	.byte	$0C
	.byte	$01
	.byte	$0C
	.byte	$01
	.byte	$0D
	.byte	$01
	.byte	$03
	.byte	$01
	.byte	$01
	.byte	$01
	.byte	$01
	.byte	$01
	.byte	$02
	.byte	$02
	.byte	$00
	.byte	$00
	.byte	$03
	.byte	$03
	.byte	$01
	.byte	$01
	.byte	$01
	.byte	$01
	.byte	$01
	.byte	$01
	.byte	$01
	.byte	$01
	.byte	$01
	.byte	$02
	.byte	$02
	.byte	$29
	.byte	$2A
	.byte	$00
	.byte	$10
	.byte	$10
	.byte	$10
	.byte	$10
	.byte	$02
	.byte	$02
	.byte	$28
	.byte	$00
	.byte	$03
	.byte	$03
	.byte	$01
	.byte	$02
	.byte	$01
	.byte	$00
	.byte	$02
	.byte	$00
	.byte	$2A
	.byte	$00
	.byte	$00
	.byte	$29
	.byte	$00
	.byte	$00
	.byte	$28
	.byte	$29
	.byte	$10
	.byte	$10
	.byte	$10
	.byte	$10
	.byte	$02
	.byte	$02
	.byte	$00
	.byte	$00
	.byte	$03
	.byte	$03
	.byte	$00
	.byte	$00
	.byte	$28
	.byte	$00
	.byte	$2A
	.byte	$00
	.byte	$00
	.byte	$00
	.byte	$2A
	.byte	$00
	.byte	$28
	.byte	$00
	.byte	$00
	.byte	$00
	.byte	$10
	.byte	$10
	.byte	$10
	.byte	$10
	.byte	$02
	.byte	$02
	.byte	$00
	.byte	$29
	.byte	$03
	.byte	$03
	.byte	$28
	.byte	$00
	.byte	$2A
	.byte	$00
	.byte	$00
	.byte	$00
	.byte	$00
	.byte	$00
	.byte	$28
	.byte	$29
	.byte	$00
	.byte	$00
	.byte	$28
	.byte	$00
	.byte	$10
	.byte	$10
	.byte	$10
	.byte	$10
	.byte	$02
	.byte	$02
	.byte	$2A
	.byte	$00
	.byte	$03
	.byte	$03
	.byte	$00
	.byte	$00
	.byte	$00
	.byte	$00
	.byte	$2A
	.byte	$00
	.byte	$28
	.byte	$29
	.byte	$2A
	.byte	$00
	.byte	$28
	.byte	$00
	.byte	$00
	.byte	$00
	.byte	$10
	.byte	$10
	.byte	$10
	.byte	$10
	.byte	$02
	.byte	$02
	.byte	$00
	.byte	$29
	.byte	$03
	.byte	$03
	.byte	$28
	.byte	$02
	.byte	$00
	.byte	$00
	.byte	$00
	.byte	$29
	.byte	$00
	.byte	$00
	.byte	$00
	.byte	$29
	.byte	$00
	.byte	$00
	.byte	$00
	.byte	$29
	.byte	$10
	.byte	$10
	.byte	$10
	.byte	$10
	.byte	$02
	.byte	$02
	.byte	$00
	.byte	$00
	.byte	$03
	.byte	$03
	.byte	$01
	.byte	$11
	.byte	$01
	.byte	$01
	.byte	$02
	.byte	$11
	.byte	$28
	.byte	$02
	.byte	$00
	.byte	$00
	.byte	$00
	.byte	$29
	.byte	$00
	.byte	$00
	.byte	$10
	.byte	$10
	.byte	$10
	.byte	$10
	.byte	$02
	.byte	$02
	.byte	$00
	.byte	$29
	.byte	$03
	.byte	$03
	.byte	$01
	.byte	$01
	.byte	$11
	.byte	$01
	.byte	$01
	.byte	$11
	.byte	$11
	.byte	$01
	.byte	$02
	.byte	$11
	.byte	$00
	.byte	$01
	.byte	$28
	.byte	$02
	.byte	$10
	.byte	$10
	.byte	$10
	.byte	$10
	.byte	$02
	.byte	$02
	.byte	$2A
	.byte	$00
	.byte	$03
	.byte	$00
	.byte	$01
	.byte	$03
	.byte	$01
	.byte	$01
	.byte	$01
	.byte	$01
	.byte	$11
	.byte	$01
	.byte	$01
	.byte	$01
	.byte	$01
	.byte	$01
	.byte	$01
	.byte	$01
	.byte	$01
	.byte	$01
	.byte	$01
	.byte	$01
	.byte	$02
	.byte	$02
	.byte	$00
	.byte	$29
	.byte	$2A
	.byte	$00
	.byte	$00
	.byte	$29
	.byte	$03
	.byte	$00
	.byte	$01
	.byte	$24
	.byte	$01
	.byte	$00
	.byte	$01
	.byte	$24
	.byte	$01
	.byte	$00
	.byte	$01
	.byte	$24
	.byte	$01
	.byte	$00
	.byte	$01
	.byte	$24
	.byte	$02
	.byte	$02
	.byte	$00
	.byte	$00
	.byte	$00
	.byte	$29
	.byte	$00
	.byte	$00
	.byte	$28
	.byte	$29
	.byte	$24
	.byte	$24
	.byte	$28
	.byte	$29
	.byte	$24
	.byte	$24
	.byte	$0D
	.byte	$0E
	.byte	$24
	.byte	$24
	.byte	$28
	.byte	$29
	.byte	$24
	.byte	$03
	.byte	$02
	.byte	$02
	.byte	$28
	.byte	$00
	.byte	$00
	.byte	$00
	.byte	$00
	.byte	$29
	.byte	$2A
	.byte	$0D
	.byte	$24
	.byte	$24
	.byte	$2A
	.byte	$00
	.byte	$24
	.byte	$24
	.byte	$0F
	.byte	$00
	.byte	$24
	.byte	$24
	.byte	$2A
	.byte	$0D
	.byte	$03
	.byte	$03
	.byte	$02
	.byte	$01
	.byte	$2A
	.byte	$02
	.byte	$00
	.byte	$00
	.byte	$00
	.byte	$00
	.byte	$0E
	.byte	$0F
	.byte	$24
	.byte	$24
	.byte	$00
	.byte	$00
	.byte	$24
	.byte	$24
	.byte	$28
	.byte	$00
	.byte	$24
	.byte	$24
	.byte	$0E
	.byte	$0F
	.byte	$03
	.byte	$03
	.byte	$01
	.byte	$01
	.byte	$11
	.byte	$01
	.byte	$01
	.byte	$01
	.byte	$01
	.byte	$11
	.byte	$11
	.byte	$01
	.byte	$01
	.byte	$01
	.byte	$01
	.byte	$11
	.byte	$11
	.byte	$01
	.byte	$01
	.byte	$01
	.byte	$01
	.byte	$11
	.byte	$01
	.byte	$01
	.byte	$01
	.byte	$01
	.byte	$00
	.byte	$00
	.byte	$2A
	.byte	$00
	.byte	$28
	.byte	$29
	.byte	$22
	.byte	$00
	.byte	$0C
	.byte	$29
	.byte	$0C
	.byte	$22
	.byte	$0C
	.byte	$0C
	.byte	$0C
	.byte	$0C
	.byte	$0C
	.byte	$0C
	.byte	$03
	.byte	$0C
	.byte	$01
	.byte	$20
	.byte	$01
	.byte	$00
	.byte	$00
	.byte	$01
	.byte	$28
	.byte	$01
	.byte	$00
	.byte	$01
	.byte	$00
	.byte	$01
	.byte	$00
	.byte	$11
	.byte	$00
	.byte	$01
	.byte	$22
	.byte	$01
	.byte	$0C
	.byte	$01
	.byte	$0C
	.byte	$01
	.byte	$20
	.byte	$01
	.byte	$2A
	.byte	$01
	.byte	$28
	.byte	$01
	.byte	$01
	.byte	$01
	.byte	$01
	.byte	$00
	.byte	$01
	.byte	$00
	.byte	$11
	.byte	$24
	.byte	$01
	.byte	$00
	.byte	$11
	.byte	$00
	.byte	$01
	.byte	$08
	.byte	$11
	.byte	$03
	.byte	$01
	.byte	$02
	.byte	$01
	.byte	$10
	.byte	$01
	.byte	$03
	.byte	$01
	.byte	$01
	.byte	$2A
	.byte	$00
	.byte	$24
	.byte	$24
	.byte	$00
	.byte	$00
	.byte	$24
	.byte	$24
	.byte	$2A
	.byte	$00
	.byte	$09
	.byte	$00
	.byte	$08
	.byte	$08
	.byte	$04
	.byte	$04
	.byte	$2A
	.byte	$00
	.byte	$10
	.byte	$10
	.byte	$10
	.byte	$10
	.byte	$03
	.byte	$03
	.byte	$01
	.byte	$01
	.byte	$00
	.byte	$00
	.byte	$00
	.byte	$00
	.byte	$2A
	.byte	$00
	.byte	$28
	.byte	$29
	.byte	$00
	.byte	$00
	.byte	$00
	.byte	$00
	.byte	$04
	.byte	$04
	.byte	$28
	.byte	$00
	.byte	$10
	.byte	$10
	.byte	$10
	.byte	$10
	.byte	$03
	.byte	$03
	.byte	$11
	.byte	$01
	.byte	$00
	.byte	$00
	.byte	$2A
	.byte	$00
	.byte	$00
	.byte	$00
	.byte	$2A
	.byte	$00
	.byte	$00
	.byte	$29
	.byte	$2A
	.byte	$00
	.byte	$04
	.byte	$04
	.byte	$2A
	.byte	$00
	.byte	$10
	.byte	$10
	.byte	$10
	.byte	$10
	.byte	$03
	.byte	$03
	.byte	$01
	.byte	$01
	.byte	$00
	.byte	$00
	.byte	$00
	.byte	$29
	.byte	$00
	.byte	$00
	.byte	$00
	.byte	$29
	.byte	$00
	.byte	$00
	.byte	$00
	.byte	$00
	.byte	$04
	.byte	$04
	.byte	$28
	.byte	$29
	.byte	$10
	.byte	$10
	.byte	$10
	.byte	$10
	.byte	$03
	.byte	$03
	.byte	$11
	.byte	$01
	.byte	$00
	.byte	$00
	.byte	$2A
	.byte	$00
	.byte	$00
	.byte	$00
	.byte	$2A
	.byte	$00
	.byte	$28
	.byte	$29
	.byte	$00
	.byte	$00
	.byte	$00
	.byte	$29
	.byte	$2A
	.byte	$00
	.byte	$10
	.byte	$10
	.byte	$10
	.byte	$10
	.byte	$03
	.byte	$03
	.byte	$02
	.byte	$02
	.byte	$00
	.byte	$00
	.byte	$00
	.byte	$29
	.byte	$00
	.byte	$00
	.byte	$00
	.byte	$00
	.byte	$2A
	.byte	$00
	.byte	$00
	.byte	$29
	.byte	$00
	.byte	$00
	.byte	$00
	.byte	$29
	.byte	$10
	.byte	$10
	.byte	$10
	.byte	$10
	.byte	$03
	.byte	$03
	.byte	$02
	.byte	$02
	.byte	$00
	.byte	$29
	.byte	$00
	.byte	$00
	.byte	$28
	.byte	$03
	.byte	$2A
	.byte	$01
	.byte	$00
	.byte	$01
	.byte	$00
	.byte	$01
	.byte	$00
	.byte	$01
	.byte	$2A
	.byte	$01
	.byte	$10
	.byte	$01
	.byte	$10
	.byte	$01
	.byte	$03
	.byte	$01
	.byte	$02
	.byte	$02
	.byte	$2A
	.byte	$00
	.byte	$00
	.byte	$29
	.byte	$03
	.byte	$00
	.byte	$01
	.byte	$00
	.byte	$01
	.byte	$00
	.byte	$01
	.byte	$00
	.byte	$01
	.byte	$00
	.byte	$01
	.byte	$00
	.byte	$01
	.byte	$00
	.byte	$01
	.byte	$29
	.byte	$03
	.byte	$03
	.byte	$02
	.byte	$02
	.byte	$28
	.byte	$29
	.byte	$2A
	.byte	$00
	.byte	$28
	.byte	$00
	.byte	$2A
	.byte	$00
	.byte	$28
	.byte	$00
	.byte	$00
	.byte	$00
	.byte	$28
	.byte	$29
	.byte	$2A
	.byte	$00
	.byte	$00
	.byte	$00
	.byte	$00
	.byte	$00
	.byte	$03
	.byte	$03
	.byte	$02
	.byte	$02
	.byte	$00
	.byte	$00
	.byte	$00
	.byte	$29
	.byte	$00
	.byte	$00
	.byte	$00
	.byte	$29
	.byte	$00
	.byte	$00
	.byte	$00
	.byte	$29
	.byte	$00
	.byte	$00
	.byte	$00
	.byte	$00
	.byte	$00
	.byte	$00
	.byte	$28
	.byte	$00
	.byte	$03
	.byte	$03
	.byte	$02
	.byte	$02
	.byte	$00
	.byte	$00
	.byte	$00
	.byte	$00
	.byte	$00
	.byte	$29
	.byte	$00
	.byte	$00
	.byte	$28
	.byte	$00
	.byte	$2A
	.byte	$00
	.byte	$28
	.byte	$29
	.byte	$00
	.byte	$00
	.byte	$28
	.byte	$29
	.byte	$2A
	.byte	$00
	.byte	$28
	.byte	$00
	.byte	$02
	.byte	$02
	.byte	$00
	.byte	$00
	.byte	$00
	.byte	$29
	.byte	$2A
	.byte	$23
	.byte	$28
	.byte	$0C
	.byte	$2A
	.byte	$0C
	.byte	$21
	.byte	$21
	.byte	$2A
	.byte	$00
	.byte	$00
	.byte	$00
	.byte	$2A
	.byte	$03
	.byte	$00
	.byte	$02
	.byte	$2A
	.byte	$00
	.byte	$02
	.byte	$0C
	.byte	$0C
	.byte	$0C
	.byte	$0C
	.byte	$0C
	.byte	$0C
	.byte	$0C
	.byte	$0C
	.byte	$0C
	.byte	$0C
	.byte	$0C
	.byte	$0C
	.byte	$0C
	.byte	$0C
	.byte	$0C
	.byte	$21
	.byte	$0C
	.byte	$10
	.byte	$10
	.byte	$03
	.byte	$10
	.byte	$01
	.byte	$03
	.byte	$02
	.byte	$02
	.byte	$0C
	.byte	$22
	.byte	$0C
	.byte	$0C
	.byte	$0C
	.byte	$0C
	.byte	$0C
	.byte	$0C
	.byte	$0C
	.byte	$0C
	.byte	$0C
	.byte	$0C
	.byte	$0C
	.byte	$0C
	.byte	$0C
	.byte	$0C
	.byte	$10
	.byte	$10
	.byte	$10
	.byte	$10
	.byte	$03
	.byte	$03
	.byte	$02
	.byte	$11
	.byte	$22
	.byte	$02
	.byte	$00
	.byte	$00
	.byte	$28
	.byte	$29
	.byte	$00
	.byte	$00
	.byte	$00
	.byte	$00
	.byte	$00
	.byte	$00
	.byte	$22
	.byte	$00
	.byte	$0C
	.byte	$00
	.byte	$03
	.byte	$29
	.byte	$01
	.byte	$00
	.byte	$01
	.byte	$03
	.byte	$01
	.byte	$01
	.byte	$02
	.byte	$02
	.byte	$28
	.byte	$29
	.byte	$00
	.byte	$00
	.byte	$28
	.byte	$29
	.byte	$00
	.byte	$00
	.byte	$00
	.byte	$00
	.byte	$00
	.byte	$00
	.byte	$00
	.byte	$00
	.byte	$23
	.byte	$0C
	.byte	$0C
	.byte	$0C
	.byte	$03
	.byte	$03
	.byte	$11
	.byte	$01
	.byte	$02
	.byte	$02
	.byte	$00
	.byte	$00
	.byte	$00
	.byte	$29
	.byte	$23
	.byte	$0C
	.byte	$00
	.byte	$21
	.byte	$00
	.byte	$00
	.byte	$28
	.byte	$00
	.byte	$00
	.byte	$23
	.byte	$0C
	.byte	$0C
	.byte	$0C
	.byte	$0C
	.byte	$03
	.byte	$03
	.byte	$01
	.byte	$01
	.byte	$02
	.byte	$02
	.byte	$00
	.byte	$00
	.byte	$00
	.byte	$23
	.byte	$0C
	.byte	$0C
	.byte	$0C
	.byte	$0C
	.byte	$00
	.byte	$21
	.byte	$00
	.byte	$00
	.byte	$0C
	.byte	$0C
	.byte	$0C
	.byte	$0C
	.byte	$0C
	.byte	$0C
	.byte	$03
	.byte	$03
	.byte	$02
	.byte	$02
	.byte	$00
	.byte	$00
	.byte	$00
	.byte	$00
	.byte	$0C
	.byte	$0C
	.byte	$0C
	.byte	$0C
	.byte	$0C
	.byte	$0C
	.byte	$0C
	.byte	$0C
	.byte	$00
	.byte	$21
	.byte	$0C
	.byte	$0C
	.byte	$0C
	.byte	$0C
	.byte	$0C
	.byte	$0C
	.byte	$03
	.byte	$03
	.byte	$02
	.byte	$02
	.byte	$2A
	.byte	$00
	.byte	$23
	.byte	$0C
	.byte	$0C
	.byte	$0C
	.byte	$0C
	.byte	$0C
	.byte	$0C
	.byte	$0C
	.byte	$0C
	.byte	$0C
	.byte	$0C
	.byte	$0C
	.byte	$0C
	.byte	$0C
	.byte	$0C
	.byte	$0C
	.byte	$0C
	.byte	$0C
	.byte	$03
	.byte	$03
	.byte	$02
	.byte	$02
	.byte	$00
	.byte	$00
	.byte	$0C
	.byte	$0C
	.byte	$0C
	.byte	$0C
	.byte	$0C
	.byte	$0C
	.byte	$0C
	.byte	$0C
	.byte	$20
	.byte	$00
	.byte	$22
	.byte	$00
	.byte	$0C
	.byte	$0C
	.byte	$0C
	.byte	$0C
	.byte	$0C
	.byte	$0C
	.byte	$03
	.byte	$03
	.byte	$02
	.byte	$02
	.byte	$00
	.byte	$00
	.byte	$0C
	.byte	$0C
	.byte	$0C
	.byte	$0C
	.byte	$0C
	.byte	$0C
	.byte	$0C
	.byte	$20
	.byte	$00
	.byte	$29
	.byte	$00
	.byte	$00
	.byte	$28
	.byte	$00
	.byte	$0C
	.byte	$00
	.byte	$0C
	.byte	$0C
	.byte	$03
	.byte	$03
	.byte	$00
	.byte	$01
	.byte	$00
	.byte	$01
	.byte	$0C
	.byte	$01
	.byte	$0C
	.byte	$01
	.byte	$0C
	.byte	$01
	.byte	$21
	.byte	$01
	.byte	$00
	.byte	$01
	.byte	$28
	.byte	$01
	.byte	$2A
	.byte	$01
	.byte	$00
	.byte	$01
	.byte	$0C
	.byte	$01
	.byte	$03
	.byte	$01
	.byte	$01
	.byte	$29
	.byte	$01
	.byte	$00
	.byte	$01
	.byte	$29
	.byte	$01
	.byte	$00
	.byte	$01
	.byte	$0C
	.byte	$01
	.byte	$0C
	.byte	$01
	.byte	$0C
	.byte	$01
	.byte	$03
	.byte	$01
	.byte	$01
	.byte	$01
	.byte	$01
	.byte	$01
	.byte	$01
	.byte	$01
	.byte	$01
	.byte	$00
	.byte	$00
	.byte	$28
	.byte	$00
	.byte	$2A
	.byte	$00
	.byte	$00
	.byte	$29
	.byte	$0C
	.byte	$22
	.byte	$0C
	.byte	$0C
	.byte	$0C
	.byte	$0C
	.byte	$0C
	.byte	$0C
	.byte	$21
	.byte	$0C
	.byte	$28
	.byte	$21
	.byte	$00
	.byte	$00
	.byte	$28
	.byte	$29
	.byte	$00
	.byte	$00
	.byte	$00
	.byte	$00
	.byte	$00
	.byte	$29
	.byte	$00
	.byte	$00
	.byte	$28
	.byte	$00
	.byte	$0C
	.byte	$0C
	.byte	$0C
	.byte	$0C
	.byte	$0C
	.byte	$0C
	.byte	$0C
	.byte	$0C
	.byte	$0C
	.byte	$0C
	.byte	$20
	.byte	$00
	.byte	$00
	.byte	$00
	.byte	$00
	.byte	$00
	.byte	$00
	.byte	$00
	.byte	$00
	.byte	$00
	.byte	$00
	.byte	$00
	.byte	$2A
	.byte	$00
	.byte	$0C
	.byte	$22
	.byte	$0C
	.byte	$0C
	.byte	$0C
	.byte	$0C
	.byte	$0C
	.byte	$0C
	.byte	$0C
	.byte	$0C
	.byte	$21
	.byte	$0C
	.byte	$28
	.byte	$00
	.byte	$21
	.byte	$0C
	.byte	$00
	.byte	$00
	.byte	$00
	.byte	$00
	.byte	$00
	.byte	$00
	.byte	$28
	.byte	$00
	.byte	$00
	.byte	$00
	.byte	$0C
	.byte	$22
	.byte	$0C
	.byte	$0C
	.byte	$0C
	.byte	$0C
	.byte	$0C
	.byte	$0C
	.byte	$0C
	.byte	$0C
	.byte	$21
	.byte	$00
	.byte	$21
	.byte	$0C
	.byte	$28
	.byte	$21
	.byte	$00
	.byte	$00
	.byte	$00
	.byte	$00
	.byte	$00
	.byte	$00
	.byte	$23
	.byte	$0C
	.byte	$00
	.byte	$00
	.byte	$28
	.byte	$29
	.byte	$22
	.byte	$00
	.byte	$0C
	.byte	$20
	.byte	$20
	.byte	$00
	.byte	$20
	.byte	$00
	.byte	$0C
	.byte	$0C
	.byte	$0C
	.byte	$0C
	.byte	$21
	.byte	$00
	.byte	$2A
	.byte	$00
	.byte	$23
	.byte	$0C
	.byte	$0C
	.byte	$0C
	.byte	$21
	.byte	$0C
	.byte	$2A
	.byte	$00
	.byte	$00
	.byte	$29
	.byte	$2A
	.byte	$00
	.byte	$00
	.byte	$00
	.byte	$00
	.byte	$23
	.byte	$0C
	.byte	$01
	.byte	$00
	.byte	$01
	.byte	$00
	.byte	$01
	.byte	$28
	.byte	$01
	.byte	$0C
	.byte	$01
	.byte	$0C
	.byte	$01
	.byte	$0C
	.byte	$01
	.byte	$21
	.byte	$01
	.byte	$00
	.byte	$01
	.byte	$28
	.byte	$01
	.byte	$2A
	.byte	$01
	.byte	$0C
	.byte	$01
	.byte	$08
	.byte	$08
	.byte	$08
	.byte	$0C
	.byte	$09
	.byte	$0C
	.byte	$09
	.byte	$0C
	.byte	$08
	.byte	$0C
	.byte	$09
	.byte	$0C
	.byte	$09
	.byte	$0C
	.byte	$08
	.byte	$09
	.byte	$09
	.byte	$0C
	.byte	$08
	.byte	$0C
	.byte	$09
	.byte	$20
	.byte	$08
	.byte	$20
	.byte	$08
	.byte	$08
	.byte	$0C
	.byte	$0C
	.byte	$0C
	.byte	$0C
	.byte	$0C
	.byte	$0C
	.byte	$0C
	.byte	$0C
	.byte	$0C
	.byte	$0C
	.byte	$0C
	.byte	$0C
	.byte	$09
	.byte	$09
	.byte	$0C
	.byte	$0C
	.byte	$0C
	.byte	$0C
	.byte	$21
	.byte	$00
	.byte	$00
	.byte	$29
	.byte	$08
	.byte	$08
	.byte	$0C
	.byte	$0C
	.byte	$0C
	.byte	$0C
	.byte	$09
	.byte	$09
	.byte	$0C
	.byte	$0C
	.byte	$0C
	.byte	$0C
	.byte	$0C
	.byte	$0C
	.byte	$09
	.byte	$09
	.byte	$0C
	.byte	$0C
	.byte	$20
	.byte	$00
	.byte	$28
	.byte	$29
	.byte	$09
	.byte	$09
	.byte	$08
	.byte	$08
	.byte	$0C
	.byte	$0C
	.byte	$0C
	.byte	$0C
	.byte	$09
	.byte	$09
	.byte	$0C
	.byte	$0C
	.byte	$0C
	.byte	$0C
	.byte	$0C
	.byte	$0C
	.byte	$09
	.byte	$09
	.byte	$20
	.byte	$00
	.byte	$28
	.byte	$00
	.byte	$00
	.byte	$00
	.byte	$09
	.byte	$09
	.byte	$08
	.byte	$08
	.byte	$0C
	.byte	$0C
	.byte	$0C
	.byte	$0C
	.byte	$09
	.byte	$09
	.byte	$0C
	.byte	$0C
	.byte	$0C
	.byte	$0C
	.byte	$0C
	.byte	$0C
	.byte	$09
	.byte	$09
	.byte	$28
	.byte	$29
	.byte	$00
	.byte	$00
	.byte	$00
	.byte	$29
	.byte	$09
	.byte	$09
	.byte	$08
	.byte	$08
	.byte	$0C
	.byte	$0C
	.byte	$0C
	.byte	$0C
	.byte	$09
	.byte	$09
	.byte	$0C
	.byte	$0C
	.byte	$0C
	.byte	$0C
	.byte	$20
	.byte	$00
	.byte	$09
	.byte	$09
	.byte	$00
	.byte	$00
	.byte	$28
	.byte	$00
	.byte	$00
	.byte	$00
	.byte	$09
	.byte	$09
	.byte	$08
	.byte	$08
	.byte	$0C
	.byte	$0C
	.byte	$0C
	.byte	$0C
	.byte	$09
	.byte	$09
	.byte	$0C
	.byte	$0C
	.byte	$0C
	.byte	$0C
	.byte	$00
	.byte	$00
	.byte	$09
	.byte	$00
	.byte	$00
	.byte	$00
	.byte	$00
	.byte	$00
	.byte	$00
	.byte	$29
	.byte	$09
	.byte	$09
	.byte	$08
	.byte	$08
	.byte	$0C
	.byte	$0C
	.byte	$0C
	.byte	$0C
	.byte	$09
	.byte	$09
	.byte	$0C
	.byte	$09
	.byte	$20
	.byte	$09
	.byte	$00
	.byte	$09
	.byte	$00
	.byte	$09
	.byte	$00
	.byte	$09
	.byte	$28
	.byte	$09
	.byte	$2A
	.byte	$09
	.byte	$09
	.byte	$09
	.byte	$08
	.byte	$08
	.byte	$0C
	.byte	$0C
	.byte	$0C
	.byte	$0C
	.byte	$09
	.byte	$0C
	.byte	$09
	.byte	$0C
	.byte	$09
	.byte	$00
	.byte	$09
	.byte	$00
	.byte	$09
	.byte	$00
	.byte	$09
	.byte	$29
	.byte	$09
	.byte	$00
	.byte	$09
	.byte	$00
	.byte	$09
	.byte	$09
	.byte	$08
	.byte	$08
	.byte	$0C
	.byte	$0C
	.byte	$0C
	.byte	$0C
	.byte	$0C
	.byte	$0C
	.byte	$0C
	.byte	$0C
	.byte	$28
	.byte	$00
	.byte	$00
	.byte	$00
	.byte	$28
	.byte	$00
	.byte	$00
	.byte	$00
	.byte	$00
	.byte	$00
	.byte	$00
	.byte	$00
	.byte	$09
	.byte	$09
	.byte	$08
	.byte	$08
	.byte	$0C
	.byte	$0C
	.byte	$0C
	.byte	$0C
	.byte	$0C
	.byte	$0C
	.byte	$20
	.byte	$00
	.byte	$20
	.byte	$00
	.byte	$28
	.byte	$29
	.byte	$00
	.byte	$00
	.byte	$00
	.byte	$29
	.byte	$2A
	.byte	$00
	.byte	$00
	.byte	$29
	.byte	$09
	.byte	$00
	.byte	$08
	.byte	$08
	.byte	$0C
	.byte	$0C
	.byte	$0C
	.byte	$0C
	.byte	$0C
	.byte	$0C
	.byte	$00
	.byte	$00
	.byte	$28
	.byte	$00
	.byte	$00
	.byte	$00
	.byte	$28
	.byte	$00
	.byte	$00
	.byte	$00
	.byte	$28
	.byte	$29
	.byte	$2A
	.byte	$00
	.byte	$00
	.byte	$00
	.byte	$08
	.byte	$08
	.byte	$0C
	.byte	$0C
	.byte	$0C
	.byte	$0C
	.byte	$20
	.byte	$00
	.byte	$00
	.byte	$00
	.byte	$00
	.byte	$00
	.byte	$28
	.byte	$29
	.byte	$2A
	.byte	$00
	.byte	$28
	.byte	$00
	.byte	$00
	.byte	$00
	.byte	$28
	.byte	$29
	.byte	$09
	.byte	$09
	.byte	$08
	.byte	$08
	.byte	$0C
	.byte	$0C
	.byte	$0C
	.byte	$20
	.byte	$00
	.byte	$00
	.byte	$00
	.byte	$00
	.byte	$28
	.byte	$00
	.byte	$2A
	.byte	$00
	.byte	$28
	.byte	$00
	.byte	$00
	.byte	$00
	.byte	$00
	.byte	$29
	.byte	$00
	.byte	$00
	.byte	$09
	.byte	$09
	.byte	$08
	.byte	$08
	.byte	$0C
	.byte	$0C
	.byte	$28
	.byte	$00
	.byte	$00
	.byte	$00
	.byte	$28
	.byte	$00
	.byte	$00
	.byte	$00
	.byte	$28
	.byte	$29
	.byte	$00
	.byte	$00
	.byte	$28
	.byte	$29
	.byte	$2A
	.byte	$00
	.byte	$28
	.byte	$29
	.byte	$09
	.byte	$09
	.byte	$08
	.byte	$08
	.byte	$0C
	.byte	$0C
	.byte	$21
	.byte	$0C
	.byte	$00
	.byte	$00
	.byte	$00
	.byte	$00
	.byte	$00
	.byte	$00
	.byte	$2A
	.byte	$00
	.byte	$28
	.byte	$00
	.byte	$00
	.byte	$00
	.byte	$28
	.byte	$29
	.byte	$2A
	.byte	$00
	.byte	$09
	.byte	$09
	.byte	$08
	.byte	$08
	.byte	$0C
	.byte	$0C
	.byte	$0C
	.byte	$0C
	.byte	$2A
	.byte	$21
	.byte	$28
	.byte	$00
	.byte	$00
	.byte	$00
	.byte	$00
	.byte	$00
	.byte	$2A
	.byte	$00
	.byte	$28
	.byte	$00
	.byte	$00
	.byte	$00
	.byte	$28
	.byte	$00
	.byte	$09
	.byte	$24
	.byte	$08
	.byte	$08
	.byte	$0C
	.byte	$0C
	.byte	$0C
	.byte	$0C
	.byte	$0C
	.byte	$0C
	.byte	$2A
	.byte	$00
	.byte	$28
	.byte	$00
	.byte	$2A
	.byte	$00
	.byte	$28
	.byte	$00
	.byte	$00
	.byte	$00
	.byte	$00
	.byte	$00
	.byte	$00
	.byte	$00
	.byte	$24
	.byte	$24
	.byte	$08
	.byte	$08
	.byte	$0C
	.byte	$0C
	.byte	$0C
	.byte	$0C
	.byte	$0C
	.byte	$0C
	.byte	$28
	.byte	$00
	.byte	$2A
	.byte	$00
	.byte	$28
	.byte	$29
	.byte	$2A
	.byte	$00
	.byte	$28
	.byte	$29
	.byte	$13
	.byte	$00
	.byte	$07
	.byte	$00
	.byte	$05
	.byte	$24
	.byte	$08
	.byte	$08
	.byte	$0C
	.byte	$0C
	.byte	$0C
	.byte	$0C
	.byte	$0C
	.byte	$0C
	.byte	$21
	.byte	$0C
	.byte	$28
	.byte	$00
	.byte	$00
	.byte	$00
	.byte	$00
	.byte	$00
	.byte	$00
	.byte	$00
	.byte	$00
	.byte	$29
	.byte	$00
	.byte	$00
	.byte	$24
	.byte	$24
	.byte	$08
	.byte	$08
	.byte	$0C
	.byte	$0C
	.byte	$0C
	.byte	$0C
	.byte	$0C
	.byte	$0C
	.byte	$0C
	.byte	$0C
	.byte	$21
	.byte	$0C
	.byte	$00
	.byte	$00
	.byte	$13
	.byte	$00
	.byte	$06
	.byte	$00
	.byte	$06
	.byte	$00
	.byte	$07
	.byte	$29
	.byte	$05
	.byte	$24
	.byte	$08
	.byte	$08
	.byte	$0C
	.byte	$0C
	.byte	$0C
	.byte	$0C
	.byte	$08
	.byte	$08
	.byte	$0C
	.byte	$20
	.byte	$0C
	.byte	$29
	.byte	$21
	.byte	$00
	.byte	$00
	.byte	$29
	.byte	$00
	.byte	$00
	.byte	$00
	.byte	$29
	.byte	$00
	.byte	$00
	.byte	$24
	.byte	$24
	.byte	$08
	.byte	$08
	.byte	$0C
	.byte	$0C
	.byte	$0C
	.byte	$0C
	.byte	$08
	.byte	$08
	.byte	$05
	.byte	$00
	.byte	$06
	.byte	$00
	.byte	$06
	.byte	$29
	.byte	$06
	.byte	$00
	.byte	$06
	.byte	$29
	.byte	$06
	.byte	$00
	.byte	$07
	.byte	$00
	.byte	$05
	.byte	$24
	.byte	$08
	.byte	$08
	.byte	$08
	.byte	$08
	.byte	$0C
	.byte	$09
	.byte	$08
	.byte	$08
	.byte	$00
	.byte	$09
	.byte	$28
	.byte	$08
	.byte	$00
	.byte	$09
	.byte	$00
	.byte	$09
	.byte	$2A
	.byte	$08
	.byte	$00
	.byte	$09
	.byte	$2A
	.byte	$08
	.byte	$24
	.byte	$08
	.byte	$00
	.byte	$29
	.byte	$2A
	.byte	$03
	.byte	$03
	.byte	$01
	.byte	$01
	.byte	$02
	.byte	$01
	.byte	$00
	.byte	$01
	.byte	$00
	.byte	$01
	.byte	$00
	.byte	$01
	.byte	$00
	.byte	$01
	.byte	$29
	.byte	$01
	.byte	$10
	.byte	$01
	.byte	$03
	.byte	$01
	.byte	$01
	.byte	$01
	.byte	$00
	.byte	$01
	.byte	$00
	.byte	$02
	.byte	$00
	.byte	$00
	.byte	$00
	.byte	$00
	.byte	$00
	.byte	$00
	.byte	$00
	.byte	$00
	.byte	$00
	.byte	$28
	.byte	$29
	.byte	$00
	.byte	$00
	.byte	$10
	.byte	$10
	.byte	$03
	.byte	$10
	.byte	$11
	.byte	$03
	.byte	$28
	.byte	$29
	.byte	$00
	.byte	$00
	.byte	$00
	.byte	$29
	.byte	$2A
	.byte	$00
	.byte	$28
	.byte	$00
	.byte	$2A
	.byte	$00
	.byte	$28
	.byte	$12
	.byte	$00
	.byte	$04
	.byte	$28
	.byte	$29
	.byte	$10
	.byte	$10
	.byte	$10
	.byte	$10
	.byte	$03
	.byte	$03
	.byte	$2A
	.byte	$00
	.byte	$00
	.byte	$29
	.byte	$2A
	.byte	$00
	.byte	$28
	.byte	$29
	.byte	$00
	.byte	$00
	.byte	$28
	.byte	$00
	.byte	$00
	.byte	$00
	.byte	$28
	.byte	$29
	.byte	$00
	.byte	$00
	.byte	$10
	.byte	$10
	.byte	$10
	.byte	$10
	.byte	$03
	.byte	$03
	.byte	$01
	.byte	$01
	.byte	$02
	.byte	$01
	.byte	$00
	.byte	$02
	.byte	$00
	.byte	$00
	.byte	$28
	.byte	$00
	.byte	$00
	.byte	$00
	.byte	$28
	.byte	$29
	.byte	$00
	.byte	$00
	.byte	$00
	.byte	$29
	.byte	$10
	.byte	$10
	.byte	$10
	.byte	$10
	.byte	$03
	.byte	$03
	.byte	$01
	.byte	$02
	.byte	$01
	.byte	$00
	.byte	$01
	.byte	$00
	.byte	$01
	.byte	$00
	.byte	$02
	.byte	$00
	.byte	$00
	.byte	$29
	.byte	$2A
	.byte	$00
	.byte	$28
	.byte	$00
	.byte	$2A
	.byte	$00
	.byte	$10
	.byte	$10
	.byte	$10
	.byte	$03
	.byte	$03
	.byte	$01
	.byte	$01
	.byte	$02
	.byte	$02
	.byte	$00
	.byte	$00
	.byte	$00
	.byte	$00
	.byte	$00
	.byte	$28
	.byte	$00
	.byte	$2A
	.byte	$00
	.byte	$28
	.byte	$29
	.byte	$00
	.byte	$00
	.byte	$0B
	.byte	$29
	.byte	$03
	.byte	$0D
	.byte	$01
	.byte	$03
	.byte	$01
	.byte	$01
	.byte	$02
	.byte	$01
	.byte	$00
	.byte	$02
	.byte	$2A
	.byte	$00
	.byte	$28
	.byte	$29
	.byte	$2A
	.byte	$00
	.byte	$00
	.byte	$29
	.byte	$00
	.byte	$00
	.byte	$0B
	.byte	$00
	.byte	$03
	.byte	$0F
	.byte	$01
	.byte	$03
	.byte	$11
	.byte	$01
	.byte	$01
	.byte	$01
	.byte	$01
	.byte	$02
	.byte	$01
	.byte	$00
	.byte	$02
	.byte	$00
	.byte	$2A
	.byte	$00
	.byte	$00
	.byte	$00
	.byte	$00
	.byte	$00
	.byte	$00
	.byte	$00
	.byte	$00
	.byte	$00
	.byte	$00
	.byte	$29
	.byte	$03
	.byte	$0F
	.byte	$01
	.byte	$03
	.byte	$01
	.byte	$01
	.byte	$01
	.byte	$02
	.byte	$02
	.byte	$00
	.byte	$2A
	.byte	$00
	.byte	$28
	.byte	$29
	.byte	$2A
	.byte	$00
	.byte	$28
	.byte	$00
	.byte	$2A
	.byte	$00
	.byte	$28
	.byte	$29
	.byte	$2A
	.byte	$00
	.byte	$28
	.byte	$29
	.byte	$03
	.byte	$0F
	.byte	$01
	.byte	$03
	.byte	$01
	.byte	$02
	.byte	$02
	.byte	$00
	.byte	$00
	.byte	$00
	.byte	$00
	.byte	$00
	.byte	$00
	.byte	$29
	.byte	$00
	.byte	$00
	.byte	$28
	.byte	$00
	.byte	$00
	.byte	$00
	.byte	$28
	.byte	$00
	.byte	$00
	.byte	$00
	.byte	$03
	.byte	$03
	.byte	$01
	.byte	$01
	.byte	$01
	.byte	$01
	.byte	$02
	.byte	$01
	.byte	$00
	.byte	$02
	.byte	$00
	.byte	$29
	.byte	$00
	.byte	$00
	.byte	$28
	.byte	$29
	.byte	$2A
	.byte	$00
	.byte	$28
	.byte	$29
	.byte	$00
	.byte	$00
	.byte	$28
	.byte	$00
	.byte	$0F
	.byte	$00
	.byte	$03
	.byte	$03
	.byte	$01
	.byte	$01
	.byte	$01
	.byte	$01
	.byte	$01
	.byte	$01
	.byte	$01
	.byte	$02
	.byte	$02
	.byte	$00
	.byte	$00
	.byte	$00
	.byte	$00
	.byte	$29
	.byte	$2A
	.byte	$00
	.byte	$00
	.byte	$29
	.byte	$00
	.byte	$00
	.byte	$00
	.byte	$29
	.byte	$03
	.byte	$03
	.byte	$01
	.byte	$02
	.byte	$02
	.byte	$00
	.byte	$00
	.byte	$00
	.byte	$00
	.byte	$00
	.byte	$00
	.byte	$00
	.byte	$00
	.byte	$00
	.byte	$2A
	.byte	$00
	.byte	$28
	.byte	$00
	.byte	$00
	.byte	$00
	.byte	$28
	.byte	$00
	.byte	$2A
	.byte	$0B
	.byte	$03
	.byte	$03
	.byte	$02
	.byte	$01
	.byte	$2A
	.byte	$02
	.byte	$28
	.byte	$29
	.byte	$00
	.byte	$00
	.byte	$28
	.byte	$29
	.byte	$00
	.byte	$00
	.byte	$28
	.byte	$29
	.byte	$00
	.byte	$00
	.byte	$28
	.byte	$00
	.byte	$00
	.byte	$00
	.byte	$28
	.byte	$00
	.byte	$03
	.byte	$03
	.byte	$01
	.byte	$02
	.byte	$02
	.byte	$29
	.byte	$2A
	.byte	$00
	.byte	$28
	.byte	$29
	.byte	$2A
	.byte	$00
	.byte	$28
	.byte	$00
	.byte	$00
	.byte	$00
	.byte	$00
	.byte	$00
	.byte	$2A
	.byte	$00
	.byte	$00
	.byte	$29
	.byte	$00
	.byte	$0D
	.byte	$03
	.byte	$03
	.byte	$02
	.byte	$01
	.byte	$00
	.byte	$02
	.byte	$28
	.byte	$00
	.byte	$2A
	.byte	$00
	.byte	$00
	.byte	$29
	.byte	$00
	.byte	$00
	.byte	$00
	.byte	$00
	.byte	$00
	.byte	$00
	.byte	$28
	.byte	$00
	.byte	$2A
	.byte	$00
	.byte	$0E
	.byte	$0F
	.byte	$03
	.byte	$03
	.byte	$02
	.byte	$01
	.byte	$00
	.byte	$02
	.byte	$00
	.byte	$00
	.byte	$28
	.byte	$00
	.byte	$00
	.byte	$00
	.byte	$00
	.byte	$29
	.byte	$2A
	.byte	$00
	.byte	$00
	.byte	$29
	.byte	$00
	.byte	$00
	.byte	$28
	.byte	$29
	.byte	$0B
	.byte	$0D
	.byte	$03
	.byte	$03
	.byte	$01
	.byte	$02
	.byte	$01
	.byte	$00
	.byte	$01
	.byte	$00
	.byte	$02
	.byte	$00
	.byte	$28
	.byte	$00
	.byte	$2A
	.byte	$00
	.byte	$00
	.byte	$29
	.byte	$2A
	.byte	$00
	.byte	$03
	.byte	$00
	.byte	$01
	.byte	$0F
	.byte	$01
	.byte	$03
	.byte	$01
	.byte	$01
	.byte	$01
	.byte	$02
	.byte	$02
	.byte	$00
	.byte	$00
	.byte	$00
	.byte	$28
	.byte	$00
	.byte	$00
	.byte	$00
	.byte	$00
	.byte	$0B
	.byte	$2A
	.byte	$03
	.byte	$28
	.byte	$01
	.byte	$00
	.byte	$01
	.byte	$00
	.byte	$11
	.byte	$0D
	.byte	$01
	.byte	$03
	.byte	$01
	.byte	$01
	.byte	$01
	.byte	$02
	.byte	$01
	.byte	$28
	.byte	$01
	.byte	$00
	.byte	$01
	.byte	$28
	.byte	$02
	.byte	$2A
	.byte	$00
	.byte	$00
	.byte	$29
	.byte	$2A
	.byte	$00
	.byte	$0F
	.byte	$00
	.byte	$03
	.byte	$00
	.byte	$01
	.byte	$0D
	.byte	$11
	.byte	$03
	.byte	$01
	.byte	$02
	.byte	$01
	.byte	$00
	.byte	$02
	.byte	$00
	.byte	$28
	.byte	$29
	.byte	$00
	.byte	$00
	.byte	$28
	.byte	$29
	.byte	$2A
	.byte	$00
	.byte	$00
	.byte	$29
	.byte	$03
	.byte	$00
	.byte	$01
	.byte	$0F
	.byte	$01
	.byte	$03
	.byte	$01
	.byte	$01
	.byte	$01
	.byte	$01
	.byte	$02
	.byte	$01
	.byte	$00
	.byte	$02
	.byte	$00
	.byte	$00
	.byte	$00
	.byte	$00
	.byte	$00
	.byte	$00
	.byte	$00
	.byte	$29
	.byte	$00
	.byte	$00
	.byte	$00
	.byte	$00
	.byte	$2A
	.byte	$00
	.byte	$0D
	.byte	$0E
	.byte	$03
	.byte	$03
	.byte	$01
	.byte	$02
	.byte	$02
	.byte	$00
	.byte	$00
	.byte	$00
	.byte	$28
	.byte	$29
	.byte	$00
	.byte	$00
	.byte	$00
	.byte	$00
	.byte	$2A
	.byte	$00
	.byte	$00
	.byte	$00
	.byte	$00
	.byte	$00
	.byte	$00
	.byte	$29
	.byte	$0F
	.byte	$0D
	.byte	$03
	.byte	$03
	.byte	$02
	.byte	$01
	.byte	$00
	.byte	$02
	.byte	$00
	.byte	$00
	.byte	$2A
	.byte	$00
	.byte	$00
	.byte	$29
	.byte	$00
	.byte	$00
	.byte	$00
	.byte	$00
	.byte	$00
	.byte	$00
	.byte	$28
	.byte	$00
	.byte	$00
	.byte	$00
	.byte	$0F
	.byte	$0D
	.byte	$03
	.byte	$03
	.byte	$01
	.byte	$01
	.byte	$01
	.byte	$02
	.byte	$02
	.byte	$00
	.byte	$28
	.byte	$29
	.byte	$2A
	.byte	$00
	.byte	$00
	.byte	$00
	.byte	$00
	.byte	$00
	.byte	$28
	.byte	$00
	.byte	$2A
	.byte	$00
	.byte	$0D
	.byte	$03
	.byte	$03
	.byte	$01
	.byte	$01
	.byte	$01
	.byte	$01
	.byte	$01
	.byte	$01
	.byte	$02
	.byte	$02
	.byte	$29
	.byte	$00
	.byte	$00
	.byte	$28
	.byte	$29
	.byte	$00
	.byte	$00
	.byte	$28
	.byte	$29
	.byte	$2A
	.byte	$00
	.byte	$28
	.byte	$00
	.byte	$0F
	.byte	$00
	.byte	$03
	.byte	$0D
	.byte	$01
	.byte	$03
	.byte	$01
	.byte	$02
	.byte	$01
	.byte	$29
	.byte	$02
	.byte	$00
	.byte	$00
	.byte	$29
	.byte	$2A
	.byte	$00
	.byte	$00
	.byte	$00
	.byte	$2A
	.byte	$00
	.byte	$00
	.byte	$00
	.byte	$00
	.byte	$03
	.byte	$00
	.byte	$01
	.byte	$0E
	.byte	$01
	.byte	$03
	.byte	$01
	.byte	$01
	.byte	$02
	.byte	$02
	.byte	$00
	.byte	$00
	.byte	$00
	.byte	$00
	.byte	$00
	.byte	$28
	.byte	$00
	.byte	$00
	.byte	$00
	.byte	$28
	.byte	$03
	.byte	$00
	.byte	$01
	.byte	$28
	.byte	$01
	.byte	$0E
	.byte	$01
	.byte	$03
	.byte	$01
	.byte	$01
	.byte	$01
	.byte	$01
	.byte	$01
	.byte	$02
	.byte	$01
	.byte	$00
	.byte	$01
	.byte	$28
	.byte	$02
	.byte	$00
	.byte	$00
	.byte	$00
	.byte	$00
	.byte	$00
	.byte	$00
	.byte	$00
	.byte	$00
	.byte	$2A
	.byte	$00
	.byte	$28
	.byte	$29
	.byte	$1F
	.byte	$00
	.byte	$01
	.byte	$29
	.byte	$01
	.byte	$00
	.byte	$01
	.byte	$24
	.byte	$01
	.byte	$00
	.byte	$01
	.byte	$24
	.byte	$01
	.byte	$00
	.byte	$02
	.byte	$24
	.byte	$28
	.byte	$00
	.byte	$04
	.byte	$24
	.byte	$28
	.byte	$00
	.byte	$12
	.byte	$00
	.byte	$03
	.byte	$00
	.byte	$01
	.byte	$24
	.byte	$00
	.byte	$11
	.byte	$24
	.byte	$01
	.byte	$2A
	.byte	$01
	.byte	$24
	.byte	$01
	.byte	$00
	.byte	$11
	.byte	$24
	.byte	$01
	.byte	$2A
	.byte	$01
	.byte	$24
	.byte	$01
	.byte	$00
	.byte	$11
	.byte	$00
	.byte	$01
	.byte	$2A
	.byte	$01
	.byte	$24
	.byte	$01
	.byte	$01
	.byte	$02
	.byte	$01
	.byte	$0C
	.byte	$11
	.byte	$0C
	.byte	$01
	.byte	$1F
	.byte	$01
	.byte	$02
	.byte	$11
	.byte	$00
	.byte	$01
	.byte	$29
	.byte	$01
	.byte	$00
	.byte	$01
	.byte	$29
	.byte	$11
	.byte	$00
	.byte	$01
	.byte	$00
	.byte	$01
	.byte	$24
	.byte	$02
	.byte	$02
	.byte	$0C
	.byte	$29
	.byte	$0C
	.byte	$00
	.byte	$04
	.byte	$0D
	.byte	$2A
	.byte	$04
	.byte	$28
	.byte	$00
	.byte	$00
	.byte	$00
	.byte	$00
	.byte	$00
	.byte	$00
	.byte	$00
	.byte	$28
	.byte	$03
	.byte	$00
	.byte	$01
	.byte	$24
	.byte	$01
	.byte	$01
	.byte	$02
	.byte	$02
	.byte	$00
	.byte	$00
	.byte	$0D
	.byte	$0E
	.byte	$03
	.byte	$04
	.byte	$02
	.byte	$2A
	.byte	$00
	.byte	$28
	.byte	$00
	.byte	$00
	.byte	$00
	.byte	$28
	.byte	$00
	.byte	$2A
	.byte	$00
	.byte	$28
	.byte	$03
	.byte	$03
	.byte	$01
	.byte	$02
	.byte	$02
	.byte	$00
	.byte	$00
	.byte	$03
	.byte	$0F
	.byte	$11
	.byte	$03
	.byte	$02
	.byte	$02
	.byte	$28
	.byte	$00
	.byte	$2A
	.byte	$00
	.byte	$00
	.byte	$00
	.byte	$00
	.byte	$00
	.byte	$28
	.byte	$00
	.byte	$03
	.byte	$00
	.byte	$11
	.byte	$03
	.byte	$02
	.byte	$02
	.byte	$2A
	.byte	$00
	.byte	$28
	.byte	$00
	.byte	$0F
	.byte	$00
	.byte	$03
	.byte	$00
	.byte	$02
	.byte	$0F
	.byte	$28
	.byte	$04
	.byte	$00
	.byte	$00
	.byte	$00
	.byte	$00
	.byte	$00
	.byte	$00
	.byte	$03
	.byte	$03
	.byte	$01
	.byte	$01
	.byte	$01
	.byte	$01
	.byte	$02
	.byte	$01
	.byte	$00
	.byte	$02
	.byte	$28
	.byte	$00
	.byte	$2A
	.byte	$00
	.byte	$28
	.byte	$29
	.byte	$0B
	.byte	$03
	.byte	$04
	.byte	$02
	.byte	$2A
	.byte	$00
	.byte	$28
	.byte	$00
	.byte	$00
	.byte	$00
	.byte	$03
	.byte	$03
	.byte	$02
	.byte	$02
	.byte	$00
	.byte	$00
	.byte	$28
	.byte	$29
	.byte	$2A
	.byte	$00
	.byte	$28
	.byte	$00
	.byte	$2A
	.byte	$00
	.byte	$0F
	.byte	$03
	.byte	$04
	.byte	$02
	.byte	$00
	.byte	$29
	.byte	$00
	.byte	$00
	.byte	$28
	.byte	$00
	.byte	$03
	.byte	$03
	.byte	$01
	.byte	$01
	.byte	$02
	.byte	$01
	.byte	$2A
	.byte	$02
	.byte	$28
	.byte	$00
	.byte	$00
	.byte	$00
	.byte	$28
	.byte	$00
	.byte	$0F
	.byte	$00
	.byte	$04
	.byte	$04
	.byte	$2A
	.byte	$00
	.byte	$00
	.byte	$00
	.byte	$03
	.byte	$00
	.byte	$01
	.byte	$03
	.byte	$01
	.byte	$01
	.byte	$01
	.byte	$02
	.byte	$02
	.byte	$00
	.byte	$00
	.byte	$00
	.byte	$00
	.byte	$29
	.byte	$00
	.byte	$00
	.byte	$00
	.byte	$03
	.byte	$04
	.byte	$02
	.byte	$00
	.byte	$29
	.byte	$00
	.byte	$00
	.byte	$28
	.byte	$29
	.byte	$03
	.byte	$03
	.byte	$02
	.byte	$02
	.byte	$00
	.byte	$29
	.byte	$00
	.byte	$00
	.byte	$00
	.byte	$29
	.byte	$2A
	.byte	$00
	.byte	$28
	.byte	$03
	.byte	$00
	.byte	$02
	.byte	$04
	.byte	$29
	.byte	$2A
	.byte	$00
	.byte	$28
	.byte	$29
	.byte	$03
	.byte	$03
	.byte	$01
	.byte	$01
	.byte	$02
	.byte	$02
	.byte	$2A
	.byte	$00
	.byte	$00
	.byte	$00
	.byte	$2A
	.byte	$03
	.byte	$00
	.byte	$02
	.byte	$04
	.byte	$00
	.byte	$28
	.byte	$00
	.byte	$2A
	.byte	$00
	.byte	$00
	.byte	$00
	.byte	$00
	.byte	$00
	.byte	$03
	.byte	$00
	.byte	$01
	.byte	$03
	.byte	$02
	.byte	$01
	.byte	$28
	.byte	$02
	.byte	$00
	.byte	$00
	.byte	$00
	.byte	$00
	.byte	$03
	.byte	$00
	.byte	$02
	.byte	$29
	.byte	$00
	.byte	$04
	.byte	$00
	.byte	$00
	.byte	$00
	.byte	$00
	.byte	$28
	.byte	$29
	.byte	$00
	.byte	$00
	.byte	$03
	.byte	$03
	.byte	$02
	.byte	$01
	.byte	$2A
	.byte	$01
	.byte	$00
	.byte	$02
	.byte	$2A
	.byte	$00
	.byte	$28
	.byte	$29
	.byte	$03
	.byte	$00
	.byte	$02
	.byte	$04
	.byte	$00
	.byte	$00
	.byte	$28
	.byte	$29
	.byte	$2A
	.byte	$00
	.byte	$03
	.byte	$00
	.byte	$01
	.byte	$03
	.byte	$02
	.byte	$02
	.byte	$00
	.byte	$29
	.byte	$2A
	.byte	$00
	.byte	$28
	.byte	$00
	.byte	$00
	.byte	$00
	.byte	$03
	.byte	$00
	.byte	$02
	.byte	$04
	.byte	$28
	.byte	$00
	.byte	$00
	.byte	$00
	.byte	$00
	.byte	$29
	.byte	$00
	.byte	$00
	.byte	$03
	.byte	$03
	.byte	$01
	.byte	$02
	.byte	$02
	.byte	$00
	.byte	$00
	.byte	$00
	.byte	$00
	.byte	$00
	.byte	$28
	.byte	$00
	.byte	$03
	.byte	$00
	.byte	$02
	.byte	$04
	.byte	$2A
	.byte	$00
	.byte	$28
	.byte	$00
	.byte	$2A
	.byte	$00
	.byte	$28
	.byte	$03
	.byte	$03
	.byte	$01
	.byte	$02
	.byte	$02
	.byte	$28
	.byte	$29
	.byte	$2A
	.byte	$00
	.byte	$00
	.byte	$29
	.byte	$2A
	.byte	$00
	.byte	$03
	.byte	$03
	.byte	$02
	.byte	$02
	.byte	$00
	.byte	$00
	.byte	$00
	.byte	$00
	.byte	$03
	.byte	$00
	.byte	$11
	.byte	$00
	.byte	$01
	.byte	$03
	.byte	$02
	.byte	$02
	.byte	$00
	.byte	$00
	.byte	$00
	.byte	$29
	.byte	$00
	.byte	$00
	.byte	$28
	.byte	$29
	.byte	$03
	.byte	$03
	.byte	$02
	.byte	$02
	.byte	$00
	.byte	$00
	.byte	$28
	.byte	$00
	.byte	$2A
	.byte	$00
	.byte	$00
	.byte	$29
	.byte	$03
	.byte	$03
	.byte	$01
	.byte	$02
	.byte	$02
	.byte	$29
	.byte	$2A
	.byte	$00
	.byte	$28
	.byte	$00
	.byte	$00
	.byte	$00
	.byte	$00
	.byte	$04
	.byte	$00
	.byte	$00
	.byte	$00
	.byte	$29
	.byte	$00
	.byte	$00
	.byte	$28
	.byte	$29
	.byte	$00
	.byte	$00
	.byte	$03
	.byte	$03
	.byte	$02
	.byte	$02
	.byte	$2A
	.byte	$00
	.byte	$28
	.byte	$00
	.byte	$00
	.byte	$04
	.byte	$00
	.byte	$29
	.byte	$00
	.byte	$00
	.byte	$00
	.byte	$00
	.byte	$00
	.byte	$00
	.byte	$00
	.byte	$00
	.byte	$00
	.byte	$00
	.byte	$03
	.byte	$29
	.byte	$01
	.byte	$03
	.byte	$02
	.byte	$02
	.byte	$00
	.byte	$00
	.byte	$00
	.byte	$00
	.byte	$03
	.byte	$03
	.byte	$02
	.byte	$02
	.byte	$00
	.byte	$00
	.byte	$00
	.byte	$00
	.byte	$04
	.byte	$29
	.byte	$00
	.byte	$00
	.byte	$28
	.byte	$03
	.byte	$03
	.byte	$01
	.byte	$01
	.byte	$01
	.byte	$02
	.byte	$02
	.byte	$00
	.byte	$00
	.byte	$28
	.byte	$00
	.byte	$03
	.byte	$03
	.byte	$02
	.byte	$02
	.byte	$00
	.byte	$00
	.byte	$28
	.byte	$00
	.byte	$2A
	.byte	$00
	.byte	$00
	.byte	$00
	.byte	$2A
	.byte	$03
	.byte	$03
	.byte	$01
	.byte	$01
	.byte	$01
	.byte	$02
	.byte	$02
	.byte	$28
	.byte	$00
	.byte	$2A
	.byte	$00
	.byte	$03
	.byte	$29
	.byte	$02
	.byte	$04
	.byte	$00
	.byte	$29
	.byte	$00
	.byte	$00
	.byte	$00
	.byte	$00
	.byte	$2A
	.byte	$00
	.byte	$28
	.byte	$29
	.byte	$2A
	.byte	$03
	.byte	$03
	.byte	$01
	.byte	$02
	.byte	$02
	.byte	$2A
	.byte	$00
	.byte	$28
	.byte	$29
	.byte	$00
	.byte	$00
	.byte	$04
	.byte	$04
	.byte	$00
	.byte	$00
	.byte	$28
	.byte	$29
	.byte	$00
	.byte	$00
	.byte	$00
	.byte	$00
	.byte	$00
	.byte	$00
	.byte	$28
	.byte	$00
	.byte	$03
	.byte	$03
	.byte	$01
	.byte	$02
	.byte	$02
	.byte	$29
	.byte	$00
	.byte	$00
	.byte	$03
	.byte	$03
	.byte	$02
	.byte	$02
	.byte	$28
	.byte	$00
	.byte	$2A
	.byte	$00
	.byte	$28
	.byte	$00
	.byte	$2A
	.byte	$00
	.byte	$00
	.byte	$00
	.byte	$03
	.byte	$03
	.byte	$01
	.byte	$01
	.byte	$02
	.byte	$02
	.byte	$00
	.byte	$00
	.byte	$00
	.byte	$00
	.byte	$03
	.byte	$00
	.byte	$02
	.byte	$03
	.byte	$00
	.byte	$02
	.byte	$00
	.byte	$00
	.byte	$00
	.byte	$00
	.byte	$00
	.byte	$00
	.byte	$2A
	.byte	$00
	.byte	$03
	.byte	$00
	.byte	$01
	.byte	$03
	.byte	$02
	.byte	$02
	.byte	$00
	.byte	$00
	.byte	$00
	.byte	$00
	.byte	$28
	.byte	$29
	.byte	$2A
	.byte	$00
	.byte	$03
	.byte	$29
	.byte	$02
	.byte	$04
	.byte	$28
	.byte	$29
	.byte	$2A
	.byte	$00
	.byte	$00
	.byte	$29
	.byte	$00
	.byte	$00
	.byte	$03
	.byte	$03
	.byte	$02
	.byte	$02
	.byte	$00
	.byte	$00
	.byte	$00
	.byte	$29
	.byte	$2A
	.byte	$00
	.byte	$28
	.byte	$00
	.byte	$2A
	.byte	$00
	.byte	$04
	.byte	$04
	.byte	$2A
	.byte	$00
	.byte	$00
	.byte	$00
	.byte	$2A
	.byte	$00
	.byte	$28
	.byte	$29
	.byte	$03
	.byte	$03
	.byte	$01
	.byte	$02
	.byte	$02
	.byte	$29
	.byte	$00
	.byte	$00
	.byte	$28
	.byte	$00
	.byte	$00
	.byte	$00
	.byte	$28
	.byte	$29
	.byte	$04
	.byte	$04
	.byte	$00
	.byte	$29
	.byte	$2A
	.byte	$00
	.byte	$28
	.byte	$00
	.byte	$00
	.byte	$00
	.byte	$03
	.byte	$03
	.byte	$02
	.byte	$01
	.byte	$00
	.byte	$02
	.byte	$28
	.byte	$00
	.byte	$00
	.byte	$00
	.byte	$00
	.byte	$03
	.byte	$03
	.byte	$02
	.byte	$02
	.byte	$00
	.byte	$00
	.byte	$00
	.byte	$00
	.byte	$00
	.byte	$2A
	.byte	$00
	.byte	$00
	.byte	$29
	.byte	$03
	.byte	$03
	.byte	$02
	.byte	$02
	.byte	$00
	.byte	$00
	.byte	$2A
	.byte	$00
	.byte	$00
	.byte	$29
	.byte	$03
	.byte	$03
	.byte	$02
	.byte	$02
	.byte	$00
	.byte	$00
	.byte	$28
	.byte	$00
	.byte	$00
	.byte	$00
	.byte	$28
	.byte	$03
	.byte	$2A
	.byte	$11
	.byte	$03
	.byte	$01
	.byte	$02
	.byte	$02
	.byte	$00
	.byte	$00
	.byte	$00
	.byte	$29
	.byte	$00
	.byte	$00
	.byte	$03
	.byte	$04
	.byte	$02
	.byte	$00
	.byte	$28
	.byte	$00
	.byte	$2A
	.byte	$00
	.byte	$28
	.byte	$00
	.byte	$00
	.byte	$00
	.byte	$00
	.byte	$00
	.byte	$00
	.byte	$00
	.byte	$01
	.byte	$01
	.byte	$28
	.byte	$01
	.byte	$00
	.byte	$01
	.byte	$28
	.byte	$01
	.byte	$00
	.byte	$02
	.byte	$00
	.byte	$00
	.byte	$00
	.byte	$00
	.byte	$28
	.byte	$29
	.byte	$2A
	.byte	$00
	.byte	$28
	.byte	$00
	.byte	$00
	.byte	$03
	.byte	$03
	.byte	$01
	.byte	$01
	.byte	$01
	.byte	$11
	.byte	$01
	.byte	$01
	.byte	$11
	.byte	$01
	.byte	$11
	.byte	$02
	.byte	$01
	.byte	$2A
	.byte	$02
	.byte	$28
	.byte	$00
	.byte	$00
	.byte	$00
	.byte	$00
	.byte	$29
	.byte	$00
	.byte	$00
	.byte	$03
	.byte	$03
	.byte	$01
	.byte	$01
	.byte	$01
	.byte	$11
	.byte	$11
	.byte	$01
	.byte	$01
	.byte	$02
	.byte	$01
	.byte	$29
	.byte	$02
	.byte	$00
	.byte	$28
	.byte	$00
	.byte	$2A
	.byte	$00
	.byte	$28
	.byte	$29
	.byte	$2A
	.byte	$00
	.byte	$00
	.byte	$29
	.byte	$03
	.byte	$03
	.byte	$01
	.byte	$01
	.byte	$01
	.byte	$02
	.byte	$02
	.byte	$00
	.byte	$00
	.byte	$29
	.byte	$2A
	.byte	$00
	.byte	$00
	.byte	$00
	.byte	$2A
	.byte	$00
	.byte	$00
	.byte	$29
	.byte	$2A
	.byte	$00
	.byte	$00
	.byte	$00
	.byte	$2A
	.byte	$00
	.byte	$00
	.byte	$00
	.byte	$03
	.byte	$03
	.byte	$01
	.byte	$00
	.byte	$02
	.byte	$00
	.byte	$2A
	.byte	$00
	.byte	$00
	.byte	$00
	.byte	$2A
	.byte	$00
	.byte	$28
	.byte	$00
	.byte	$2A
	.byte	$00
	.byte	$28
	.byte	$29
	.byte	$2A
	.byte	$00
	.byte	$00
	.byte	$00
	.byte	$00
	.byte	$00
	.byte	$03
	.byte	$03
	.byte	$28
	.byte	$00
	.byte	$2A
	.byte	$00
	.byte	$00
	.byte	$00
	.byte	$2A
	.byte	$00
	.byte	$00
	.byte	$00
	.byte	$00
	.byte	$00
	.byte	$28
	.byte	$00
	.byte	$00
	.byte	$00
	.byte	$28
	.byte	$29
	.byte	$00
	.byte	$00
	.byte	$28
	.byte	$00
	.byte	$03
	.byte	$03
	.byte	$2A
	.byte	$00
	.byte	$28
	.byte	$04
	.byte	$2A
	.byte	$00
	.byte	$00
	.byte	$00
	.byte	$00
	.byte	$00
	.byte	$00
	.byte	$29
	.byte	$00
	.byte	$00
	.byte	$28
	.byte	$29
	.byte	$2A
	.byte	$00
	.byte	$00
	.byte	$00
	.byte	$00
	.byte	$03
	.byte	$03
	.byte	$02
	.byte	$28
	.byte	$02
	.byte	$00
	.byte	$00
	.byte	$00
	.byte	$00
	.byte	$04
	.byte	$00
	.byte	$00
	.byte	$00
	.byte	$00
	.byte	$00
	.byte	$28
	.byte	$03
	.byte	$00
	.byte	$01
	.byte	$03
	.byte	$01
	.byte	$01
	.byte	$02
	.byte	$02
	.byte	$00
	.byte	$2A
	.byte	$00
	.byte	$01
	.byte	$01
	.byte	$02
	.byte	$01
	.byte	$2A
	.byte	$01
	.byte	$00
	.byte	$01
	.byte	$00
	.byte	$01
	.byte	$03
	.byte	$01
	.byte	$01
	.byte	$01
	.byte	$02
	.byte	$01
	.byte	$00
	.byte	$01
	.byte	$00
	.byte	$01
	.byte	$2A
	.byte	$01
	.byte	$03
	.byte	$01
	.byte	$01
	.byte	$01
	.byte	$01
	.byte	$01
	.byte	$01
	.byte	$01
	.byte	$01
	.byte	$01
	.byte	$01
	.byte	$02
	.byte	$01
	.byte	$00
	.byte	$01
	.byte	$29
	.byte	$01
	.byte	$00
	.byte	$01
	.byte	$23
	.byte	$01
	.byte	$0C
	.byte	$01
	.byte	$0C
	.byte	$01
	.byte	$21
	.byte	$01
	.byte	$01
	.byte	$01
	.byte	$02
	.byte	$02
	.byte	$00
	.byte	$28
	.byte	$00
	.byte	$00
	.byte	$23
	.byte	$28
	.byte	$0C
	.byte	$23
	.byte	$0C
	.byte	$00
	.byte	$0C
	.byte	$0C
	.byte	$0C
	.byte	$0C
	.byte	$0C
	.byte	$0C
	.byte	$0C
	.byte	$0C
	.byte	$0C
	.byte	$02
	.byte	$29
	.byte	$2A
	.byte	$00
	.byte	$00
	.byte	$00
	.byte	$2A
	.byte	$23
	.byte	$0C
	.byte	$0C
	.byte	$0C
	.byte	$0C
	.byte	$0C
	.byte	$0C
	.byte	$0C
	.byte	$0C
	.byte	$0C
	.byte	$0C
	.byte	$0C
	.byte	$0C
	.byte	$0C
	.byte	$03
	.byte	$0C
	.byte	$11
	.byte	$2A
	.byte	$02
	.byte	$00
	.byte	$00
	.byte	$23
	.byte	$0C
	.byte	$0C
	.byte	$0C
	.byte	$0C
	.byte	$0C
	.byte	$0C
	.byte	$0C
	.byte	$0C
	.byte	$0C
	.byte	$0C
	.byte	$0C
	.byte	$0C
	.byte	$0C
	.byte	$03
	.byte	$0C
	.byte	$01
	.byte	$03
	.byte	$01
	.byte	$11
	.byte	$01
	.byte	$01
	.byte	$02
	.byte	$01
	.byte	$0C
	.byte	$01
	.byte	$0C
	.byte	$02
	.byte	$0C
	.byte	$0C
	.byte	$0C
	.byte	$0C
	.byte	$0C
	.byte	$0C
	.byte	$0C
	.byte	$0C
	.byte	$0C
	.byte	$0C
	.byte	$0C
	.byte	$0C
	.byte	$0C
	.byte	$03
	.byte	$03
	.byte	$01
	.byte	$01
	.byte	$01
	.byte	$01
	.byte	$01
	.byte	$01
	.byte	$01
	.byte	$01
	.byte	$01
	.byte	$01
	.byte	$02
	.byte	$02
	.byte	$0C
	.byte	$0C
	.byte	$0C
	.byte	$0C
	.byte	$0C
	.byte	$0C
	.byte	$0C
	.byte	$0C
	.byte	$0C
	.byte	$0C
	.byte	$03
	.byte	$03
	.byte	$11
	.byte	$01
	.byte	$01
	.byte	$01
	.byte	$01
	.byte	$02
	.byte	$01
	.byte	$0C
	.byte	$02
	.byte	$0C
	.byte	$0C
	.byte	$0C
	.byte	$0C
	.byte	$0C
	.byte	$0C
	.byte	$0C
	.byte	$0C
	.byte	$0C
	.byte	$0C
	.byte	$03
	.byte	$0C
	.byte	$01
	.byte	$0C
	.byte	$01
	.byte	$03
	.byte	$01
	.byte	$01
	.byte	$02
	.byte	$01
	.byte	$22
	.byte	$02
	.byte	$00
	.byte	$00
	.byte	$22
	.byte	$00
	.byte	$0C
	.byte	$22
	.byte	$0C
	.byte	$0C
	.byte	$0C
	.byte	$0C
	.byte	$0C
	.byte	$0C
	.byte	$0C
	.byte	$03
	.byte	$03
	.byte	$11
	.byte	$01
	.byte	$01
	.byte	$02
	.byte	$01
	.byte	$2A
	.byte	$02
	.byte	$00
	.byte	$29
	.byte	$2A
	.byte	$00
	.byte	$28
	.byte	$29
	.byte	$00
	.byte	$00
	.byte	$00
	.byte	$29
	.byte	$22
	.byte	$00
	.byte	$0C
	.byte	$03
	.byte	$03
	.byte	$01
	.byte	$01
	.byte	$11
	.byte	$01
	.byte	$01
	.byte	$01
	.byte	$01
	.byte	$01
	.byte	$01
	.byte	$01
	.byte	$02
	.byte	$02
	.byte	$00
	.byte	$2A
	.byte	$00
	.byte	$00
	.byte	$29
	.byte	$00
	.byte	$23
	.byte	$28
	.byte	$0C
	.byte	$23
	.byte	$0C
	.byte	$03
	.byte	$0C
	.byte	$01
	.byte	$03
	.byte	$01
	.byte	$02
	.byte	$01
	.byte	$02
	.byte	$02
	.byte	$00
	.byte	$00
	.byte	$29
	.byte	$00
	.byte	$00
	.byte	$28
	.byte	$00
	.byte	$00
	.byte	$23
	.byte	$0C
	.byte	$0C
	.byte	$0C
	.byte	$0C
	.byte	$0C
	.byte	$03
	.byte	$03
	.byte	$01
	.byte	$01
	.byte	$01
	.byte	$11
	.byte	$01
	.byte	$01
	.byte	$02
	.byte	$02
	.byte	$29
	.byte	$00
	.byte	$00
	.byte	$00
	.byte	$00
	.byte	$00
	.byte	$23
	.byte	$0C
	.byte	$0C
	.byte	$0C
	.byte	$0C
	.byte	$0C
	.byte	$0C
	.byte	$0C
	.byte	$0C
	.byte	$03
	.byte	$03
	.byte	$11
	.byte	$01
	.byte	$01
	.byte	$01
	.byte	$01
	.byte	$01
	.byte	$01
	.byte	$02
	.byte	$02
	.byte	$00
	.byte	$00
	.byte	$00
	.byte	$22
	.byte	$00
	.byte	$0C
	.byte	$0C
	.byte	$0C
	.byte	$0C
	.byte	$0C
	.byte	$0C
	.byte	$0C
	.byte	$0C
	.byte	$0C
	.byte	$03
	.byte	$03
	.byte	$01
	.byte	$11
	.byte	$01
	.byte	$02
	.byte	$01
	.byte	$00
	.byte	$02
	.byte	$00
	.byte	$00
	.byte	$00
	.byte	$00
	.byte	$00
	.byte	$00
	.byte	$22
	.byte	$29
	.byte	$0C
	.byte	$0C
	.byte	$0C
	.byte	$0C
	.byte	$0C
	.byte	$0C
	.byte	$0C
	.byte	$0C
	.byte	$0C
	.byte	$0C
	.byte	$03
	.byte	$20
	.byte	$28
	.byte	$29
	.byte	$2A
	.byte	$00
	.byte	$00
	.byte	$29
	.byte	$2A
	.byte	$03
	.byte	$00
	.byte	$01
	.byte	$00
	.byte	$02
	.byte	$22
	.byte	$00
	.byte	$0C
	.byte	$22
	.byte	$0C
	.byte	$0C
	.byte	$0C
	.byte	$0C
	.byte	$20
	.byte	$21
	.byte	$2A
	.byte	$00
	.byte	$02
	.byte	$01
	.byte	$00
	.byte	$01
	.byte	$2A
	.byte	$02
	.byte	$28
	.byte	$29
	.byte	$00
	.byte	$00
	.byte	$24
	.byte	$03
	.byte	$2A
	.byte	$01
	.byte	$22
	.byte	$01
	.byte	$24
	.byte	$01
	.byte	$20
	.byte	$11
	.byte	$00
	.byte	$01
	.byte	$03
	.byte	$01
	.byte	$01
	.byte	$01
	.byte	$01
	.byte	$01
	.byte	$02
	.byte	$02
	.byte	$2A
	.byte	$00
	.byte	$00
	.byte	$00
	.byte	$03
	.byte	$03
	.byte	$01
	.byte	$01
	.byte	$01
	.byte	$11
	.byte	$01
	.byte	$01
	.byte	$01
	.byte	$11
	.byte	$01
	.byte	$01
	.byte	$01
	.byte	$01
	.byte	$01
	.byte	$01
	.byte	$01
	.byte	$01
	.byte	$02
	.byte	$02
	.byte	$00
	.byte	$00
	.byte	$2A
	.byte	$00
	.byte	$03
	.byte	$03
	.byte	$01
	.byte	$01
	.byte	$01
	.byte	$01
	.byte	$11
	.byte	$01
	.byte	$01
	.byte	$01
	.byte	$01
	.byte	$11
	.byte	$01
	.byte	$01
	.byte	$01
	.byte	$01
	.byte	$01
	.byte	$02
	.byte	$02
	.byte	$00
	.byte	$2A
	.byte	$00
	.byte	$28
	.byte	$29
	.byte	$2A
	.byte	$00
	.byte	$03
	.byte	$22
	.byte	$01
	.byte	$0C
	.byte	$01
	.byte	$0C
	.byte	$11
	.byte	$0C
	.byte	$01
	.byte	$0C
	.byte	$01
	.byte	$0C
	.byte	$01
	.byte	$01
	.byte	$02
	.byte	$02
	.byte	$00
	.byte	$00
	.byte	$00
	.byte	$00
	.byte	$00
	.byte	$00
	.byte	$28
	.byte	$29
	.byte	$00
	.byte	$23
	.byte	$22
	.byte	$03
	.byte	$0C
	.byte	$01
	.byte	$0C
	.byte	$01
	.byte	$0C
	.byte	$01
	.byte	$0C
	.byte	$01
	.byte	$01
	.byte	$01
	.byte	$02
	.byte	$02
	.byte	$00
	.byte	$00
	.byte	$2A
	.byte	$00
	.byte	$28
	.byte	$00
	.byte	$00
	.byte	$23
	.byte	$0C
	.byte	$0C
	.byte	$0C
	.byte	$0C
	.byte	$03
	.byte	$03
	.byte	$11
	.byte	$01
	.byte	$01
	.byte	$11
	.byte	$01
	.byte	$01
	.byte	$02
	.byte	$02
	.byte	$00
	.byte	$00
	.byte	$2A
	.byte	$00
	.byte	$00
	.byte	$29
	.byte	$23
	.byte	$22
	.byte	$0C
	.byte	$0C
	.byte	$0C
	.byte	$0C
	.byte	$0C
	.byte	$0C
	.byte	$03
	.byte	$03
	.byte	$01
	.byte	$11
	.byte	$01
	.byte	$01
	.byte	$01
	.byte	$01
	.byte	$02
	.byte	$02
	.byte	$00
	.byte	$00
	.byte	$00
	.byte	$00
	.byte	$2A
	.byte	$00
	.byte	$00
	.byte	$29
	.byte	$0C
	.byte	$22
	.byte	$0C
	.byte	$0C
	.byte	$0C
	.byte	$0C
	.byte	$03
	.byte	$03
	.byte	$01
	.byte	$01
	.byte	$01
	.byte	$11
	.byte	$01
	.byte	$01
	.byte	$02
	.byte	$01
	.byte	$00
	.byte	$01
	.byte	$2A
	.byte	$01
	.byte	$00
	.byte	$01
	.byte	$00
	.byte	$01
	.byte	$00
	.byte	$01
	.byte	$0C
	.byte	$01
	.byte	$0C
	.byte	$01
	.byte	$03
	.byte	$01
	.byte	$01
	.byte	$01
	.byte	$01
	.byte	$01
	.byte	$01
	.byte	$11
	.byte	$00
	.byte	$01
	.byte	$00
	.byte	$00
	.byte	$28
	.byte	$29
	.byte	$2A
	.byte	$00
	.byte	$28
	.byte	$00
	.byte	$00
	.byte	$00
	.byte	$00
	.byte	$00
	.byte	$00
	.byte	$00
	.byte	$00
	.byte	$29
	.byte	$2A
	.byte	$00
	.byte	$28
	.byte	$29
	.byte	$01
	.byte	$01
	.byte	$01
	.byte	$00
	.byte	$01
	.byte	$24
	.byte	$01
	.byte	$00
	.byte	$01
	.byte	$24
	.byte	$01
	.byte	$00
	.byte	$01
	.byte	$24
	.byte	$01
	.byte	$00
	.byte	$01
	.byte	$24
	.byte	$01
	.byte	$00
	.byte	$01
	.byte	$24
	.byte	$01
	.byte	$00
	.byte	$01
	.byte	$24
	.byte	$28
	.byte	$01
	.byte	$24
	.byte	$01
	.byte	$00
	.byte	$01
	.byte	$24
	.byte	$01
	.byte	$28
	.byte	$01
	.byte	$24
	.byte	$01
	.byte	$28
	.byte	$01
	.byte	$24
	.byte	$01
	.byte	$00
	.byte	$01
	.byte	$24
	.byte	$01
	.byte	$28
	.byte	$01
	.byte	$24
	.byte	$01
	.byte	$02
	.byte	$02
	.byte	$00
	.byte	$00
	.byte	$2A
	.byte	$00
	.byte	$28
	.byte	$29
	.byte	$00
	.byte	$00
	.byte	$00
	.byte	$29
	.byte	$00
	.byte	$00
	.byte	$00
	.byte	$00
	.byte	$00
	.byte	$00
	.byte	$28
	.byte	$29
	.byte	$0E
	.byte	$0F
	.byte	$03
	.byte	$03
	.byte	$02
	.byte	$02
	.byte	$00
	.byte	$00
	.byte	$28
	.byte	$00
	.byte	$2A
	.byte	$00
	.byte	$28
	.byte	$00
	.byte	$00
	.byte	$00
	.byte	$28
	.byte	$29
	.byte	$2A
	.byte	$00
	.byte	$00
	.byte	$00
	.byte	$2A
	.byte	$00
	.byte	$0D
	.byte	$0E
	.byte	$1F
	.byte	$03
	.byte	$02
	.byte	$02
	.byte	$00
	.byte	$00
	.byte	$2A
	.byte	$00
	.byte	$28
	.byte	$00
	.byte	$00
	.byte	$05
	.byte	$00
	.byte	$06
	.byte	$2A
	.byte	$06
	.byte	$00
	.byte	$06
	.byte	$00
	.byte	$06
	.byte	$00
	.byte	$06
	.byte	$0F
	.byte	$07
	.byte	$03
	.byte	$03
	.byte	$02
	.byte	$00
	.byte	$2A
	.byte	$00
	.byte	$28
	.byte	$29
	.byte	$00
	.byte	$00
	.byte	$04
	.byte	$29
	.byte	$00
	.byte	$00
	.byte	$28
	.byte	$00
	.byte	$00
	.byte	$00
	.byte	$00
	.byte	$00
	.byte	$2A
	.byte	$00
	.byte	$00
	.byte	$00
	.byte	$03
	.byte	$03
	.byte	$00
	.byte	$02
	.byte	$00
	.byte	$29
	.byte	$00
	.byte	$00
	.byte	$00
	.byte	$00
	.byte	$2A
	.byte	$00
	.byte	$28
	.byte	$00
	.byte	$2A
	.byte	$00
	.byte	$00
	.byte	$29
	.byte	$2A
	.byte	$00
	.byte	$28
	.byte	$00
	.byte	$00
	.byte	$00
	.byte	$03
	.byte	$03
	.byte	$02
	.byte	$01
	.byte	$2A
	.byte	$02
	.byte	$28
	.byte	$29
	.byte	$2A
	.byte	$00
	.byte	$00
	.byte	$00
	.byte	$00
	.byte	$00
	.byte	$00
	.byte	$29
	.byte	$00
	.byte	$00
	.byte	$28
	.byte	$29
	.byte	$2A
	.byte	$00
	.byte	$00
	.byte	$29
	.byte	$03
	.byte	$03
	.byte	$01
	.byte	$01
	.byte	$01
	.byte	$01
	.byte	$02
	.byte	$02
	.byte	$00
	.byte	$00
	.byte	$00
	.byte	$00
	.byte	$28
	.byte	$29
	.byte	$00
	.byte	$00
	.byte	$00
	.byte	$00
	.byte	$2A
	.byte	$00
	.byte	$28
	.byte	$00
	.byte	$00
	.byte	$00
	.byte	$03
	.byte	$29
	.byte	$01
	.byte	$01
	.byte	$01
	.byte	$01
	.byte	$01
	.byte	$01
	.byte	$02
	.byte	$01
	.byte	$28
	.byte	$02
	.byte	$2A
	.byte	$00
	.byte	$28
	.byte	$29
	.byte	$2A
	.byte	$00
	.byte	$28
	.byte	$29
	.byte	$2A
	.byte	$04
	.byte	$28
	.byte	$29
	.byte	$00
	.byte	$00
	.byte	$01
	.byte	$01
	.byte	$01
	.byte	$01
	.byte	$01
	.byte	$02
	.byte	$02
	.byte	$29
	.byte	$2A
	.byte	$00
	.byte	$00
	.byte	$00
	.byte	$00
	.byte	$00
	.byte	$00
	.byte	$00
	.byte	$00
	.byte	$00
	.byte	$28
	.byte	$29
	.byte	$00
	.byte	$00
	.byte	$28
	.byte	$00
	.byte	$01
	.byte	$01
	.byte	$02
	.byte	$02
	.byte	$00
	.byte	$29
	.byte	$2A
	.byte	$00
	.byte	$00
	.byte	$00
	.byte	$00
	.byte	$00
	.byte	$28
	.byte	$29
	.byte	$2A
	.byte	$00
	.byte	$00
	.byte	$04
	.byte	$2A
	.byte	$00
	.byte	$28
	.byte	$00
	.byte	$2A
	.byte	$00
	.byte	$01
	.byte	$01
	.byte	$01
	.byte	$01
	.byte	$02
	.byte	$01
	.byte	$00
	.byte	$02
	.byte	$2A
	.byte	$00
	.byte	$28
	.byte	$00
	.byte	$00
	.byte	$00
	.byte	$00
	.byte	$00
	.byte	$00
	.byte	$00
	.byte	$28
	.byte	$00
	.byte	$2A
	.byte	$00
	.byte	$28
	.byte	$29
	.byte	$01
	.byte	$01
	.byte	$01
	.byte	$01
	.byte	$01
	.byte	$01
	.byte	$02
	.byte	$02
	.byte	$00
	.byte	$00
	.byte	$00
	.byte	$00
	.byte	$00
	.byte	$00
	.byte	$00
	.byte	$00
	.byte	$00
	.byte	$00
	.byte	$2A
	.byte	$04
	.byte	$28
	.byte	$29
	.byte	$2A
	.byte	$00
	.byte	$01
	.byte	$01
	.byte	$01
	.byte	$01
	.byte	$01
	.byte	$01
	.byte	$01
	.byte	$02
	.byte	$02
	.byte	$00
	.byte	$00
	.byte	$29
	.byte	$00
	.byte	$00
	.byte	$00
	.byte	$29
	.byte	$2A
	.byte	$00
	.byte	$28
	.byte	$29
	.byte	$00
	.byte	$00
	.byte	$00
	.byte	$00
	.byte	$01
	.byte	$01
	.byte	$01
	.byte	$01
	.byte	$01
	.byte	$01
	.byte	$02
	.byte	$02
	.byte	$28
	.byte	$29
	.byte	$2A
	.byte	$00
	.byte	$28
	.byte	$00
	.byte	$2A
	.byte	$00
	.byte	$28
	.byte	$00
	.byte	$2A
	.byte	$00
	.byte	$28
	.byte	$29
	.byte	$00
	.byte	$00
	.byte	$01
	.byte	$01
	.byte	$01
	.byte	$02
	.byte	$02
	.byte	$00
	.byte	$00
	.byte	$00
	.byte	$00
	.byte	$00
	.byte	$00
	.byte	$29
	.byte	$00
	.byte	$00
	.byte	$00
	.byte	$00
	.byte	$00
	.byte	$00
	.byte	$04
	.byte	$29
	.byte	$00
	.byte	$00
	.byte	$00
	.byte	$29
	.byte	$01
	.byte	$01
	.byte	$01
	.byte	$01
	.byte	$02
	.byte	$01
	.byte	$00
	.byte	$02
	.byte	$00
	.byte	$00
	.byte	$00
	.byte	$00
	.byte	$00
	.byte	$29
	.byte	$2A
	.byte	$00
	.byte	$28
	.byte	$29
	.byte	$2A
	.byte	$00
	.byte	$00
	.byte	$29
	.byte	$00
	.byte	$00
	.byte	$00
	.byte	$00
	.byte	$28
	.byte	$29
	.byte	$00
	.byte	$00
	.byte	$24
	.byte	$24
	.byte	$2A
	.byte	$00
	.byte	$00
	.byte	$29
	.byte	$2A
	.byte	$00
	.byte	$00
	.byte	$00
	.byte	$04
	.byte	$00
	.byte	$28
	.byte	$00
	.byte	$2A
	.byte	$00
	.byte	$00
	.byte	$00
	.byte	$28
	.byte	$29
	.byte	$2A
	.byte	$00
	.byte	$28
	.byte	$29
	.byte	$24
	.byte	$24
	.byte	$00
	.byte	$29
	.byte	$00
	.byte	$00
	.byte	$28
	.byte	$29
	.byte	$00
	.byte	$00
	.byte	$00
	.byte	$29
	.byte	$00
	.byte	$00
	.byte	$00
	.byte	$00
	.byte	$2A
	.byte	$00
	.byte	$02
	.byte	$01
	.byte	$00
	.byte	$02
	.byte	$2A
	.byte	$00
	.byte	$24
	.byte	$00
	.byte	$00
	.byte	$00
	.byte	$00
	.byte	$00
	.byte	$00
	.byte	$00
	.byte	$28
	.byte	$29
	.byte	$00
	.byte	$00
	.byte	$04
	.byte	$29
	.byte	$2A
	.byte	$00
	.byte	$00
	.byte	$29
	.byte	$01
	.byte	$01
	.byte	$02
	.byte	$02
	.byte	$00
	.byte	$00
	.byte	$00
	.byte	$00
	.byte	$28
	.byte	$00
	.byte	$2A
	.byte	$00
	.byte	$28
	.byte	$29
	.byte	$2A
	.byte	$00
	.byte	$00
	.byte	$29
	.byte	$00
	.byte	$00
	.byte	$00
	.byte	$00
	.byte	$2A
	.byte	$00
	.byte	$01
	.byte	$01
	.byte	$01
	.byte	$01
	.byte	$02
	.byte	$02
	.byte	$00
	.byte	$00
	.byte	$2A
	.byte	$00
	.byte	$28
	.byte	$00
	.byte	$00
	.byte	$00
	.byte	$28
	.byte	$00
	.byte	$04
	.byte	$00
	.byte	$00
	.byte	$00
	.byte	$00
	.byte	$00
	.byte	$00
	.byte	$29
	.byte	$01
	.byte	$01
	.byte	$01
	.byte	$01
	.byte	$02
	.byte	$01
	.byte	$2A
	.byte	$02
	.byte	$00
	.byte	$29
	.byte	$00
	.byte	$00
	.byte	$00
	.byte	$29
	.byte	$2A
	.byte	$00
	.byte	$00
	.byte	$00
	.byte	$00
	.byte	$00
	.byte	$28
	.byte	$00
	.byte	$2A
	.byte	$00
	.byte	$01
	.byte	$01
	.byte	$01
	.byte	$01
	.byte	$01
	.byte	$01
	.byte	$01
	.byte	$02
	.byte	$02
	.byte	$00
	.byte	$28
	.byte	$00
	.byte	$2A
	.byte	$00
	.byte	$00
	.byte	$29
	.byte	$00
	.byte	$00
	.byte	$04
	.byte	$00
	.byte	$2A
	.byte	$00
	.byte	$28
	.byte	$00
	.byte	$01
	.byte	$01
	.byte	$01
	.byte	$02
	.byte	$02
	.byte	$00
	.byte	$2A
	.byte	$00
	.byte	$00
	.byte	$00
	.byte	$2A
	.byte	$00
	.byte	$28
	.byte	$00
	.byte	$00
	.byte	$00
	.byte	$00
	.byte	$00
	.byte	$2A
	.byte	$00
	.byte	$00
	.byte	$29
	.byte	$2A
	.byte	$00
	.byte	$01
	.byte	$01
	.byte	$02
	.byte	$02
	.byte	$2A
	.byte	$00
	.byte	$28
	.byte	$29
	.byte	$00
	.byte	$00
	.byte	$00
	.byte	$00
	.byte	$00
	.byte	$00
	.byte	$28
	.byte	$00
	.byte	$2A
	.byte	$00
	.byte	$00
	.byte	$00
	.byte	$00
	.byte	$04
	.byte	$28
	.byte	$00
	.byte	$01
	.byte	$01
	.byte	$02
	.byte	$01
	.byte	$28
	.byte	$02
	.byte	$00
	.byte	$00
	.byte	$28
	.byte	$29
	.byte	$00
	.byte	$00
	.byte	$00
	.byte	$00
	.byte	$00
	.byte	$00
	.byte	$28
	.byte	$00
	.byte	$2A
	.byte	$00
	.byte	$28
	.byte	$29
	.byte	$00
	.byte	$00
	.byte	$01
	.byte	$01
	.byte	$01
	.byte	$01
	.byte	$01
	.byte	$01
	.byte	$02
	.byte	$01
	.byte	$00
	.byte	$02
	.byte	$00
	.byte	$00
	.byte	$00
	.byte	$00
	.byte	$28
	.byte	$00
	.byte	$00
	.byte	$00
	.byte	$28
	.byte	$00
	.byte	$00
	.byte	$00
	.byte	$28
	.byte	$03
	.byte	$01
	.byte	$01
	.byte	$01
	.byte	$01
	.byte	$01
	.byte	$01
	.byte	$01
	.byte	$01
	.byte	$02
	.byte	$01
	.byte	$00
	.byte	$02
	.byte	$00
	.byte	$29
	.byte	$2A
	.byte	$00
	.byte	$28
	.byte	$00
	.byte	$00
	.byte	$00
	.byte	$28
	.byte	$29
	.byte	$03
	.byte	$03
	.byte	$01
	.byte	$01
	.byte	$01
	.byte	$01
	.byte	$01
	.byte	$01
	.byte	$01
	.byte	$01
	.byte	$01
	.byte	$01
	.byte	$02
	.byte	$02
	.byte	$2A
	.byte	$00
	.byte	$28
	.byte	$00
	.byte	$2A
	.byte	$00
	.byte	$28
	.byte	$29
	.byte	$00
	.byte	$00
	.byte	$03
	.byte	$03
	.byte	$01
	.byte	$01
	.byte	$01
	.byte	$01
	.byte	$01
	.byte	$01
	.byte	$01
	.byte	$01
	.byte	$01
	.byte	$02
	.byte	$02
	.byte	$00
	.byte	$28
	.byte	$00
	.byte	$2A
	.byte	$00
	.byte	$00
	.byte	$00
	.byte	$00
	.byte	$00
	.byte	$00
	.byte	$00
	.byte	$03
	.byte	$03
	.byte	$00
	.byte	$00
	.byte	$00
	.byte	$00
	.byte	$00
	.byte	$00
	.byte	$00
	.byte	$00
	.byte	$00
	.byte	$00
	.byte	$00
	.byte	$29
	.byte	$00
	.byte	$00
	.byte	$28
	.byte	$00
	.byte	$00
	.byte	$00
	.byte	$28
	.byte	$29
	.byte	$2A
	.byte	$00
	.byte	$03
	.byte	$03
	.byte	$28
	.byte	$00
	.byte	$2A
	.byte	$00
	.byte	$00
	.byte	$00
	.byte	$2A
	.byte	$00
	.byte	$28
	.byte	$00
	.byte	$00
	.byte	$00
	.byte	$00
	.byte	$29
	.byte	$2A
	.byte	$00
	.byte	$28
	.byte	$29
	.byte	$00
	.byte	$00
	.byte	$28
	.byte	$29
	.byte	$03
	.byte	$03
	.byte	$00
	.byte	$00
	.byte	$00
	.byte	$29
	.byte	$23
	.byte	$0C
	.byte	$00
	.byte	$23
	.byte	$00
	.byte	$0C
	.byte	$00
	.byte	$29
	.byte	$00
	.byte	$00
	.byte	$00
	.byte	$29
	.byte	$00
	.byte	$00
	.byte	$00
	.byte	$29
	.byte	$00
	.byte	$00
	.byte	$03
	.byte	$03
	.byte	$28
	.byte	$29
	.byte	$23
	.byte	$0C
	.byte	$0C
	.byte	$0C
	.byte	$0C
	.byte	$0C
	.byte	$0C
	.byte	$0C
	.byte	$21
	.byte	$0C
	.byte	$00
	.byte	$00
	.byte	$00
	.byte	$00
	.byte	$00
	.byte	$29
	.byte	$2A
	.byte	$00
	.byte	$00
	.byte	$00
	.byte	$03
	.byte	$03
	.byte	$23
	.byte	$0C
	.byte	$0C
	.byte	$0C
	.byte	$0C
	.byte	$0C
	.byte	$0C
	.byte	$0C
	.byte	$0C
	.byte	$0C
	.byte	$0C
	.byte	$0C
	.byte	$00
	.byte	$21
	.byte	$00
	.byte	$29
	.byte	$2A
	.byte	$00
	.byte	$00
	.byte	$00
	.byte	$03
	.byte	$03
	.byte	$01
	.byte	$01
	.byte	$0C
	.byte	$0C
	.byte	$0C
	.byte	$0C
	.byte	$0C
	.byte	$0C
	.byte	$0C
	.byte	$0C
	.byte	$0C
	.byte	$0C
	.byte	$0C
	.byte	$0C
	.byte	$00
	.byte	$29
	.byte	$2A
	.byte	$00
	.byte	$28
	.byte	$00
	.byte	$00
	.byte	$03
	.byte	$03
	.byte	$01
	.byte	$01
	.byte	$01
	.byte	$0C
	.byte	$01
	.byte	$0C
	.byte	$01
	.byte	$0C
	.byte	$01
	.byte	$0C
	.byte	$01
	.byte	$0C
	.byte	$01
	.byte	$0C
	.byte	$01
	.byte	$20
	.byte	$01
	.byte	$28
	.byte	$01
	.byte	$03
	.byte	$01
	.byte	$01
	.byte	$01
	.byte	$01
	.byte	$08
	.byte	$01
	.byte	$08
	.byte	$08
	.byte	$2C
	.byte	$09
	.byte	$2C
	.byte	$09
	.byte	$2C
	.byte	$08
	.byte	$2C
	.byte	$08
	.byte	$2C
	.byte	$09
	.byte	$2C
	.byte	$09
	.byte	$2C
	.byte	$08
	.byte	$2C
	.byte	$08
	.byte	$2C
	.byte	$09
	.byte	$2C
	.byte	$08
	.byte	$2C
	.byte	$08
	.byte	$2C
	.byte	$2C
	.byte	$2C
	.byte	$2C
	.byte	$2C
	.byte	$2C
	.byte	$2C
	.byte	$2C
	.byte	$2C
	.byte	$2C
	.byte	$2C
	.byte	$2C
	.byte	$2C
	.byte	$2C
	.byte	$2C
	.byte	$2C
	.byte	$2C
	.byte	$09
	.byte	$2C
	.byte	$09
	.byte	$10
	.byte	$09
	.byte	$10
	.byte	$08
	.byte	$25
	.byte	$09
	.byte	$09
	.byte	$2C
	.byte	$2C
	.byte	$2C
	.byte	$2C
	.byte	$2C
	.byte	$2D
	.byte	$2C
	.byte	$2C
	.byte	$2C
	.byte	$2C
	.byte	$2C
	.byte	$2C
	.byte	$2C
	.byte	$2C
	.byte	$2C
	.byte	$2C
	.byte	$10
	.byte	$10
	.byte	$10
	.byte	$10
	.byte	$08
	.byte	$08
	.byte	$09
	.byte	$09
	.byte	$2C
	.byte	$2C
	.byte	$2C
	.byte	$2C
	.byte	$2C
	.byte	$2C
	.byte	$2C
	.byte	$2C
	.byte	$2C
	.byte	$2C
	.byte	$2C
	.byte	$2C
	.byte	$2C
	.byte	$2C
	.byte	$2C
	.byte	$2D
	.byte	$10
	.byte	$10
	.byte	$10
	.byte	$10
	.byte	$08
	.byte	$25
	.byte	$09
	.byte	$09
	.byte	$2C
	.byte	$2C
	.byte	$2C
	.byte	$2C
	.byte	$2C
	.byte	$2C
	.byte	$2C
	.byte	$2C
	.byte	$2C
	.byte	$2C
	.byte	$2C
	.byte	$2C
	.byte	$2C
	.byte	$2C
	.byte	$2C
	.byte	$2C
	.byte	$10
	.byte	$10
	.byte	$10
	.byte	$10
	.byte	$08
	.byte	$08
	.byte	$09
	.byte	$09
	.byte	$2C
	.byte	$2C
	.byte	$2C
	.byte	$2C
	.byte	$2C
	.byte	$2C
	.byte	$2C
	.byte	$2C
	.byte	$2C
	.byte	$2C
	.byte	$2C
	.byte	$2C
	.byte	$2C
	.byte	$2C
	.byte	$2C
	.byte	$2C
	.byte	$10
	.byte	$10
	.byte	$10
	.byte	$10
	.byte	$25
	.byte	$08
	.byte	$09
	.byte	$09
	.byte	$2C
	.byte	$2C
	.byte	$2C
	.byte	$2C
	.byte	$2C
	.byte	$2C
	.byte	$2C
	.byte	$2C
	.byte	$2C
	.byte	$2C
	.byte	$2C
	.byte	$2C
	.byte	$2D
	.byte	$2C
	.byte	$2C
	.byte	$2C
	.byte	$10
	.byte	$10
	.byte	$10
	.byte	$10
	.byte	$08
	.byte	$25
	.byte	$09
	.byte	$09
	.byte	$2C
	.byte	$09
	.byte	$2C
	.byte	$08
	.byte	$2C
	.byte	$08
	.byte	$2C
	.byte	$09
	.byte	$2C
	.byte	$08
	.byte	$2C
	.byte	$09
	.byte	$2C
	.byte	$09
	.byte	$2C
	.byte	$08
	.byte	$10
	.byte	$09
	.byte	$10
	.byte	$08
	.byte	$08
	.byte	$08
	.byte	$08
	.byte	$08
	.byte	$08
	.byte	$2C
	.byte	$08
	.byte	$2C
	.byte	$08
	.byte	$2C
	.byte	$08
	.byte	$2C
	.byte	$08
	.byte	$2C
	.byte	$08
	.byte	$2C
	.byte	$08
	.byte	$2C
	.byte	$08
	.byte	$2C
	.byte	$08
	.byte	$2C
	.byte	$08
	.byte	$2C
	.byte	$08
	.byte	$08
	.byte	$08
	.byte	$08
	.byte	$2C
	.byte	$05
	.byte	$2C
	.byte	$06
	.byte	$2C
	.byte	$06
	.byte	$2C
	.byte	$06
	.byte	$2C
	.byte	$06
	.byte	$2C
	.byte	$06
	.byte	$2C
	.byte	$06
	.byte	$2C
	.byte	$06
	.byte	$2C
	.byte	$06
	.byte	$2C
	.byte	$07
	.byte	$25
	.byte	$08
	.byte	$08
	.byte	$2C
	.byte	$2D
	.byte	$2C
	.byte	$2C
	.byte	$2C
	.byte	$2C
	.byte	$2C
	.byte	$2C
	.byte	$2C
	.byte	$2C
	.byte	$2C
	.byte	$2C
	.byte	$2C
	.byte	$2C
	.byte	$2C
	.byte	$2C
	.byte	$2C
	.byte	$2C
	.byte	$2C
	.byte	$2C
	.byte	$2C
	.byte	$2C
	.byte	$2C
	.byte	$2C
	.byte	$2C
	.byte	$2C
	.byte	$2C
	.byte	$2C
	.byte	$2C
	.byte	$2C
	.byte	$2C
	.byte	$2C
	.byte	$2C
	.byte	$2C
	.byte	$2C
	.byte	$2C
	.byte	$2C
	.byte	$2C
	.byte	$2C
	.byte	$2C
	.byte	$2C
	.byte	$13
	.byte	$2C
	.byte	$07
	.byte	$2C
	.byte	$08
	.byte	$08
	.byte	$08
	.byte	$08
	.byte	$2C
	.byte	$2C
	.byte	$2C
	.byte	$2C
	.byte	$2C
	.byte	$2C
	.byte	$2C
	.byte	$13
	.byte	$2C
	.byte	$06
	.byte	$2C
	.byte	$06
	.byte	$2C
	.byte	$06
	.byte	$2C
	.byte	$06
	.byte	$2C
	.byte	$06
	.byte	$2C
	.byte	$07
	.byte	$08
	.byte	$08
	.byte	$08
	.byte	$08
	.byte	$2C
	.byte	$2C
	.byte	$2C
	.byte	$2C
	.byte	$2C
	.byte	$2C
	.byte	$2C
	.byte	$2C
	.byte	$2C
	.byte	$2C
	.byte	$2C
	.byte	$2C
	.byte	$2C
	.byte	$2C
	.byte	$2C
	.byte	$2C
	.byte	$2C
	.byte	$2C
	.byte	$2C
	.byte	$2C
	.byte	$24
	.byte	$24
	.byte	$08
	.byte	$08
	.byte	$05
	.byte	$2C
	.byte	$06
	.byte	$2C
	.byte	$06
	.byte	$2C
	.byte	$06
	.byte	$2C
	.byte	$14
	.byte	$2C
	.byte	$2C
	.byte	$2C
	.byte	$2C
	.byte	$2C
	.byte	$2C
	.byte	$2C
	.byte	$13
	.byte	$2C
	.byte	$07
	.byte	$2C
	.byte	$08
	.byte	$08
	.byte	$08
	.byte	$08
	.byte	$2C
	.byte	$09
	.byte	$2C
	.byte	$08
	.byte	$2C
	.byte	$08
	.byte	$2C
	.byte	$09
	.byte	$2C
	.byte	$09
	.byte	$2C
	.byte	$09
	.byte	$2E
	.byte	$09
	.byte	$2C
	.byte	$08
	.byte	$2C
	.byte	$2C
	.byte	$08
	.byte	$08
	.byte	$08
	.byte	$08
	.byte	$08
	.byte	$2C
	.byte	$09
	.byte	$2C
	.byte	$08
	.byte	$2C
	.byte	$09
	.byte	$2C
	.byte	$08
	.byte	$2C
	.byte	$09
	.byte	$2C
	.byte	$09
	.byte	$2C
	.byte	$08
	.byte	$2F
	.byte	$08
	.byte	$08
	.byte	$2C
	.byte	$2C
	.byte	$08
	.byte	$2C
	.byte	$08
	.byte	$10
	.byte	$2C
	.byte	$2C
	.byte	$2C
	.byte	$2C
	.byte	$2C
	.byte	$2C
	.byte	$2C
	.byte	$2C
	.byte	$2C
	.byte	$2C
	.byte	$2C
	.byte	$2C
	.byte	$2C
	.byte	$2C
	.byte	$2C
	.byte	$2C
	.byte	$08
	.byte	$25
	.byte	$2C
	.byte	$2C
	.byte	$2C
	.byte	$2C
	.byte	$10
	.byte	$08
	.byte	$06
	.byte	$2C
	.byte	$06
	.byte	$2C
	.byte	$06
	.byte	$2C
	.byte	$06
	.byte	$2D
	.byte	$06
	.byte	$2C
	.byte	$06
	.byte	$2C
	.byte	$06
	.byte	$2C
	.byte	$07
	.byte	$2C
	.byte	$08
	.byte	$08
	.byte	$2C
	.byte	$2C
	.byte	$2C
	.byte	$2C
	.byte	$10
	.byte	$10
	.byte	$2C
	.byte	$2C
	.byte	$2C
	.byte	$2C
	.byte	$2C
	.byte	$2C
	.byte	$2C
	.byte	$2C
	.byte	$2C
	.byte	$2C
	.byte	$2C
	.byte	$2C
	.byte	$2C
	.byte	$2D
	.byte	$2C
	.byte	$2C
	.byte	$08
	.byte	$25
	.byte	$2C
	.byte	$2E
	.byte	$2C
	.byte	$2C
	.byte	$03
	.byte	$1F
	.byte	$06
	.byte	$2C
	.byte	$06
	.byte	$2C
	.byte	$06
	.byte	$2C
	.byte	$06
	.byte	$2C
	.byte	$06
	.byte	$2C
	.byte	$06
	.byte	$2C
	.byte	$06
	.byte	$2C
	.byte	$07
	.byte	$2C
	.byte	$08
	.byte	$08
	.byte	$2C
	.byte	$2C
	.byte	$2C
	.byte	$2C
	.byte	$03
	.byte	$10
	.byte	$2C
	.byte	$2C
	.byte	$2C
	.byte	$2D
	.byte	$2C
	.byte	$2C
	.byte	$2C
	.byte	$2C
	.byte	$2C
	.byte	$2C
	.byte	$2C
	.byte	$2C
	.byte	$2C
	.byte	$2C
	.byte	$2C
	.byte	$2F
	.byte	$25
	.byte	$08
	.byte	$2C
	.byte	$2C
	.byte	$2C
	.byte	$2C
	.byte	$10
	.byte	$10
	.byte	$06
	.byte	$2C
	.byte	$06
	.byte	$2C
	.byte	$06
	.byte	$2C
	.byte	$06
	.byte	$2C
	.byte	$06
	.byte	$2C
	.byte	$06
	.byte	$2C
	.byte	$06
	.byte	$2C
	.byte	$07
	.byte	$2C
	.byte	$25
	.byte	$08
	.byte	$2C
	.byte	$2C
	.byte	$2C
	.byte	$2C
	.byte	$10
	.byte	$10
	.byte	$2C
	.byte	$08
	.byte	$2C
	.byte	$08
	.byte	$2C
	.byte	$08
	.byte	$2C
	.byte	$08
	.byte	$2C
	.byte	$08
	.byte	$2C
	.byte	$08
	.byte	$2C
	.byte	$08
	.byte	$2C
	.byte	$08
	.byte	$08
	.byte	$08
	.byte	$2C
	.byte	$08
	.byte	$25
	.byte	$08
	.byte	$08
	.byte	$25
	.byte	$09
	.byte	$25
	.byte	$09
	.byte	$2C
	.byte	$09
	.byte	$2C
	.byte	$09
	.byte	$2C
	.byte	$09
	.byte	$08
	.byte	$25
	.byte	$2C
	.byte	$09
	.byte	$2C
	.byte	$09
	.byte	$2C
	.byte	$25
	.byte	$2C
	.byte	$09
	.byte	$2C
	.byte	$09
	.byte	$08
	.byte	$08
	.byte	$08
	.byte	$09
	.byte	$09
	.byte	$2C
	.byte	$2C
	.byte	$2C
	.byte	$2C
	.byte	$2C
	.byte	$13
	.byte	$2C
	.byte	$07
	.byte	$2C
	.byte	$09
	.byte	$2C
	.byte	$08
	.byte	$08
	.byte	$2C
	.byte	$2C
	.byte	$2C
	.byte	$2C
	.byte	$2C
	.byte	$2C
	.byte	$2C
	.byte	$08
	.byte	$25
	.byte	$09
	.byte	$09
	.byte	$2C
	.byte	$2C
	.byte	$2C
	.byte	$2C
	.byte	$2C
	.byte	$2C
	.byte	$2C
	.byte	$2F
	.byte	$09
	.byte	$09
	.byte	$2C
	.byte	$08
	.byte	$2C
	.byte	$2C
	.byte	$2C
	.byte	$2C
	.byte	$2C
	.byte	$2C
	.byte	$2C
	.byte	$08
	.byte	$08
	.byte	$08
	.byte	$09
	.byte	$09
	.byte	$2C
	.byte	$2C
	.byte	$2C
	.byte	$2C
	.byte	$2C
	.byte	$2C
	.byte	$2C
	.byte	$2C
	.byte	$09
	.byte	$09
	.byte	$2C
	.byte	$2C
	.byte	$2C
	.byte	$2C
	.byte	$2C
	.byte	$2D
	.byte	$2C
	.byte	$2C
	.byte	$2C
	.byte	$2C
	.byte	$08
	.byte	$08
	.byte	$25
	.byte	$09
	.byte	$2C
	.byte	$2C
	.byte	$2C
	.byte	$2C
	.byte	$2C
	.byte	$2C
	.byte	$2C
	.byte	$2C
	.byte	$09
	.byte	$25
	.byte	$2C
	.byte	$2C
	.byte	$2C
	.byte	$2C
	.byte	$2C
	.byte	$2C
	.byte	$2D
	.byte	$2C
	.byte	$2C
	.byte	$2C
	.byte	$08
	.byte	$08
	.byte	$09
	.byte	$09
	.byte	$2C
	.byte	$2C
	.byte	$2C
	.byte	$2C
	.byte	$2C
	.byte	$2C
	.byte	$2C
	.byte	$2F
	.byte	$09
	.byte	$09
	.byte	$2C
	.byte	$08
	.byte	$2C
	.byte	$2C
	.byte	$2C
	.byte	$2C
	.byte	$2C
	.byte	$2C
	.byte	$2C
	.byte	$08
	.byte	$08
	.byte	$25
	.byte	$09
	.byte	$09
	.byte	$2C
	.byte	$2C
	.byte	$2C
	.byte	$2C
	.byte	$2C
	.byte	$13
	.byte	$2C
	.byte	$07
	.byte	$09
	.byte	$09
	.byte	$2C
	.byte	$2C
	.byte	$2C
	.byte	$2C
	.byte	$2C
	.byte	$2C
	.byte	$2C
	.byte	$2C
	.byte	$2C
	.byte	$2C
	.byte	$08
	.byte	$08
	.byte	$09
	.byte	$09
	.byte	$2C
	.byte	$2C
	.byte	$2C
	.byte	$2C
	.byte	$2C
	.byte	$2C
	.byte	$2C
	.byte	$2C
	.byte	$09
	.byte	$09
	.byte	$2C
	.byte	$2C
	.byte	$2C
	.byte	$2C
	.byte	$2C
	.byte	$2C
	.byte	$2C
	.byte	$2C
	.byte	$2F
	.byte	$2C
	.byte	$08
	.byte	$08
	.byte	$09
	.byte	$09
	.byte	$2C
	.byte	$00
	.byte	$2C
	.byte	$2C
	.byte	$2C
	.byte	$05
	.byte	$2C
	.byte	$07
	.byte	$09
	.byte	$09
	.byte	$00
	.byte	$00
	.byte	$00
	.byte	$00
	.byte	$00
	.byte	$29
	.byte	$2A
	.byte	$00
	.byte	$28
	.byte	$00
	.byte	$08
	.byte	$08
	.byte	$09
	.byte	$09
	.byte	$28
	.byte	$00
	.byte	$00
	.byte	$00
	.byte	$2C
	.byte	$29
	.byte	$08
	.byte	$08
	.byte	$09
	.byte	$25
	.byte	$00
	.byte	$00
	.byte	$28
	.byte	$00
	.byte	$2A
	.byte	$00
	.byte	$00
	.byte	$29
	.byte	$0B
	.byte	$00
	.byte	$08
	.byte	$08
	.byte	$25
	.byte	$09
	.byte	$00
	.byte	$00
	.byte	$28
	.byte	$00
	.byte	$00
	.byte	$0D
	.byte	$19
	.byte	$08
	.byte	$09
	.byte	$09
	.byte	$28
	.byte	$00
	.byte	$00
	.byte	$00
	.byte	$28
	.byte	$29
	.byte	$00
	.byte	$00
	.byte	$00
	.byte	$0D
	.byte	$25
	.byte	$08
	.byte	$09
	.byte	$09
	.byte	$00
	.byte	$29
	.byte	$2A
	.byte	$00
	.byte	$0E
	.byte	$05
	.byte	$08
	.byte	$07
	.byte	$25
	.byte	$09
	.byte	$00
	.byte	$00
	.byte	$00
	.byte	$00
	.byte	$2A
	.byte	$00
	.byte	$00
	.byte	$29
	.byte	$0E
	.byte	$0F
	.byte	$08
	.byte	$08
	.byte	$09
	.byte	$11
	.byte	$09
	.byte	$01
	.byte	$08
	.byte	$01
	.byte	$08
	.byte	$11
	.byte	$09
	.byte	$01
	.byte	$09
	.byte	$02
	.byte	$02
	.byte	$00
	.byte	$2A
	.byte	$00
	.byte	$00
	.byte	$00
	.byte	$00
	.byte	$00
	.byte	$00
	.byte	$29
	.byte	$08
	.byte	$08
	.byte	$01
	.byte	$01
	.byte	$11
	.byte	$02
	.byte	$01
	.byte	$00
	.byte	$02
	.byte	$29
	.byte	$2A
	.byte	$00
	.byte	$00
	.byte	$00
	.byte	$00
	.byte	$00
	.byte	$00
	.byte	$00
	.byte	$00
	.byte	$00
	.byte	$00
	.byte	$00
	.byte	$2A
	.byte	$0D
	.byte	$08
	.byte	$25
	.byte	$02
	.byte	$01
	.byte	$00
	.byte	$01
	.byte	$00
	.byte	$02
	.byte	$2A
	.byte	$00
	.byte	$28
	.byte	$00
	.byte	$00
	.byte	$00
	.byte	$00
	.byte	$00
	.byte	$00
	.byte	$00
	.byte	$28
	.byte	$00
	.byte	$00
	.byte	$00
	.byte	$09
	.byte	$09
	.byte	$08
	.byte	$08
	.byte	$01
	.byte	$02
	.byte	$02
	.byte	$00
	.byte	$2A
	.byte	$00
	.byte	$00
	.byte	$29
	.byte	$00
	.byte	$00
	.byte	$00
	.byte	$29
	.byte	$2A
	.byte	$00
	.byte	$28
	.byte	$29
	.byte	$2A
	.byte	$00
	.byte	$00
	.byte	$04
	.byte	$10
	.byte	$10
	.byte	$10
	.byte	$10
	.byte	$02
	.byte	$01
	.byte	$00
	.byte	$02
	.byte	$00
	.byte	$29
	.byte	$2A
	.byte	$00
	.byte	$00
	.byte	$29
	.byte	$2A
	.byte	$00
	.byte	$28
	.byte	$00
	.byte	$2A
	.byte	$00
	.byte	$00
	.byte	$00
	.byte	$04
	.byte	$04
	.byte	$10
	.byte	$10
	.byte	$10
	.byte	$10
	.byte	$02
	.byte	$01
	.byte	$00
	.byte	$01
	.byte	$00
	.byte	$02
	.byte	$28
	.byte	$00
	.byte	$2A
	.byte	$00
	.byte	$00
	.byte	$29
	.byte	$2A
	.byte	$00
	.byte	$28
	.byte	$29
	.byte	$00
	.byte	$00
	.byte	$04
	.byte	$04
	.byte	$10
	.byte	$10
	.byte	$10
	.byte	$10
	.byte	$01
	.byte	$02
	.byte	$02
	.byte	$00
	.byte	$00
	.byte	$00
	.byte	$2A
	.byte	$00
	.byte	$00
	.byte	$29
	.byte	$00
	.byte	$00
	.byte	$00
	.byte	$00
	.byte	$2A
	.byte	$05
	.byte	$00
	.byte	$07
	.byte	$04
	.byte	$04
	.byte	$10
	.byte	$10
	.byte	$10
	.byte	$10
	.byte	$01
	.byte	$02
	.byte	$02
	.byte	$29
	.byte	$2A
	.byte	$00
	.byte	$28
	.byte	$00
	.byte	$2A
	.byte	$00
	.byte	$00
	.byte	$00
	.byte	$00
	.byte	$00
	.byte	$28
	.byte	$29
	.byte	$25
	.byte	$37
	.byte	$04
	.byte	$04
	.byte	$10
	.byte	$10
	.byte	$10
	.byte	$10
	.byte	$11
	.byte	$01
	.byte	$01
	.byte	$02
	.byte	$02
	.byte	$00
	.byte	$00
	.byte	$00
	.byte	$00
	.byte	$29
	.byte	$00
	.byte	$00
	.byte	$00
	.byte	$00
	.byte	$00
	.byte	$05
	.byte	$09
	.byte	$07
	.byte	$04
	.byte	$04
	.byte	$10
	.byte	$10
	.byte	$10
	.byte	$10
	.byte	$02
	.byte	$01
	.byte	$00
	.byte	$02
	.byte	$00
	.byte	$00
	.byte	$00
	.byte	$00
	.byte	$2A
	.byte	$00
	.byte	$00
	.byte	$29
	.byte	$2A
	.byte	$00
	.byte	$28
	.byte	$00
	.byte	$2A
	.byte	$00
	.byte	$04
	.byte	$04
	.byte	$10
	.byte	$10
	.byte	$10
	.byte	$10
	.byte	$01
	.byte	$01
	.byte	$11
	.byte	$02
	.byte	$02
	.byte	$00
	.byte	$00
	.byte	$00
	.byte	$00
	.byte	$29
	.byte	$00
	.byte	$00
	.byte	$00
	.byte	$00
	.byte	$00
	.byte	$00
	.byte	$28
	.byte	$29
	.byte	$04
	.byte	$04
	.byte	$10
	.byte	$10
	.byte	$10
	.byte	$10
	.byte	$02
	.byte	$01
	.byte	$28
	.byte	$02
	.byte	$00
	.byte	$00
	.byte	$28
	.byte	$00
	.byte	$00
	.byte	$00
	.byte	$00
	.byte	$00
	.byte	$00
	.byte	$00
	.byte	$00
	.byte	$00
	.byte	$2A
	.byte	$00
	.byte	$04
	.byte	$04
	.byte	$10
	.byte	$10
	.byte	$10
	.byte	$10
	.byte	$01
	.byte	$02
	.byte	$02
	.byte	$00
	.byte	$28
	.byte	$00
	.byte	$00
	.byte	$00
	.byte	$28
	.byte	$29
	.byte	$00
	.byte	$00
	.byte	$28
	.byte	$00
	.byte	$2A
	.byte	$00
	.byte	$00
	.byte	$00
	.byte	$04
	.byte	$04
	.byte	$10
	.byte	$10
	.byte	$10
	.byte	$10
	.byte	$01
	.byte	$01
	.byte	$02
	.byte	$11
	.byte	$00
	.byte	$02
	.byte	$28
	.byte	$00
	.byte	$2A
	.byte	$00
	.byte	$00
	.byte	$00
	.byte	$2A
	.byte	$00
	.byte	$28
	.byte	$29
	.byte	$2A
	.byte	$00
	.byte	$04
	.byte	$00
	.byte	$10
	.byte	$10
	.byte	$10
	.byte	$10
	.byte	$01
	.byte	$02
	.byte	$02
	.byte	$00
	.byte	$28
	.byte	$00
	.byte	$2A
	.byte	$00
	.byte	$28
	.byte	$00
	.byte	$2A
	.byte	$00
	.byte	$00
	.byte	$29
	.byte	$2A
	.byte	$00
	.byte	$00
	.byte	$29
	.byte	$00
	.byte	$00
	.byte	$10
	.byte	$10
	.byte	$10
	.byte	$10
	.byte	$01
	.byte	$01
	.byte	$02
	.byte	$02
	.byte	$00
	.byte	$00
	.byte	$00
	.byte	$29
	.byte	$00
	.byte	$00
	.byte	$28
	.byte	$29
	.byte	$2A
	.byte	$00
	.byte	$28
	.byte	$29
	.byte	$00
	.byte	$00
	.byte	$28
	.byte	$04
	.byte	$10
	.byte	$10
	.byte	$10
	.byte	$10
	.byte	$01
	.byte	$01
	.byte	$11
	.byte	$01
	.byte	$02
	.byte	$11
	.byte	$2A
	.byte	$02
	.byte	$00
	.byte	$29
	.byte	$00
	.byte	$00
	.byte	$00
	.byte	$29
	.byte	$00
	.byte	$00
	.byte	$00
	.byte	$00
	.byte	$00
	.byte	$00
	.byte	$10
	.byte	$10
	.byte	$10
	.byte	$10
	.byte	$01
	.byte	$00
	.byte	$11
	.byte	$29
	.byte	$02
	.byte	$00
	.byte	$28
	.byte	$00
	.byte	$00
	.byte	$00
	.byte	$00
	.byte	$00
	.byte	$00
	.byte	$00
	.byte	$28
	.byte	$29
	.byte	$00
	.byte	$00
	.byte	$00
	.byte	$04
	.byte	$10
	.byte	$10
	.byte	$10
	.byte	$10
	.byte	$01
	.byte	$29
	.byte	$01
	.byte	$24
	.byte	$02
	.byte	$00
	.byte	$00
	.byte	$00
	.byte	$00
	.byte	$00
	.byte	$04
	.byte	$00
	.byte	$00
	.byte	$00
	.byte	$00
	.byte	$04
	.byte	$28
	.byte	$29
	.byte	$00
	.byte	$00
	.byte	$10
	.byte	$10
	.byte	$10
	.byte	$10
	.byte	$2A
	.byte	$11
	.byte	$24
	.byte	$01
	.byte	$00
	.byte	$01
	.byte	$24
	.byte	$02
	.byte	$00
	.byte	$00
	.byte	$00
	.byte	$29
	.byte	$2A
	.byte	$00
	.byte	$28
	.byte	$29
	.byte	$2A
	.byte	$00
	.byte	$28
	.byte	$04
	.byte	$10
	.byte	$10
	.byte	$10
	.byte	$10
	.byte	$01
	.byte	$29
	.byte	$01
	.byte	$24
	.byte	$01
	.byte	$29
	.byte	$02
	.byte	$24
	.byte	$28
	.byte	$29
	.byte	$2A
	.byte	$00
	.byte	$00
	.byte	$29
	.byte	$2A
	.byte	$00
	.byte	$00
	.byte	$29
	.byte	$04
	.byte	$00
	.byte	$10
	.byte	$10
	.byte	$10
	.byte	$10
	.byte	$00
	.byte	$01
	.byte	$24
	.byte	$01
	.byte	$2A
	.byte	$01
	.byte	$24
	.byte	$02
	.byte	$00
	.byte	$00
	.byte	$04
	.byte	$29
	.byte	$00
	.byte	$00
	.byte	$28
	.byte	$00
	.byte	$2A
	.byte	$00
	.byte	$00
	.byte	$04
	.byte	$10
	.byte	$10
	.byte	$10
	.byte	$10
	.byte	$01
	.byte	$01
	.byte	$02
	.byte	$02
	.byte	$00
	.byte	$29
	.byte	$2A
	.byte	$00
	.byte	$00
	.byte	$00
	.byte	$2A
	.byte	$00
	.byte	$28
	.byte	$00
	.byte	$04
	.byte	$00
	.byte	$00
	.byte	$29
	.byte	$00
	.byte	$00
	.byte	$10
	.byte	$10
	.byte	$10
	.byte	$10
	.byte	$01
	.byte	$01
	.byte	$11
	.byte	$11
	.byte	$02
	.byte	$01
	.byte	$28
	.byte	$02
	.byte	$00
	.byte	$00
	.byte	$00
	.byte	$29
	.byte	$00
	.byte	$00
	.byte	$00
	.byte	$00
	.byte	$00
	.byte	$00
	.byte	$28
	.byte	$04
	.byte	$10
	.byte	$10
	.byte	$10
	.byte	$10
	.byte	$01
	.byte	$01
	.byte	$01
	.byte	$02
	.byte	$02
	.byte	$00
	.byte	$00
	.byte	$00
	.byte	$00
	.byte	$00
	.byte	$2A
	.byte	$00
	.byte	$28
	.byte	$29
	.byte	$00
	.byte	$00
	.byte	$28
	.byte	$00
	.byte	$00
	.byte	$00
	.byte	$10
	.byte	$10
	.byte	$10
	.byte	$10
	.byte	$02
	.byte	$01
	.byte	$00
	.byte	$02
	.byte	$00
	.byte	$00
	.byte	$00
	.byte	$00
	.byte	$2A
	.byte	$00
	.byte	$28
	.byte	$29
	.byte	$00
	.byte	$00
	.byte	$00
	.byte	$00
	.byte	$00
	.byte	$00
	.byte	$00
	.byte	$29
	.byte	$10
	.byte	$10
	.byte	$10
	.byte	$10
	.byte	$01
	.byte	$01
	.byte	$11
	.byte	$02
	.byte	$02
	.byte	$29
	.byte	$2A
	.byte	$00
	.byte	$00
	.byte	$29
	.byte	$00
	.byte	$00
	.byte	$00
	.byte	$00
	.byte	$2A
	.byte	$00
	.byte	$00
	.byte	$00
	.byte	$04
	.byte	$00
	.byte	$10
	.byte	$10
	.byte	$10
	.byte	$10
	.byte	$02
	.byte	$01
	.byte	$28
	.byte	$11
	.byte	$00
	.byte	$02
	.byte	$00
	.byte	$00
	.byte	$00
	.byte	$00
	.byte	$28
	.byte	$00
	.byte	$2A
	.byte	$04
	.byte	$00
	.byte	$00
	.byte	$00
	.byte	$00
	.byte	$00
	.byte	$00
	.byte	$10
	.byte	$10
	.byte	$10
	.byte	$10
	.byte	$01
	.byte	$01
	.byte	$11
	.byte	$02
	.byte	$02
	.byte	$00
	.byte	$00
	.byte	$00
	.byte	$28
	.byte	$00
	.byte	$00
	.byte	$00
	.byte	$04
	.byte	$00
	.byte	$2A
	.byte	$00
	.byte	$28
	.byte	$00
	.byte	$00
	.byte	$00
	.byte	$10
	.byte	$10
	.byte	$10
	.byte	$10
	.byte	$02
	.byte	$01
	.byte	$00
	.byte	$02
	.byte	$00
	.byte	$00
	.byte	$28
	.byte	$29
	.byte	$00
	.byte	$00
	.byte	$00
	.byte	$00
	.byte	$2A
	.byte	$00
	.byte	$00
	.byte	$29
	.byte	$00
	.byte	$04
	.byte	$00
	.byte	$29
	.byte	$10
	.byte	$10
	.byte	$10
	.byte	$10
	.byte	$02
	.byte	$01
	.byte	$00
	.byte	$02
	.byte	$00
	.byte	$29
	.byte	$00
	.byte	$00
	.byte	$00
	.byte	$29
	.byte	$00
	.byte	$00
	.byte	$28
	.byte	$00
	.byte	$00
	.byte	$00
	.byte	$28
	.byte	$29
	.byte	$00
	.byte	$00
	.byte	$10
	.byte	$10
	.byte	$10
	.byte	$10
	.byte	$01
	.byte	$01
	.byte	$11
	.byte	$02
	.byte	$02
	.byte	$00
	.byte	$28
	.byte	$00
	.byte	$2A
	.byte	$00
	.byte	$28
	.byte	$29
	.byte	$00
	.byte	$00
	.byte	$28
	.byte	$00
	.byte	$2A
	.byte	$00
	.byte	$00
	.byte	$29
	.byte	$10
	.byte	$10
	.byte	$10
	.byte	$10
	.byte	$02
	.byte	$01
	.byte	$2A
	.byte	$02
	.byte	$28
	.byte	$29
	.byte	$00
	.byte	$00
	.byte	$28
	.byte	$29
	.byte	$2A
	.byte	$00
	.byte	$28
	.byte	$00
	.byte	$04
	.byte	$00
	.byte	$00
	.byte	$00
	.byte	$00
	.byte	$00
	.byte	$10
	.byte	$10
	.byte	$10
	.byte	$10
	.byte	$01
	.byte	$01
	.byte	$11
	.byte	$02
	.byte	$02
	.byte	$00
	.byte	$28
	.byte	$29
	.byte	$00
	.byte	$00
	.byte	$28
	.byte	$00
	.byte	$2A
	.byte	$00
	.byte	$00
	.byte	$29
	.byte	$00
	.byte	$00
	.byte	$00
	.byte	$00
	.byte	$10
	.byte	$10
	.byte	$10
	.byte	$10
	.byte	$02
	.byte	$02
	.byte	$00
	.byte	$00
	.byte	$00
	.byte	$29
	.byte	$00
	.byte	$00
	.byte	$00
	.byte	$00
	.byte	$2A
	.byte	$00
	.byte	$00
	.byte	$00
	.byte	$00
	.byte	$00
	.byte	$03
	.byte	$00
	.byte	$02
	.byte	$00
	.byte	$10
	.byte	$10
	.byte	$10
	.byte	$10
	.byte	$01
	.byte	$01
	.byte	$02
	.byte	$11
	.byte	$00
	.byte	$02
	.byte	$00
	.byte	$29
	.byte	$00
	.byte	$00
	.byte	$28
	.byte	$29
	.byte	$00
	.byte	$00
	.byte	$28
	.byte	$00
	.byte	$2A
	.byte	$03
	.byte	$00
	.byte	$02
	.byte	$10
	.byte	$10
	.byte	$10
	.byte	$10
	.byte	$01
	.byte	$01
	.byte	$11
	.byte	$02
	.byte	$02
	.byte	$29
	.byte	$00
	.byte	$00
	.byte	$00
	.byte	$00
	.byte	$00
	.byte	$00
	.byte	$00
	.byte	$29
	.byte	$00
	.byte	$00
	.byte	$03
	.byte	$29
	.byte	$02
	.byte	$04
	.byte	$10
	.byte	$10
	.byte	$10
	.byte	$10
	.byte	$02
	.byte	$01
	.byte	$28
	.byte	$02
	.byte	$2A
	.byte	$00
	.byte	$28
	.byte	$00
	.byte	$00
	.byte	$00
	.byte	$00
	.byte	$00
	.byte	$00
	.byte	$00
	.byte	$28
	.byte	$00
	.byte	$2A
	.byte	$00
	.byte	$00
	.byte	$29
	.byte	$10
	.byte	$10
	.byte	$10
	.byte	$10
	.byte	$02
	.byte	$01
	.byte	$2A
	.byte	$02
	.byte	$00
	.byte	$29
	.byte	$2A
	.byte	$00
	.byte	$00
	.byte	$00
	.byte	$2A
	.byte	$00
	.byte	$00
	.byte	$00
	.byte	$00
	.byte	$00
	.byte	$00
	.byte	$00
	.byte	$00
	.byte	$00
	.byte	$10
	.byte	$10
	.byte	$10
	.byte	$10
	.byte	$01
	.byte	$02
	.byte	$02
	.byte	$00
	.byte	$2A
	.byte	$00
	.byte	$28
	.byte	$29
	.byte	$2A
	.byte	$00
	.byte	$28
	.byte	$29
	.byte	$00
	.byte	$00
	.byte	$28
	.byte	$00
	.byte	$00
	.byte	$00
	.byte	$04
	.byte	$00
	.byte	$10
	.byte	$10
	.byte	$10
	.byte	$10
	.byte	$01
	.byte	$01
	.byte	$02
	.byte	$11
	.byte	$00
	.byte	$02
	.byte	$2A
	.byte	$00
	.byte	$00
	.byte	$00
	.byte	$00
	.byte	$00
	.byte	$00
	.byte	$29
	.byte	$2A
	.byte	$00
	.byte	$28
	.byte	$00
	.byte	$2A
	.byte	$00
	.byte	$10
	.byte	$10
	.byte	$10
	.byte	$10
	.byte	$01
	.byte	$02
	.byte	$02
	.byte	$29
	.byte	$00
	.byte	$00
	.byte	$28
	.byte	$29
	.byte	$00
	.byte	$00
	.byte	$00
	.byte	$00
	.byte	$00
	.byte	$00
	.byte	$28
	.byte	$00
	.byte	$2A
	.byte	$00
	.byte	$00
	.byte	$04
	.byte	$10
	.byte	$10
	.byte	$10
	.byte	$10
	.byte	$01
	.byte	$01
	.byte	$02
	.byte	$11
	.byte	$28
	.byte	$02
	.byte	$00
	.byte	$00
	.byte	$28
	.byte	$29
	.byte	$2A
	.byte	$00
	.byte	$28
	.byte	$29
	.byte	$2A
	.byte	$00
	.byte	$00
	.byte	$00
	.byte	$00
	.byte	$00
	.byte	$10
	.byte	$10
	.byte	$10
	.byte	$10
	.byte	$01
	.byte	$01
	.byte	$11
	.byte	$02
	.byte	$02
	.byte	$00
	.byte	$28
	.byte	$00
	.byte	$00
	.byte	$00
	.byte	$00
	.byte	$29
	.byte	$2A
	.byte	$00
	.byte	$28
	.byte	$00
	.byte	$2A
	.byte	$04
	.byte	$00
	.byte	$29
	.byte	$10
	.byte	$10
	.byte	$10
	.byte	$10
	.byte	$01
	.byte	$01
	.byte	$02
	.byte	$11
	.byte	$28
	.byte	$02
	.byte	$00
	.byte	$00
	.byte	$00
	.byte	$00
	.byte	$00
	.byte	$00
	.byte	$00
	.byte	$00
	.byte	$00
	.byte	$00
	.byte	$04
	.byte	$00
	.byte	$2A
	.byte	$00
	.byte	$10
	.byte	$10
	.byte	$10
	.byte	$10
	.byte	$01
	.byte	$02
	.byte	$02
	.byte	$00
	.byte	$00
	.byte	$00
	.byte	$00
	.byte	$00
	.byte	$2A
	.byte	$00
	.byte	$28
	.byte	$00
	.byte	$2A
	.byte	$00
	.byte	$28
	.byte	$00
	.byte	$00
	.byte	$00
	.byte	$00
	.byte	$29
	.byte	$10
	.byte	$10
	.byte	$10
	.byte	$10
	.byte	$02
	.byte	$01
	.byte	$2A
	.byte	$02
	.byte	$28
	.byte	$00
	.byte	$00
	.byte	$00
	.byte	$00
	.byte	$00
	.byte	$00
	.byte	$00
	.byte	$00
	.byte	$00
	.byte	$04
	.byte	$00
	.byte	$28
	.byte	$29
	.byte	$00
	.byte	$00
	.byte	$10
	.byte	$10
	.byte	$10
	.byte	$10
	.byte	$01
	.byte	$01
	.byte	$11
	.byte	$02
	.byte	$02
	.byte	$00
	.byte	$00
	.byte	$00
	.byte	$2A
	.byte	$00
	.byte	$00
	.byte	$29
	.byte	$2A
	.byte	$00
	.byte	$00
	.byte	$00
	.byte	$00
	.byte	$00
	.byte	$28
	.byte	$00
	.byte	$10
	.byte	$10
	.byte	$10
	.byte	$10
	.byte	$01
	.byte	$02
	.byte	$02
	.byte	$00
	.byte	$28
	.byte	$00
	.byte	$00
	.byte	$00
	.byte	$00
	.byte	$29
	.byte	$00
	.byte	$00
	.byte	$00
	.byte	$04
	.byte	$2A
	.byte	$00
	.byte	$28
	.byte	$00
	.byte	$2A
	.byte	$00
	.byte	$10
	.byte	$10
	.byte	$10
	.byte	$10
	.byte	$01
	.byte	$01
	.byte	$02
	.byte	$11
	.byte	$2A
	.byte	$02
	.byte	$28
	.byte	$00
	.byte	$2A
	.byte	$00
	.byte	$00
	.byte	$00
	.byte	$2A
	.byte	$00
	.byte	$28
	.byte	$29
	.byte	$00
	.byte	$04
	.byte	$00
	.byte	$29
	.byte	$10
	.byte	$10
	.byte	$10
	.byte	$10
	.byte	$28
	.byte	$00
	.byte	$2A
	.byte	$00
	.byte	$00
	.byte	$29
	.byte	$2A
	.byte	$00
	.byte	$00
	.byte	$00
	.byte	$00
	.byte	$00
	.byte	$00
	.byte	$00
	.byte	$2A
	.byte	$00
	.byte	$24
	.byte	$24
	.byte	$00
	.byte	$00
	.byte	$10
	.byte	$10
	.byte	$10
	.byte	$10
	.byte	$02
	.byte	$01
	.byte	$00
	.byte	$11
	.byte	$2A
	.byte	$01
	.byte	$28
	.byte	$11
	.byte	$00
	.byte	$02
	.byte	$28
	.byte	$00
	.byte	$00
	.byte	$00
	.byte	$00
	.byte	$00
	.byte	$24
	.byte	$24
	.byte	$28
	.byte	$29
	.byte	$10
	.byte	$10
	.byte	$10
	.byte	$10
	.byte	$01
	.byte	$01
	.byte	$01
	.byte	$02
	.byte	$01
	.byte	$00
	.byte	$01
	.byte	$00
	.byte	$02
	.byte	$00
	.byte	$2A
	.byte	$00
	.byte	$28
	.byte	$29
	.byte	$00
	.byte	$00
	.byte	$24
	.byte	$04
	.byte	$2A
	.byte	$00
	.byte	$10
	.byte	$10
	.byte	$10
	.byte	$10
	.byte	$01
	.byte	$01
	.byte	$01
	.byte	$02
	.byte	$02
	.byte	$00
	.byte	$28
	.byte	$29
	.byte	$00
	.byte	$00
	.byte	$00
	.byte	$29
	.byte	$2A
	.byte	$00
	.byte	$00
	.byte	$00
	.byte	$2A
	.byte	$00
	.byte	$28
	.byte	$29
	.byte	$10
	.byte	$10
	.byte	$10
	.byte	$10
	.byte	$02
	.byte	$01
	.byte	$2A
	.byte	$02
	.byte	$00
	.byte	$29
	.byte	$2A
	.byte	$00
	.byte	$28
	.byte	$29
	.byte	$2A
	.byte	$00
	.byte	$00
	.byte	$00
	.byte	$2A
	.byte	$00
	.byte	$28
	.byte	$04
	.byte	$00
	.byte	$00
	.byte	$10
	.byte	$10
	.byte	$10
	.byte	$10
	.byte	$02
	.byte	$01
	.byte	$00
	.byte	$02
	.byte	$00
	.byte	$00
	.byte	$00
	.byte	$00
	.byte	$00
	.byte	$00
	.byte	$00
	.byte	$00
	.byte	$2A
	.byte	$00
	.byte	$00
	.byte	$29
	.byte	$2A
	.byte	$00
	.byte	$28
	.byte	$00
	.byte	$10
	.byte	$10
	.byte	$10
	.byte	$10
	.byte	$01
	.byte	$01
	.byte	$01
	.byte	$02
	.byte	$02
	.byte	$00
	.byte	$00
	.byte	$00
	.byte	$00
	.byte	$29
	.byte	$00
	.byte	$00
	.byte	$00
	.byte	$29
	.byte	$00
	.byte	$00
	.byte	$00
	.byte	$00
	.byte	$00
	.byte	$04
	.byte	$10
	.byte	$10
	.byte	$10
	.byte	$10
	.byte	$02
	.byte	$00
	.byte	$28
	.byte	$00
	.byte	$2A
	.byte	$00
	.byte	$00
	.byte	$00
	.byte	$2A
	.byte	$00
	.byte	$00
	.byte	$04
	.byte	$00
	.byte	$00
	.byte	$04
	.byte	$29
	.byte	$00
	.byte	$00
	.byte	$00
	.byte	$00
	.byte	$10
	.byte	$10
	.byte	$10
	.byte	$10
	.byte	$28
	.byte	$00
	.byte	$00
	.byte	$04
	.byte	$28
	.byte	$29
	.byte	$04
	.byte	$00
	.byte	$00
	.byte	$00
	.byte	$00
	.byte	$00
	.byte	$00
	.byte	$00
	.byte	$2A
	.byte	$00
	.byte	$28
	.byte	$29
	.byte	$2A
	.byte	$00
	.byte	$10
	.byte	$10
	.byte	$10
	.byte	$10
	.byte	$02
	.byte	$01
	.byte	$28
	.byte	$01
	.byte	$2A
	.byte	$01
	.byte	$28
	.byte	$02
	.byte	$2A
	.byte	$00
	.byte	$28
	.byte	$00
	.byte	$00
	.byte	$00
	.byte	$00
	.byte	$00
	.byte	$00
	.byte	$00
	.byte	$00
	.byte	$00
	.byte	$10
	.byte	$10
	.byte	$10
	.byte	$10
	.byte	$01
	.byte	$00
	.byte	$01
	.byte	$03
	.byte	$01
	.byte	$01
	.byte	$01
	.byte	$01
	.byte	$01
	.byte	$11
	.byte	$01
	.byte	$01
	.byte	$02
	.byte	$01
	.byte	$2A
	.byte	$01
	.byte	$00
	.byte	$11
	.byte	$2A
	.byte	$01
	.byte	$10
	.byte	$01
	.byte	$10
	.byte	$02
	.byte	$2A
	.byte	$0C
	.byte	$28
	.byte	$21
	.byte	$00
	.byte	$21
	.byte	$04
	.byte	$29
	.byte	$00
	.byte	$00
	.byte	$00
	.byte	$0B
	.byte	$0B
	.byte	$03
	.byte	$03
	.byte	$01
	.byte	$01
	.byte	$11
	.byte	$11
	.byte	$02
	.byte	$02
	.byte	$10
	.byte	$10
	.byte	$10
	.byte	$0C
	.byte	$02
	.byte	$0C
	.byte	$0C
	.byte	$21
	.byte	$0C
	.byte	$2A
	.byte	$0C
	.byte	$00
	.byte	$21
	.byte	$2A
	.byte	$00
	.byte	$28
	.byte	$00
	.byte	$0B
	.byte	$00
	.byte	$03
	.byte	$0B
	.byte	$01
	.byte	$03
	.byte	$11
	.byte	$01
	.byte	$02
	.byte	$11
	.byte	$01
	.byte	$02
	.byte	$02
	.byte	$0C
	.byte	$0C
	.byte	$0C
	.byte	$0C
	.byte	$0C
	.byte	$0C
	.byte	$0C
	.byte	$0C
	.byte	$0C
	.byte	$0C
	.byte	$0C
	.byte	$21
	.byte	$0C
	.byte	$00
	.byte	$0C
	.byte	$10
	.byte	$10
	.byte	$03
	.byte	$10
	.byte	$02
	.byte	$03
	.byte	$11
	.byte	$01
	.byte	$01
	.byte	$02
	.byte	$02
	.byte	$0C
	.byte	$0C
	.byte	$0C
	.byte	$0C
	.byte	$0C
	.byte	$0C
	.byte	$0C
	.byte	$0C
	.byte	$0C
	.byte	$0C
	.byte	$20
	.byte	$0C
	.byte	$0C
	.byte	$10
	.byte	$10
	.byte	$10
	.byte	$03
	.byte	$04
	.byte	$02
	.byte	$02
	.byte	$01
	.byte	$0C
	.byte	$02
	.byte	$0C
	.byte	$0C
	.byte	$0C
	.byte	$20
	.byte	$0C
	.byte	$20
	.byte	$20
	.byte	$22
	.byte	$00
	.byte	$21
	.byte	$28
	.byte	$00
	.byte	$20
	.byte	$00
	.byte	$10
	.byte	$03
	.byte	$10
	.byte	$01
	.byte	$03
	.byte	$02
	.byte	$02
	.byte	$01
	.byte	$0C
	.byte	$01
	.byte	$20
	.byte	$02
	.byte	$2A
	.byte	$22
	.byte	$23
	.byte	$0C
	.byte	$0C
	.byte	$0C
	.byte	$28
	.byte	$21
	.byte	$2A
	.byte	$0D
	.byte	$00
	.byte	$03
	.byte	$10
	.byte	$01
	.byte	$03
	.byte	$11
	.byte	$11
	.byte	$02
	.byte	$11
	.byte	$11
	.byte	$02
	.byte	$01
	.byte	$22
	.byte	$02
	.byte	$0C
	.byte	$0C
	.byte	$0C
	.byte	$20
	.byte	$20
	.byte	$29
	.byte	$03
	.byte	$00
	.byte	$01
	.byte	$00
	.byte	$11
	.byte	$03
	.byte	$02
	.byte	$11
	.byte	$10
	.byte	$01
	.byte	$10
	.byte	$02
	.byte	$01
	.byte	$01
	.byte	$01
	.byte	$02
	.byte	$02
	.byte	$0C
	.byte	$0C
	.byte	$20
	.byte	$28
	.byte	$21
	.byte	$2A
	.byte	$00
	.byte	$00
	.byte	$00
	.byte	$12
	.byte	$00
	.byte	$03
	.byte	$12
	.byte	$01
	.byte	$03
	.byte	$11
	.byte	$01
	.byte	$01
	.byte	$01
	.byte	$02
	.byte	$0C
	.byte	$0C
	.byte	$0C
	.byte	$21
	.byte	$0C
	.byte	$0C
	.byte	$20
	.byte	$00
	.byte	$00
	.byte	$28
	.byte	$29
	.byte	$2A
	.byte	$00
	.byte	$00
	.byte	$29
	.byte	$00
	.byte	$00
	.byte	$10
	.byte	$10
	.byte	$03
	.byte	$10
	.byte	$01
	.byte	$03
	.byte	$02
	.byte	$01
	.byte	$0C
	.byte	$02
	.byte	$20
	.byte	$00
	.byte	$00
	.byte	$00
	.byte	$00
	.byte	$00
	.byte	$00
	.byte	$00
	.byte	$00
	.byte	$00
	.byte	$2A
	.byte	$0D
	.byte	$28
	.byte	$03
	.byte	$03
	.byte	$01
	.byte	$01
	.byte	$01
	.byte	$02
	.byte	$02
	.byte	$02
	.byte	$01
	.byte	$0C
	.byte	$02
	.byte	$21
	.byte	$0C
	.byte	$28
	.byte	$00
	.byte	$0B
	.byte	$00
	.byte	$03
	.byte	$29
	.byte	$11
	.byte	$0B
	.byte	$01
	.byte	$03
	.byte	$01
	.byte	$11
	.byte	$02
	.byte	$01
	.byte	$10
	.byte	$01
	.byte	$10
	.byte	$02
	.byte	$02
	.byte	$02
	.byte	$0C
	.byte	$0C
	.byte	$0C
	.byte	$0C
	.byte	$21
	.byte	$0C
	.byte	$28
	.byte	$0C
	.byte	$00
	.byte	$20
	.byte	$00
	.byte	$29
	.byte	$2A
	.byte	$00
	.byte	$0F
	.byte	$00
	.byte	$03
	.byte	$10
	.byte	$11
	.byte	$03
	.byte	$02
	.byte	$01
	.byte	$11
	.byte	$00
	.byte	$02
	.byte	$29
	.byte	$0C
	.byte	$00
	.byte	$20
	.byte	$00
	.byte	$04
	.byte	$00
	.byte	$00
	.byte	$29
	.byte	$00
	.byte	$00
	.byte	$00
	.byte	$0D
	.byte	$2A
	.byte	$03
	.byte	$10
	.byte	$11
	.byte	$03
	.byte	$01
	.byte	$02
	.byte	$02
	.byte	$00
	.byte	$00
	.byte	$00
	.byte	$00
	.byte	$00
	.byte	$03
	.byte	$2A
	.byte	$01
	.byte	$28
	.byte	$11
	.byte	$0D
	.byte	$01
	.byte	$03
	.byte	$11
	.byte	$01
	.byte	$01
	.byte	$11
	.byte	$02
	.byte	$01
	.byte	$00
	.byte	$02
	.byte	$10
	.byte	$10
	.byte	$10
	.byte	$01
	.byte	$01
	.byte	$11
	.byte	$11
	.byte	$01
	.byte	$01
	.byte	$11
	.byte	$02
	.byte	$01
	.byte	$00
	.byte	$02
	.byte	$29
	.byte	$2A
	.byte	$00
	.byte	$00
	.byte	$00
	.byte	$2A
	.byte	$00
	.byte	$28
	.byte	$29
	.byte	$10
	.byte	$10
	.byte	$10
	.byte	$10
	.byte	$01
	.byte	$01
	.byte	$01
	.byte	$01
	.byte	$01
	.byte	$01
	.byte	$02
	.byte	$02
	.byte	$00
	.byte	$00
	.byte	$2A
	.byte	$21
	.byte	$00
	.byte	$00
	.byte	$00
	.byte	$00
	.byte	$00
	.byte	$21
	.byte	$2A
	.byte	$00
	.byte	$10
	.byte	$10
	.byte	$10
	.byte	$10
	.byte	$01
	.byte	$01
	.byte	$01
	.byte	$02
	.byte	$02
	.byte	$0C
	.byte	$0C
	.byte	$0C
	.byte	$0C
	.byte	$0C
	.byte	$0C
	.byte	$0C
	.byte	$0C
	.byte	$0C
	.byte	$0C
	.byte	$0C
	.byte	$0C
	.byte	$0C
	.byte	$21
	.byte	$0C
	.byte	$10
	.byte	$10
	.byte	$10
	.byte	$10
	.byte	$02
	.byte	$0C
	.byte	$0C
	.byte	$0C
	.byte	$0C
	.byte	$0C
	.byte	$0C
	.byte	$0C
	.byte	$0C
	.byte	$0C
	.byte	$0C
	.byte	$0C
	.byte	$0C
	.byte	$0C
	.byte	$0C
	.byte	$0C
	.byte	$0C
	.byte	$0C
	.byte	$0C
	.byte	$0C
	.byte	$10
	.byte	$10
	.byte	$10
	.byte	$10
	.byte	$0C
	.byte	$02
	.byte	$0C
	.byte	$0C
	.byte	$0C
	.byte	$0C
	.byte	$0C
	.byte	$0C
	.byte	$0C
	.byte	$0C
	.byte	$0C
	.byte	$0C
	.byte	$0C
	.byte	$0C
	.byte	$0C
	.byte	$0C
	.byte	$0C
	.byte	$0C
	.byte	$0C
	.byte	$0C
	.byte	$10
	.byte	$10
	.byte	$10
	.byte	$10
	.byte	$01
	.byte	$01
	.byte	$02
	.byte	$01
	.byte	$0C
	.byte	$02
	.byte	$0C
	.byte	$0C
	.byte	$0C
	.byte	$0C
	.byte	$0C
	.byte	$0C
	.byte	$0C
	.byte	$0C
	.byte	$0C
	.byte	$0C
	.byte	$0C
	.byte	$0C
	.byte	$0C
	.byte	$0C
	.byte	$10
	.byte	$10
	.byte	$10
	.byte	$10
	.byte	$01
	.byte	$01
	.byte	$01
	.byte	$01
	.byte	$01
	.byte	$01
	.byte	$02
	.byte	$02
	.byte	$20
	.byte	$00
	.byte	$22
	.byte	$29
	.byte	$00
	.byte	$00
	.byte	$20
	.byte	$29
	.byte	$00
	.byte	$00
	.byte	$22
	.byte	$29
	.byte	$10
	.byte	$10
	.byte	$10
	.byte	$10
	.byte	$01
	.byte	$01
	.byte	$01
	.byte	$01
	.byte	$01
	.byte	$02
	.byte	$02
	.byte	$00
	.byte	$28
	.byte	$00
	.byte	$2A
	.byte	$00
	.byte	$28
	.byte	$00
	.byte	$00
	.byte	$00
	.byte	$28
	.byte	$29
	.byte	$00
	.byte	$00
	.byte	$10
	.byte	$10
	.byte	$10
	.byte	$10
	.byte	$01
	.byte	$02
	.byte	$02
	.byte	$00
	.byte	$00
	.byte	$00
	.byte	$00
	.byte	$00
	.byte	$00
	.byte	$00
	.byte	$00
	.byte	$29
	.byte	$2A
	.byte	$00
	.byte	$00
	.byte	$29
	.byte	$2A
	.byte	$00
	.byte	$28
	.byte	$29
	.byte	$10
	.byte	$10
	.byte	$10
	.byte	$10
	.byte	$02
	.byte	$01
	.byte	$2A
	.byte	$02
	.byte	$28
	.byte	$29
	.byte	$2A
	.byte	$00
	.byte	$28
	.byte	$00
	.byte	$2A
	.byte	$00
	.byte	$28
	.byte	$00
	.byte	$2A
	.byte	$00
	.byte	$00
	.byte	$29
	.byte	$2A
	.byte	$00
	.byte	$10
	.byte	$10
	.byte	$10
	.byte	$10
	.byte	$01
	.byte	$00
	.byte	$01
	.byte	$24
	.byte	$01
	.byte	$00
	.byte	$01
	.byte	$24
	.byte	$01
	.byte	$00
	.byte	$01
	.byte	$24
	.byte	$01
	.byte	$00
	.byte	$02
	.byte	$24
	.byte	$2A
	.byte	$00
	.byte	$28
	.byte	$00
	.byte	$10
	.byte	$10
	.byte	$10
	.byte	$10
	.byte	$00
	.byte	$01
	.byte	$24
	.byte	$01
	.byte	$28
	.byte	$01
	.byte	$24
	.byte	$01
	.byte	$00
	.byte	$01
	.byte	$24
	.byte	$02
	.byte	$28
	.byte	$29
	.byte	$00
	.byte	$00
	.byte	$00
	.byte	$29
	.byte	$04
	.byte	$00
	.byte	$10
	.byte	$10
	.byte	$10
	.byte	$10
	.byte	$01
	.byte	$01
	.byte	$02
	.byte	$11
	.byte	$00
	.byte	$02
	.byte	$00
	.byte	$29
	.byte	$00
	.byte	$00
	.byte	$00
	.byte	$00
	.byte	$00
	.byte	$00
	.byte	$00
	.byte	$00
	.byte	$00
	.byte	$00
	.byte	$28
	.byte	$00
	.byte	$10
	.byte	$10
	.byte	$10
	.byte	$10
	.byte	$01
	.byte	$11
	.byte	$01
	.byte	$01
	.byte	$11
	.byte	$01
	.byte	$02
	.byte	$01
	.byte	$28
	.byte	$02
	.byte	$2A
	.byte	$00
	.byte	$00
	.byte	$29
	.byte	$2A
	.byte	$00
	.byte	$28
	.byte	$29
	.byte	$04
	.byte	$00
	.byte	$10
	.byte	$10
	.byte	$10
	.byte	$10
	.byte	$01
	.byte	$11
	.byte	$11
	.byte	$01
	.byte	$01
	.byte	$02
	.byte	$02
	.byte	$29
	.byte	$2A
	.byte	$00
	.byte	$28
	.byte	$29
	.byte	$2A
	.byte	$00
	.byte	$00
	.byte	$00
	.byte	$00
	.byte	$00
	.byte	$28
	.byte	$00
	.byte	$10
	.byte	$10
	.byte	$10
	.byte	$10
	.byte	$01
	.byte	$11
	.byte	$11
	.byte	$01
	.byte	$02
	.byte	$01
	.byte	$00
	.byte	$02
	.byte	$00
	.byte	$29
	.byte	$2A
	.byte	$00
	.byte	$00
	.byte	$29
	.byte	$2A
	.byte	$00
	.byte	$04
	.byte	$00
	.byte	$2A
	.byte	$00
	.byte	$10
	.byte	$10
	.byte	$10
	.byte	$10
	.byte	$01
	.byte	$01
	.byte	$02
	.byte	$01
	.byte	$2A
	.byte	$02
	.byte	$00
	.byte	$29
	.byte	$2A
	.byte	$00
	.byte	$00
	.byte	$00
	.byte	$00
	.byte	$00
	.byte	$28
	.byte	$04
	.byte	$2A
	.byte	$00
	.byte	$00
	.byte	$29
	.byte	$10
	.byte	$10
	.byte	$10
	.byte	$10
	.byte	$11
	.byte	$01
	.byte	$01
	.byte	$11
	.byte	$02
	.byte	$01
	.byte	$2A
	.byte	$02
	.byte	$00
	.byte	$29
	.byte	$00
	.byte	$00
	.byte	$00
	.byte	$00
	.byte	$04
	.byte	$00
	.byte	$00
	.byte	$29
	.byte	$2A
	.byte	$00
	.byte	$10
	.byte	$10
	.byte	$10
	.byte	$10
	.byte	$11
	.byte	$00
	.byte	$01
	.byte	$00
	.byte	$11
	.byte	$00
	.byte	$01
	.byte	$29
	.byte	$02
	.byte	$00
	.byte	$28
	.byte	$29
	.byte	$00
	.byte	$00
	.byte	$00
	.byte	$00
	.byte	$00
	.byte	$04
	.byte	$00
	.byte	$00
	.byte	$10
	.byte	$10
	.byte	$10
	.byte	$10
	.byte	$28
	.byte	$00
	.byte	$00
	.byte	$00
	.byte	$00
	.byte	$29
	.byte	$2A
	.byte	$00
	.byte	$28
	.byte	$00
	.byte	$00
	.byte	$00
	.byte	$00
	.byte	$29
	.byte	$00
	.byte	$00
	.byte	$00
	.byte	$00
	.byte	$00
	.byte	$00
	.byte	$10
	.byte	$10
	.byte	$10
	.byte	$10
	.byte	$2A
	.byte	$00
	.byte	$28
	.byte	$00
	.byte	$00
	.byte	$00
	.byte	$00
	.byte	$29
	.byte	$00
	.byte	$00
	.byte	$28
	.byte	$29
	.byte	$00
	.byte	$00
	.byte	$28
	.byte	$00
	.byte	$00
	.byte	$00
	.byte	$04
	.byte	$00
	.byte	$10
	.byte	$10
	.byte	$10
	.byte	$10
	.byte	$00
	.byte	$00
	.byte	$2A
	.byte	$00
	.byte	$28
	.byte	$29
	.byte	$2A
	.byte	$00
	.byte	$00
	.byte	$00
	.byte	$00
	.byte	$00
	.byte	$28
	.byte	$00
	.byte	$00
	.byte	$00
	.byte	$00
	.byte	$04
	.byte	$00
	.byte	$00
	.byte	$10
	.byte	$10
	.byte	$10
	.byte	$10
	.byte	$2A
	.byte	$00
	.byte	$00
	.byte	$00
	.byte	$00
	.byte	$00
	.byte	$28
	.byte	$29
	.byte	$2A
	.byte	$00
	.byte	$00
	.byte	$00
	.byte	$00
	.byte	$00
	.byte	$28
	.byte	$00
	.byte	$2A
	.byte	$00
	.byte	$00
	.byte	$00
	.byte	$10
	.byte	$10
	.byte	$10
	.byte	$10
	.byte	$28
	.byte	$00
	.byte	$2A
	.byte	$00
	.byte	$00
	.byte	$00
	.byte	$00
	.byte	$00
	.byte	$00
	.byte	$29
	.byte	$2A
	.byte	$00
	.byte	$28
	.byte	$00
	.byte	$2A
	.byte	$04
	.byte	$00
	.byte	$29
	.byte	$00
	.byte	$00
	.byte	$10
	.byte	$10
	.byte	$10
	.byte	$10
	.byte	$00
	.byte	$00
	.byte	$00
	.byte	$00
	.byte	$2A
	.byte	$00
	.byte	$28
	.byte	$00
	.byte	$2A
	.byte	$00
	.byte	$28
	.byte	$00
	.byte	$00
	.byte	$00
	.byte	$04
	.byte	$00
	.byte	$00
	.byte	$04
	.byte	$00
	.byte	$29
	.byte	$10
	.byte	$10
	.byte	$10
	.byte	$10
	.byte	$28
	.byte	$00
	.byte	$00
	.byte	$00
	.byte	$00
	.byte	$29
	.byte	$00
	.byte	$00
	.byte	$00
	.byte	$00
	.byte	$00
	.byte	$00
	.byte	$00
	.byte	$00
	.byte	$00
	.byte	$00
	.byte	$04
	.byte	$29
	.byte	$2A
	.byte	$04
	.byte	$10
	.byte	$10
	.byte	$10
	.byte	$10
	.byte	$00
	.byte	$00
	.byte	$00
	.byte	$00
	.byte	$2A
	.byte	$00
	.byte	$28
	.byte	$00
	.byte	$00
	.byte	$00
	.byte	$28
	.byte	$00
	.byte	$00
	.byte	$00
	.byte	$28
	.byte	$29
	.byte	$2A
	.byte	$00
	.byte	$04
	.byte	$29
	.byte	$10
	.byte	$10
	.byte	$10
	.byte	$10
	.byte	$00
	.byte	$29
	.byte	$00
	.byte	$00
	.byte	$00
	.byte	$29
	.byte	$2A
	.byte	$00
	.byte	$00
	.byte	$00
	.byte	$2A
	.byte	$00
	.byte	$28
	.byte	$29
	.byte	$00
	.byte	$00
	.byte	$00
	.byte	$29
	.byte	$2A
	.byte	$00
	.byte	$10
	.byte	$10
	.byte	$10
	.byte	$10
	.byte	$2A
	.byte	$00
	.byte	$00
	.byte	$29
	.byte	$00
	.byte	$00
	.byte	$28
	.byte	$29
	.byte	$2A
	.byte	$00
	.byte	$28
	.byte	$29
	.byte	$00
	.byte	$00
	.byte	$28
	.byte	$29
	.byte	$2A
	.byte	$00
	.byte	$00
	.byte	$29
	.byte	$10
	.byte	$10
	.byte	$10
	.byte	$10
	.byte	$00
	.byte	$29
	.byte	$2A
	.byte	$00
	.byte	$00
	.byte	$29
	.byte	$2A
	.byte	$00
	.byte	$00
	.byte	$00
	.byte	$2A
	.byte	$00
	.byte	$00
	.byte	$00
	.byte	$00
	.byte	$00
	.byte	$00
	.byte	$29
	.byte	$04
	.byte	$04
	.byte	$10
	.byte	$10
	.byte	$10
	.byte	$10
	.byte	$00
	.byte	$00
	.byte	$28
	.byte	$29
	.byte	$2A
	.byte	$00
	.byte	$00
	.byte	$00
	.byte	$00
	.byte	$00
	.byte	$00
	.byte	$29
	.byte	$00
	.byte	$00
	.byte	$00
	.byte	$00
	.byte	$00
	.byte	$00
	.byte	$00
	.byte	$29
	.byte	$10
	.byte	$10
	.byte	$10
	.byte	$10
	.byte	$00
	.byte	$00
	.byte	$2A
	.byte	$00
	.byte	$28
	.byte	$29
	.byte	$2A
	.byte	$00
	.byte	$28
	.byte	$00
	.byte	$2A
	.byte	$00
	.byte	$00
	.byte	$29
	.byte	$00
	.byte	$00
	.byte	$00
	.byte	$00
	.byte	$00
	.byte	$00
	.byte	$10
	.byte	$10
	.byte	$10
	.byte	$10
	.byte	$00
	.byte	$00
	.byte	$28
	.byte	$00
	.byte	$2A
	.byte	$00
	.byte	$28
	.byte	$29
	.byte	$2A
	.byte	$00
	.byte	$00
	.byte	$00
	.byte	$00
	.byte	$00
	.byte	$00
	.byte	$29
	.byte	$04
	.byte	$04
	.byte	$00
	.byte	$29
	.byte	$10
	.byte	$10
	.byte	$10
	.byte	$10
	.byte	$00
	.byte	$00
	.byte	$2A
	.byte	$00
	.byte	$28
	.byte	$29
	.byte	$2A
	.byte	$00
	.byte	$28
	.byte	$29
	.byte	$00
	.byte	$00
	.byte	$00
	.byte	$00
	.byte	$2A
	.byte	$04
	.byte	$04
	.byte	$29
	.byte	$2A
	.byte	$00
	.byte	$10
	.byte	$10
	.byte	$10
	.byte	$10
	.byte	$2A
	.byte	$00
	.byte	$00
	.byte	$00
	.byte	$00
	.byte	$00
	.byte	$28
	.byte	$29
	.byte	$2A
	.byte	$00
	.byte	$28
	.byte	$04
	.byte	$04
	.byte	$00
	.byte	$00
	.byte	$29
	.byte	$2A
	.byte	$00
	.byte	$00
	.byte	$00
	.byte	$10
	.byte	$10
	.byte	$10
	.byte	$10
	.byte	$28
	.byte	$00
	.byte	$2A
	.byte	$00
	.byte	$00
	.byte	$00
	.byte	$2A
	.byte	$00
	.byte	$28
	.byte	$00
	.byte	$00
	.byte	$00
	.byte	$00
	.byte	$29
	.byte	$2A
	.byte	$00
	.byte	$28
	.byte	$29
	.byte	$2A
	.byte	$00
	.byte	$10
	.byte	$10
	.byte	$10
	.byte	$10
	.byte	$00
	.byte	$00
	.byte	$00
	.byte	$00
	.byte	$00
	.byte	$00
	.byte	$00
	.byte	$29
	.byte	$00
	.byte	$00
	.byte	$28
	.byte	$00
	.byte	$00
	.byte	$00
	.byte	$00
	.byte	$00
	.byte	$2A
	.byte	$00
	.byte	$00
	.byte	$00
	.byte	$10
	.byte	$10
	.byte	$10
	.byte	$10
	.byte	$28
	.byte	$00
	.byte	$00
	.byte	$00
	.byte	$00
	.byte	$00
	.byte	$00
	.byte	$00
	.byte	$00
	.byte	$00
	.byte	$2A
	.byte	$00
	.byte	$00
	.byte	$00
	.byte	$2A
	.byte	$00
	.byte	$00
	.byte	$00
	.byte	$2A
	.byte	$00
	.byte	$10
	.byte	$10
	.byte	$10
	.byte	$10
	.byte	$00
	.byte	$01
	.byte	$28
	.byte	$02
	.byte	$00
	.byte	$00
	.byte	$00
	.byte	$00
	.byte	$2A
	.byte	$00
	.byte	$00
	.byte	$00
	.byte	$00
	.byte	$00
	.byte	$28
	.byte	$29
	.byte	$00
	.byte	$00
	.byte	$28
	.byte	$00
	.byte	$10
	.byte	$10
	.byte	$10
	.byte	$10
	.byte	$11
	.byte	$01
	.byte	$01
	.byte	$11
	.byte	$02
	.byte	$01
	.byte	$00
	.byte	$02
	.byte	$28
	.byte	$00
	.byte	$2A
	.byte	$00
	.byte	$00
	.byte	$00
	.byte	$00
	.byte	$00
	.byte	$28
	.byte	$29
	.byte	$00
	.byte	$00
	.byte	$10
	.byte	$10
	.byte	$10
	.byte	$10
	.byte	$11
	.byte	$09
	.byte	$01
	.byte	$08
	.byte	$02
	.byte	$09
	.byte	$28
	.byte	$08
	.byte	$00
	.byte	$00
	.byte	$28
	.byte	$29
	.byte	$2A
	.byte	$00
	.byte	$00
	.byte	$08
	.byte	$00
	.byte	$09
	.byte	$00
	.byte	$08
	.byte	$10
	.byte	$10
	.byte	$10
	.byte	$10
	.byte	$09
	.byte	$09
	.byte	$09
	.byte	$2C
	.byte	$08
	.byte	$2C
	.byte	$09
	.byte	$2C
	.byte	$2C
	.byte	$2C
	.byte	$2C
	.byte	$2C
	.byte	$2C
	.byte	$2C
	.byte	$09
	.byte	$2C
	.byte	$08
	.byte	$2C
	.byte	$09
	.byte	$09
	.byte	$10
	.byte	$10
	.byte	$10
	.byte	$10
	.byte	$09
	.byte	$09
	.byte	$2C
	.byte	$2C
	.byte	$2C
	.byte	$2C
	.byte	$2C
	.byte	$2C
	.byte	$2C
	.byte	$2C
	.byte	$2C
	.byte	$2C
	.byte	$2C
	.byte	$2C
	.byte	$2E
	.byte	$2C
	.byte	$2F
	.byte	$2C
	.byte	$09
	.byte	$09
	.byte	$10
	.byte	$10
	.byte	$10
	.byte	$10
	.byte	$09
	.byte	$09
	.byte	$2C
	.byte	$2C
	.byte	$2C
	.byte	$2C
	.byte	$2C
	.byte	$2C
	.byte	$2C
	.byte	$2C
	.byte	$2C
	.byte	$2C
	.byte	$13
	.byte	$2C
	.byte	$06
	.byte	$2C
	.byte	$07
	.byte	$2C
	.byte	$09
	.byte	$09
	.byte	$10
	.byte	$10
	.byte	$10
	.byte	$10
	.byte	$09
	.byte	$09
	.byte	$2C
	.byte	$2C
	.byte	$2C
	.byte	$2C
	.byte	$2C
	.byte	$2C
	.byte	$2C
	.byte	$2C
	.byte	$2C
	.byte	$2C
	.byte	$2C
	.byte	$2C
	.byte	$2C
	.byte	$2C
	.byte	$2C
	.byte	$2E
	.byte	$09
	.byte	$09
	.byte	$10
	.byte	$10
	.byte	$10
	.byte	$10
	.byte	$09
	.byte	$09
	.byte	$2C
	.byte	$2C
	.byte	$2C
	.byte	$2C
	.byte	$2C
	.byte	$2C
	.byte	$2C
	.byte	$2C
	.byte	$2C
	.byte	$2C
	.byte	$2C
	.byte	$2C
	.byte	$2C
	.byte	$2C
	.byte	$2C
	.byte	$2C
	.byte	$09
	.byte	$09
	.byte	$10
	.byte	$10
	.byte	$10
	.byte	$10
	.byte	$09
	.byte	$09
	.byte	$2C
	.byte	$2C
	.byte	$2E
	.byte	$2C
	.byte	$2C
	.byte	$2C
	.byte	$2C
	.byte	$2C
	.byte	$2C
	.byte	$2C
	.byte	$2C
	.byte	$2C
	.byte	$2C
	.byte	$13
	.byte	$2C
	.byte	$07
	.byte	$09
	.byte	$09
	.byte	$10
	.byte	$10
	.byte	$10
	.byte	$10
	.byte	$09
	.byte	$09
	.byte	$2C
	.byte	$2C
	.byte	$2C
	.byte	$2C
	.byte	$2C
	.byte	$2C
	.byte	$2C
	.byte	$2C
	.byte	$2C
	.byte	$2C
	.byte	$2C
	.byte	$2C
	.byte	$2C
	.byte	$2C
	.byte	$2C
	.byte	$2F
	.byte	$09
	.byte	$09
	.byte	$10
	.byte	$10
	.byte	$10
	.byte	$10
	.byte	$09
	.byte	$09
	.byte	$2C
	.byte	$2C
	.byte	$2C
	.byte	$2C
	.byte	$2C
	.byte	$2C
	.byte	$2C
	.byte	$2C
	.byte	$2C
	.byte	$08
	.byte	$2C
	.byte	$09
	.byte	$2C
	.byte	$08
	.byte	$2C
	.byte	$09
	.byte	$09
	.byte	$08
	.byte	$10
	.byte	$08
	.byte	$10
	.byte	$09
	.byte	$09
	.byte	$2C
	.byte	$2C
	.byte	$2C
	.byte	$2C
	.byte	$2C
	.byte	$2C
	.byte	$2C
	.byte	$2C
	.byte	$2C
	.byte	$08
	.byte	$08
	.byte	$08
	.byte	$2C
	.byte	$09
	.byte	$2C
	.byte	$09
	.byte	$2C
	.byte	$08
	.byte	$2C
	.byte	$09
	.byte	$2C
	.byte	$09
	.byte	$09
	.byte	$09
	.byte	$09
	.byte	$2C
	.byte	$09
	.byte	$2C
	.byte	$2C
	.byte	$2E
	.byte	$2C
	.byte	$2C
	.byte	$2C
	.byte	$08
	.byte	$08
	.byte	$2C
	.byte	$2C
	.byte	$2C
	.byte	$2C
	.byte	$2C
	.byte	$2C
	.byte	$2C
	.byte	$2C
	.byte	$2C
	.byte	$2C
	.byte	$09
	.byte	$1F
	.byte	$09
	.byte	$09
	.byte	$2C
	.byte	$2C
	.byte	$2C
	.byte	$2C
	.byte	$2C
	.byte	$2C
	.byte	$2C
	.byte	$2C
	.byte	$08
	.byte	$08
	.byte	$2C
	.byte	$2C
	.byte	$2C
	.byte	$2C
	.byte	$2C
	.byte	$2C
	.byte	$2C
	.byte	$2C
	.byte	$2C
	.byte	$2F
	.byte	$09
	.byte	$09
	.byte	$09
	.byte	$09
	.byte	$2C
	.byte	$2C
	.byte	$2C
	.byte	$2C
	.byte	$2C
	.byte	$2C
	.byte	$2F
	.byte	$2C
	.byte	$08
	.byte	$08
	.byte	$2C
	.byte	$2D
	.byte	$2C
	.byte	$2C
	.byte	$2C
	.byte	$2C
	.byte	$05
	.byte	$2C
	.byte	$07
	.byte	$09
	.byte	$09
	.byte	$09
	.byte	$09
	.byte	$09
	.byte	$2C
	.byte	$2C
	.byte	$2C
	.byte	$2C
	.byte	$2C
	.byte	$2C
	.byte	$2C
	.byte	$2C
	.byte	$08
	.byte	$08
	.byte	$2C
	.byte	$2C
	.byte	$2C
	.byte	$2E
	.byte	$2C
	.byte	$2C
	.byte	$2C
	.byte	$2C
	.byte	$08
	.byte	$1A
	.byte	$09
	.byte	$09
	.byte	$09
	.byte	$09
	.byte	$2C
	.byte	$2C
	.byte	$2C
	.byte	$2C
	.byte	$2C
	.byte	$2C
	.byte	$2C
	.byte	$2C
	.byte	$08
	.byte	$08
	.byte	$2C
	.byte	$2C
	.byte	$2C
	.byte	$2C
	.byte	$2C
	.byte	$2C
	.byte	$2C
	.byte	$2C
	.byte	$08
	.byte	$09
	.byte	$09
	.byte	$09
	.byte	$09
	.byte	$09
	.byte	$08
	.byte	$2C
	.byte	$2C
	.byte	$2C
	.byte	$2C
	.byte	$2C
	.byte	$2C
	.byte	$2C
	.byte	$08
	.byte	$08
	.byte	$2C
	.byte	$2C
	.byte	$2C
	.byte	$2C
	.byte	$2C
	.byte	$2C
	.byte	$05
	.byte	$2C
	.byte	$07
	.byte	$2C
	.byte	$09
	.byte	$09
	.byte	$09
	.byte	$09
	.byte	$2C
	.byte	$2C
	.byte	$2C
	.byte	$2C
	.byte	$2C
	.byte	$2C
	.byte	$2C
	.byte	$2C
	.byte	$08
	.byte	$08
	.byte	$2C
	.byte	$08
	.byte	$2C
	.byte	$09
	.byte	$2C
	.byte	$2C
	.byte	$2C
	.byte	$2C
	.byte	$2C
	.byte	$09
	.byte	$09
	.byte	$09
	.byte	$09
	.byte	$09
	.byte	$2C
	.byte	$2C
	.byte	$2C
	.byte	$2C
	.byte	$2C
	.byte	$2C
	.byte	$2C
	.byte	$2C
	.byte	$08
	.byte	$08
	.byte	$09
	.byte	$2C
	.byte	$08
	.byte	$2C
	.byte	$2C
	.byte	$2C
	.byte	$2C
	.byte	$2C
	.byte	$09
	.byte	$2C
	.byte	$09
	.byte	$09
	.byte	$09
	.byte	$09
	.byte	$2C
	.byte	$2C
	.byte	$2C
	.byte	$2E
	.byte	$2C
	.byte	$2C
	.byte	$2C
	.byte	$2C
	.byte	$08
	.byte	$08
	.byte	$2C
	.byte	$2C
	.byte	$2C
	.byte	$2C
	.byte	$2C
	.byte	$2C
	.byte	$2C
	.byte	$2C
	.byte	$2C
	.byte	$2F
	.byte	$09
	.byte	$09
	.byte	$2C
	.byte	$2C
	.byte	$2C
	.byte	$2C
	.byte	$2C
	.byte	$2C
	.byte	$2C
	.byte	$2C
	.byte	$2C
	.byte	$2C
	.byte	$08
	.byte	$08
	.byte	$08
	.byte	$2C
	.byte	$2C
	.byte	$2C
	.byte	$2C
	.byte	$2C
	.byte	$2C
	.byte	$2C
	.byte	$09
	.byte	$2C
	.byte	$09
	.byte	$09
	.byte	$09
	.byte	$09
	.byte	$2C
	.byte	$2C
	.byte	$2C
	.byte	$2C
	.byte	$2C
	.byte	$2C
	.byte	$2C
	.byte	$2C
	.byte	$08
	.byte	$08
	.byte	$2C
	.byte	$2C
	.byte	$2C
	.byte	$2C
	.byte	$2C
	.byte	$2C
	.byte	$05
	.byte	$2C
	.byte	$07
	.byte	$25
	.byte	$09
	.byte	$09
	.byte	$09
	.byte	$09
	.byte	$08
	.byte	$2C
	.byte	$2C
	.byte	$2C
	.byte	$2C
	.byte	$2C
	.byte	$2C
	.byte	$2F
	.byte	$08
	.byte	$08
	.byte	$2C
	.byte	$2C
	.byte	$2C
	.byte	$2C
	.byte	$2C
	.byte	$2C
	.byte	$2C
	.byte	$2C
	.byte	$37
	.byte	$09
	.byte	$09
	.byte	$09
	.byte	$2C
	.byte	$2C
	.byte	$2C
	.byte	$2C
	.byte	$2C
	.byte	$09
	.byte	$09
	.byte	$08
	.byte	$08
	.byte	$09
	.byte	$08
	.byte	$08
	.byte	$2C
	.byte	$2C
	.byte	$2C
	.byte	$2C
	.byte	$2C
	.byte	$2C
	.byte	$05
	.byte	$2C
	.byte	$07
	.byte	$2C
	.byte	$09
	.byte	$09
	.byte	$09
	.byte	$09
	.byte	$2C
	.byte	$2C
	.byte	$2C
	.byte	$2C
	.byte	$09
	.byte	$2C
	.byte	$25
	.byte	$25
	.byte	$08
	.byte	$08
	.byte	$09
	.byte	$2C
	.byte	$2C
	.byte	$2C
	.byte	$2C
	.byte	$2C
	.byte	$2C
	.byte	$2C
	.byte	$08
	.byte	$2F
	.byte	$09
	.byte	$09
	.byte	$09
	.byte	$09
	.byte	$2C
	.byte	$2C
	.byte	$2C
	.byte	$2C
	.byte	$2C
	.byte	$2C
	.byte	$2C
	.byte	$2C
	.byte	$08
	.byte	$08
	.byte	$2C
	.byte	$08
	.byte	$2C
	.byte	$09
	.byte	$2E
	.byte	$2E
	.byte	$2C
	.byte	$2C
	.byte	$2C
	.byte	$09
	.byte	$09
	.byte	$09
	.byte	$09
	.byte	$09
	.byte	$2A
	.byte	$00
	.byte	$00
	.byte	$00
	.byte	$2A
	.byte	$00
	.byte	$00
	.byte	$29
	.byte	$08
	.byte	$08
	.byte	$09
	.byte	$29
	.byte	$08
	.byte	$00
	.byte	$00
	.byte	$00
	.byte	$2A
	.byte	$00
	.byte	$08
	.byte	$10
	.byte	$09
	.byte	$09
	.byte	$09
	.byte	$09
	.byte	$28
	.byte	$29
	.byte	$2A
	.byte	$00
	.byte	$00
	.byte	$29
	.byte	$2A
	.byte	$00
	.byte	$08
	.byte	$08
	.byte	$2A
	.byte	$00
	.byte	$00
	.byte	$00
	.byte	$00
	.byte	$00
	.byte	$00
	.byte	$00
	.byte	$10
	.byte	$10
	.byte	$09
	.byte	$09
	.byte	$09
	.byte	$09
	.byte	$00
	.byte	$00
	.byte	$00
	.byte	$00
	.byte	$00
	.byte	$00
	.byte	$2F
	.byte	$29
	.byte	$08
	.byte	$08
	.byte	$00
	.byte	$29
	.byte	$2A
	.byte	$00
	.byte	$28
	.byte	$29
	.byte	$2A
	.byte	$00
	.byte	$10
	.byte	$05
	.byte	$09
	.byte	$09
	.byte	$09
	.byte	$09
	.byte	$00
	.byte	$00
	.byte	$2A
	.byte	$00
	.byte	$28
	.byte	$00
	.byte	$00
	.byte	$00
	.byte	$08
	.byte	$08
	.byte	$2A
	.byte	$00
	.byte	$00
	.byte	$29
	.byte	$2A
	.byte	$00
	.byte	$00
	.byte	$00
	.byte	$10
	.byte	$10
	.byte	$09
	.byte	$09
	.byte	$09
	.byte	$09
	.byte	$2A
	.byte	$00
	.byte	$28
	.byte	$00
	.byte	$00
	.byte	$00
	.byte	$00
	.byte	$29
	.byte	$08
	.byte	$08
	.byte	$00
	.byte	$00
	.byte	$2A
	.byte	$00
	.byte	$28
	.byte	$00
	.byte	$00
	.byte	$00
	.byte	$10
	.byte	$10
	.byte	$09
	.byte	$09
	.byte	$09
	.byte	$09
	.byte	$00
	.byte	$00
	.byte	$00
	.byte	$00
	.byte	$28
	.byte	$00
	.byte	$2F
	.byte	$00
	.byte	$08
	.byte	$08
	.byte	$00
	.byte	$00
	.byte	$28
	.byte	$00
	.byte	$2A
	.byte	$00
	.byte	$00
	.byte	$00
	.byte	$10
	.byte	$05
	.byte	$09
	.byte	$09
	.byte	$09
	.byte	$09
	.byte	$2A
	.byte	$00
	.byte	$00
	.byte	$00
	.byte	$2A
	.byte	$00
	.byte	$00
	.byte	$00
	.byte	$2A
	.byte	$00
	.byte	$00
	.byte	$00
	.byte	$2A
	.byte	$00
	.byte	$00
	.byte	$00
	.byte	$00
	.byte	$00
	.byte	$10
	.byte	$10
	.byte	$10
	.byte	$10
	.byte	$09
	.byte	$09
	.byte	$00
	.byte	$09
	.byte	$00
	.byte	$08
	.byte	$00
	.byte	$09
	.byte	$2A
	.byte	$09
	.byte	$28
	.byte	$08
	.byte	$2A
	.byte	$08
	.byte	$00
	.byte	$08
	.byte	$2A
	.byte	$08
	.byte	$28
	.byte	$09
	.byte	$10
	.byte	$09
	.byte	$10
	.byte	$09
_main_ts_tmaps_0:
	.byte	$00
	.byte	$01
	.byte	$01
	.byte	$07
	.byte	$07
	.byte	$09
	.byte	$0B
	.byte	$0B
	.byte	$0F
	.byte	$13
	.byte	$17
	.byte	$19
	.byte	$1D
	.byte	$21
	.byte	$25
	.byte	$28
	.byte	$2B
	.byte	$2D
	.byte	$31
	.byte	$34
	.byte	$0B
	.byte	$00
	.byte	$00
	.byte	$00
	.byte	$00
	.byte	$38
	.byte	$3C
	.byte	$40
	.byte	$44
	.byte	$48
	.byte	$4C
	.byte	$50
	.byte	$1D
	.byte	$00
	.byte	$00
	.byte	$00
	.byte	$51
	.byte	$52
	.byte	$00
	.byte	$20
	.byte	$56
	.byte	$00
	.byte	$00
	.byte	$00
	.byte	$59
	.byte	$5A
	.byte	$5E
	.byte	$62
	.byte	$66
	.byte	$59
	.byte	$68
	.byte	$6B
	.byte	$6D
	.byte	$68
	.byte	$59
	.byte	$6F
	.byte	$00
	.byte	$00
	.byte	$00
	.byte	$00
	.byte	$00
	.byte	$00
	.byte	$00
	.byte	$00
_main_ts_tmaps_1:
	.byte	$00
	.byte	$02
	.byte	$02
	.byte	$08
	.byte	$08
	.byte	$0A
	.byte	$0C
	.byte	$0C
	.byte	$10
	.byte	$14
	.byte	$18
	.byte	$1A
	.byte	$1E
	.byte	$22
	.byte	$26
	.byte	$29
	.byte	$2C
	.byte	$2E
	.byte	$32
	.byte	$35
	.byte	$0C
	.byte	$00
	.byte	$00
	.byte	$00
	.byte	$00
	.byte	$39
	.byte	$3D
	.byte	$41
	.byte	$45
	.byte	$49
	.byte	$4D
	.byte	$50
	.byte	$00
	.byte	$1E
	.byte	$00
	.byte	$00
	.byte	$51
	.byte	$53
	.byte	$00
	.byte	$1F
	.byte	$00
	.byte	$00
	.byte	$58
	.byte	$00
	.byte	$59
	.byte	$5B
	.byte	$5F
	.byte	$63
	.byte	$66
	.byte	$59
	.byte	$69
	.byte	$6B
	.byte	$6D
	.byte	$69
	.byte	$59
	.byte	$70
	.byte	$00
	.byte	$00
	.byte	$00
	.byte	$00
	.byte	$00
	.byte	$00
	.byte	$00
	.byte	$00
_main_ts_tmaps_2:
	.byte	$00
	.byte	$03
	.byte	$05
	.byte	$03
	.byte	$05
	.byte	$0B
	.byte	$0B
	.byte	$0D
	.byte	$11
	.byte	$15
	.byte	$17
	.byte	$1B
	.byte	$1F
	.byte	$23
	.byte	$24
	.byte	$27
	.byte	$17
	.byte	$2F
	.byte	$1B
	.byte	$0B
	.byte	$36
	.byte	$00
	.byte	$00
	.byte	$00
	.byte	$00
	.byte	$3A
	.byte	$3E
	.byte	$42
	.byte	$46
	.byte	$4A
	.byte	$4E
	.byte	$03
	.byte	$00
	.byte	$00
	.byte	$1F
	.byte	$00
	.byte	$00
	.byte	$54
	.byte	$00
	.byte	$1E
	.byte	$00
	.byte	$00
	.byte	$00
	.byte	$00
	.byte	$59
	.byte	$5C
	.byte	$60
	.byte	$64
	.byte	$59
	.byte	$67
	.byte	$6A
	.byte	$6C
	.byte	$6E
	.byte	$6C
	.byte	$59
	.byte	$71
	.byte	$00
	.byte	$00
	.byte	$00
	.byte	$00
	.byte	$00
	.byte	$00
	.byte	$00
	.byte	$00
_main_ts_tmaps_3:
	.byte	$00
	.byte	$04
	.byte	$06
	.byte	$04
	.byte	$06
	.byte	$0C
	.byte	$0C
	.byte	$0E
	.byte	$12
	.byte	$16
	.byte	$18
	.byte	$1C
	.byte	$20
	.byte	$24
	.byte	$27
	.byte	$2A
	.byte	$18
	.byte	$30
	.byte	$33
	.byte	$0C
	.byte	$37
	.byte	$00
	.byte	$00
	.byte	$00
	.byte	$00
	.byte	$3B
	.byte	$3F
	.byte	$43
	.byte	$47
	.byte	$4B
	.byte	$4F
	.byte	$04
	.byte	$00
	.byte	$00
	.byte	$00
	.byte	$20
	.byte	$00
	.byte	$55
	.byte	$00
	.byte	$1D
	.byte	$00
	.byte	$57
	.byte	$00
	.byte	$00
	.byte	$59
	.byte	$5D
	.byte	$61
	.byte	$65
	.byte	$59
	.byte	$67
	.byte	$6A
	.byte	$68
	.byte	$6E
	.byte	$68
	.byte	$59
	.byte	$72
	.byte	$00
	.byte	$00
	.byte	$00
	.byte	$00
	.byte	$00
	.byte	$00
	.byte	$00
	.byte	$00
_main_ts_pals:
	.byte	$00
	.byte	$00
	.byte	$00
	.byte	$00
	.byte	$00
	.byte	$02
	.byte	$02
	.byte	$02
	.byte	$02
	.byte	$02
	.byte	$03
	.byte	$01
	.byte	$01
	.byte	$01
	.byte	$01
	.byte	$01
	.byte	$03
	.byte	$00
	.byte	$01
	.byte	$02
	.byte	$02
	.byte	$00
	.byte	$00
	.byte	$00
	.byte	$00
	.byte	$00
	.byte	$00
	.byte	$00
	.byte	$00
	.byte	$02
	.byte	$02
	.byte	$00
	.byte	$01
	.byte	$01
	.byte	$01
	.byte	$01
	.byte	$02
	.byte	$02
	.byte	$00
	.byte	$01
	.byte	$02
	.byte	$02
	.byte	$02
	.byte	$00
	.byte	$00
	.byte	$00
	.byte	$00
	.byte	$00
	.byte	$00
	.byte	$00
	.byte	$02
	.byte	$02
	.byte	$02
	.byte	$02
	.byte	$00
	.byte	$00
	.byte	$00
	.byte	$00
	.byte	$00
	.byte	$00
	.byte	$00
	.byte	$00
	.byte	$00
	.byte	$00
_attr_lookup_0_0:
	.byte	$00
	.byte	$00
	.byte	$00
	.byte	$00
	.byte	$00
	.byte	$02
	.byte	$02
	.byte	$02
	.byte	$02
	.byte	$02
	.byte	$03
	.byte	$01
	.byte	$01
	.byte	$01
	.byte	$01
	.byte	$01
	.byte	$03
	.byte	$00
	.byte	$01
	.byte	$02
	.byte	$02
	.byte	$00
	.byte	$00
	.byte	$00
	.byte	$00
	.byte	$00
	.byte	$00
	.byte	$00
	.byte	$00
	.byte	$00
	.byte	$00
	.byte	$00
	.byte	$01
	.byte	$01
	.byte	$01
	.byte	$01
	.byte	$02
	.byte	$02
	.byte	$00
	.byte	$01
	.byte	$02
	.byte	$02
	.byte	$02
	.byte	$02
	.byte	$00
	.byte	$00
	.byte	$00
	.byte	$00
	.byte	$00
	.byte	$00
	.byte	$02
	.byte	$02
	.byte	$02
	.byte	$02
	.byte	$00
	.byte	$00
	.byte	$00
	.byte	$00
	.byte	$00
	.byte	$00
	.byte	$00
	.byte	$00
	.byte	$00
	.byte	$00
_attr_lookup_0_1:
	.byte	$00
	.byte	$00
	.byte	$00
	.byte	$00
	.byte	$00
	.byte	$08
	.byte	$08
	.byte	$08
	.byte	$08
	.byte	$08
	.byte	$0C
	.byte	$04
	.byte	$04
	.byte	$04
	.byte	$04
	.byte	$04
	.byte	$0C
	.byte	$00
	.byte	$04
	.byte	$08
	.byte	$08
	.byte	$00
	.byte	$00
	.byte	$00
	.byte	$00
	.byte	$00
	.byte	$00
	.byte	$00
	.byte	$00
	.byte	$00
	.byte	$00
	.byte	$00
	.byte	$04
	.byte	$04
	.byte	$04
	.byte	$04
	.byte	$08
	.byte	$08
	.byte	$00
	.byte	$04
	.byte	$08
	.byte	$08
	.byte	$08
	.byte	$08
	.byte	$00
	.byte	$00
	.byte	$00
	.byte	$00
	.byte	$00
	.byte	$00
	.byte	$08
	.byte	$08
	.byte	$08
	.byte	$08
	.byte	$00
	.byte	$00
	.byte	$00
	.byte	$00
	.byte	$00
	.byte	$00
	.byte	$00
	.byte	$00
	.byte	$00
	.byte	$00
_attr_lookup_0_2:
	.byte	$00
	.byte	$00
	.byte	$00
	.byte	$00
	.byte	$00
	.byte	$20
	.byte	$20
	.byte	$20
	.byte	$20
	.byte	$20
	.byte	$30
	.byte	$10
	.byte	$10
	.byte	$10
	.byte	$10
	.byte	$10
	.byte	$30
	.byte	$00
	.byte	$10
	.byte	$20
	.byte	$20
	.byte	$00
	.byte	$00
	.byte	$00
	.byte	$00
	.byte	$00
	.byte	$00
	.byte	$00
	.byte	$00
	.byte	$00
	.byte	$00
	.byte	$00
	.byte	$10
	.byte	$10
	.byte	$10
	.byte	$10
	.byte	$20
	.byte	$20
	.byte	$00
	.byte	$10
	.byte	$20
	.byte	$20
	.byte	$20
	.byte	$20
	.byte	$00
	.byte	$00
	.byte	$00
	.byte	$00
	.byte	$00
	.byte	$00
	.byte	$20
	.byte	$20
	.byte	$20
	.byte	$20
	.byte	$00
	.byte	$00
	.byte	$00
	.byte	$00
	.byte	$00
	.byte	$00
	.byte	$00
	.byte	$00
	.byte	$00
	.byte	$00
_attr_lookup_0_3:
	.byte	$00
	.byte	$00
	.byte	$00
	.byte	$00
	.byte	$00
	.byte	$80
	.byte	$80
	.byte	$80
	.byte	$80
	.byte	$80
	.byte	$C0
	.byte	$40
	.byte	$40
	.byte	$40
	.byte	$40
	.byte	$40
	.byte	$C0
	.byte	$00
	.byte	$40
	.byte	$80
	.byte	$80
	.byte	$00
	.byte	$00
	.byte	$00
	.byte	$00
	.byte	$00
	.byte	$00
	.byte	$00
	.byte	$00
	.byte	$00
	.byte	$00
	.byte	$00
	.byte	$40
	.byte	$40
	.byte	$40
	.byte	$40
	.byte	$80
	.byte	$80
	.byte	$00
	.byte	$40
	.byte	$80
	.byte	$80
	.byte	$80
	.byte	$80
	.byte	$00
	.byte	$00
	.byte	$00
	.byte	$00
	.byte	$00
	.byte	$00
	.byte	$80
	.byte	$80
	.byte	$80
	.byte	$80
	.byte	$00
	.byte	$00
	.byte	$00
	.byte	$00
	.byte	$00
	.byte	$00
	.byte	$00
	.byte	$00
	.byte	$00
	.byte	$00
.segment	"ROM1"
_main_ts_patterns_c:
	.byte	$40
	.byte	$00
	.byte	$70
	.byte	$00
	.byte	$5E
	.byte	$7C
	.byte	$73
	.byte	$1C
	.byte	$00
	.byte	$43
	.byte	$0A
	.byte	$7F
	.byte	$3F
	.byte	$3F
	.byte	$7F
	.byte	$A0
	.byte	$3C
	.byte	$9D
	.byte	$BF
	.byte	$00
	.byte	$9F
	.byte	$3F
	.byte	$7E
	.byte	$CE
	.byte	$BB
	.byte	$B3
	.byte	$C1
	.byte	$C0
	.byte	$00
	.byte	$E0
	.byte	$C0
	.byte	$80
	.byte	$30
	.byte	$7C
	.byte	$7C
	.byte	$3E
	.byte	$79
	.byte	$09
	.byte	$7C
	.byte	$38
	.byte	$C1
	.byte	$FF
	.byte	$9B
	.byte	$70
	.byte	$3E
	.byte	$9F
	.byte	$44
	.byte	$3E
	.byte	$10
	.byte	$3B
	.byte	$0F
	.byte	$FE
	.byte	$FF
	.byte	$80
	.byte	$B6
	.byte	$7A
	.byte	$20
	.byte	$DA
	.byte	$E6
	.byte	$18
	.byte	$47
	.byte	$78
	.byte	$FC
	.byte	$7C
	.byte	$18
	.byte	$3F
	.byte	$00
	.byte	$0F
	.byte	$0B
	.byte	$29
	.byte	$21
	.byte	$05
	.byte	$05
	.byte	$04
	.byte	$00
	.byte	$00
	.byte	$30
	.byte	$34
	.byte	$16
	.byte	$06
	.byte	$02
	.byte	$02
	.byte	$00
	.byte	$FE
	.byte	$00
	.byte	$DC
	.byte	$98
	.byte	$98
	.byte	$D8
	.byte	$98
	.byte	$38
	.byte	$10
	.byte	$00
	.byte	$06
	.byte	$20
	.byte	$60
	.byte	$60
	.byte	$20
	.byte	$20
	.byte	$08
	.byte	$6D
	.byte	$08
	.byte	$3B
	.byte	$77
	.byte	$07
	.byte	$F7
	.byte	$B7
	.byte	$53
	.byte	$5E
	.byte	$3F
	.byte	$08
	.byte	$36
	.byte	$08
	.byte	$45
	.byte	$08
	.byte	$65
	.byte	$40
	.byte	$23
	.byte	$CF
	.byte	$76
	.byte	$E7
	.byte	$B5
	.byte	$FB
	.byte	$FA
	.byte	$FF
	.byte	$80
	.byte	$10
	.byte	$47
	.byte	$7E
	.byte	$6E
	.byte	$04
	.byte	$04
	.byte	$3F
	.byte	$60
	.byte	$DF
	.byte	$00
	.byte	$AA
	.byte	$A5
	.byte	$D9
	.byte	$E2
	.byte	$7D
	.byte	$7F
	.byte	$FF
	.byte	$E0
	.byte	$00
	.byte	$DD
	.byte	$DE
	.byte	$E6
	.byte	$7D
	.byte	$03
	.byte	$FA
	.byte	$01
	.byte	$F9
	.byte	$00
	.byte	$55
	.byte	$A5
	.byte	$B9
	.byte	$C3
	.byte	$BE
	.byte	$FC
	.byte	$FE
	.byte	$06
	.byte	$02
	.byte	$EE
	.byte	$DE
	.byte	$DE
	.byte	$7C
	.byte	$C0
	.byte	$57
	.byte	$30
	.byte	$00
	.byte	$3F
	.byte	$A8
	.byte	$30
	.byte	$00
	.byte	$D2
	.byte	$30
	.byte	$00
	.byte	$FC
	.byte	$30
	.byte	$00
	.byte	$68
	.byte	$FF
	.byte	$AF
	.byte	$02
	.byte	$7F
	.byte	$50
	.byte	$FF
	.byte	$97
	.byte	$97
	.byte	$17
	.byte	$08
	.byte	$BF
	.byte	$00
	.byte	$41
	.byte	$2F
	.byte	$10
	.byte	$C3
	.byte	$2E
	.byte	$FD
	.byte	$E9
	.byte	$FE
	.byte	$16
	.byte	$83
	.byte	$01
	.byte	$E9
	.byte	$D0
	.byte	$FE
	.byte	$FE
	.byte	$00
	.byte	$E8
	.byte	$FE
	.byte	$84
	.byte	$03
	.byte	$7F
	.byte	$C7
	.byte	$84
	.byte	$8C
	.byte	$F8
	.byte	$C0
	.byte	$80
	.byte	$08
	.byte	$5F
	.byte	$80
	.byte	$28
	.byte	$00
	.byte	$FE
	.byte	$FD
	.byte	$03
	.byte	$03
	.byte	$63
	.byte	$93
	.byte	$63
	.byte	$65
	.byte	$03
	.byte	$9E
	.byte	$08
	.byte	$41
	.byte	$9C
	.byte	$7C
	.byte	$08
	.byte	$45
	.byte	$C0
	.byte	$E0
	.byte	$49
	.byte	$BF
	.byte	$30
	.byte	$1E
	.byte	$C0
	.byte	$00
	.byte	$08
	.byte	$87
	.byte	$C1
	.byte	$81
	.byte	$80
	.byte	$85
	.byte	$08
	.byte	$26
	.byte	$80
	.byte	$00
	.byte	$3E
	.byte	$7E
	.byte	$80
	.byte	$00
	.byte	$8F
	.byte	$82
	.byte	$93
	.byte	$C8
	.byte	$D4
	.byte	$C8
	.byte	$C1
	.byte	$C1
	.byte	$10
	.byte	$3F
	.byte	$F7
	.byte	$3B
	.byte	$EF
	.byte	$FF
	.byte	$08
	.byte	$50
	.byte	$10
	.byte	$3F
	.byte	$08
	.byte	$40
	.byte	$FF
	.byte	$08
	.byte	$22
	.byte	$08
	.byte	$3F
	.byte	$B1
	.byte	$10
	.byte	$81
	.byte	$00
	.byte	$08
	.byte	$22
	.byte	$99
	.byte	$BC
	.byte	$82
	.byte	$FC
	.byte	$10
	.byte	$3F
	.byte	$BF
	.byte	$08
	.byte	$6E
	.byte	$C3
	.byte	$20
	.byte	$3F
	.byte	$10
	.byte	$3B
	.byte	$10
	.byte	$20
	.byte	$08
	.byte	$66
	.byte	$08
	.byte	$3C
	.byte	$18
	.byte	$A1
	.byte	$C2
	.byte	$08
	.byte	$FF
	.byte	$11
	.byte	$2E
	.byte	$0F
	.byte	$07
	.byte	$C0
	.byte	$F0
	.byte	$08
	.byte	$67
	.byte	$F8
	.byte	$D0
	.byte	$11
	.byte	$39
	.byte	$09
	.byte	$2C
	.byte	$03
	.byte	$18
	.byte	$F7
	.byte	$F0
	.byte	$00
	.byte	$07
	.byte	$3F
	.byte	$BC
	.byte	$82
	.byte	$1F
	.byte	$11
	.byte	$49
	.byte	$08
	.byte	$99
	.byte	$19
	.byte	$8F
	.byte	$09
	.byte	$3C
	.byte	$10
	.byte	$0C
	.byte	$86
	.byte	$19
	.byte	$97
	.byte	$08
	.byte	$10
	.byte	$10
	.byte	$1C
	.byte	$11
	.byte	$9F
	.byte	$8D
	.byte	$40
	.byte	$34
	.byte	$44
	.byte	$38
	.byte	$11
	.byte	$A7
	.byte	$09
	.byte	$42
	.byte	$40
	.byte	$09
	.byte	$42
	.byte	$1A
	.byte	$21
	.byte	$08
	.byte	$10
	.byte	$32
	.byte	$73
	.byte	$44
	.byte	$08
	.byte	$8D
	.byte	$5C
	.byte	$7E
	.byte	$3F
	.byte	$10
	.byte	$7D
	.byte	$7C
	.byte	$FB
	.byte	$09
	.byte	$7C
	.byte	$2C
	.byte	$4C
	.byte	$CC
	.byte	$86
	.byte	$00
	.byte	$C1
	.byte	$65
	.byte	$23
	.byte	$47
	.byte	$30
	.byte	$70
	.byte	$70
	.byte	$78
	.byte	$0D
	.byte	$3E
	.byte	$9A
	.byte	$DC
	.byte	$B8
	.byte	$10
	.byte	$3E
	.byte	$09
	.byte	$44
	.byte	$08
	.byte	$10
	.byte	$33
	.byte	$01
	.byte	$A8
	.byte	$6C
	.byte	$68
	.byte	$58
	.byte	$D0
	.byte	$71
	.byte	$02
	.byte	$08
	.byte	$4C
	.byte	$40
	.byte	$02
	.byte	$21
	.byte	$E2
	.byte	$40
	.byte	$38
	.byte	$0C
	.byte	$76
	.byte	$7A
	.byte	$BE
	.byte	$40
	.byte	$03
	.byte	$40
	.byte	$0F
	.byte	$70
	.byte	$C8
	.byte	$F4
	.byte	$7A
	.byte	$7A
	.byte	$3E
	.byte	$2C
	.byte	$1C
	.byte	$20
	.byte	$08
	.byte	$6A
	.byte	$08
	.byte	$09
	.byte	$74
	.byte	$18
	.byte	$6B
	.byte	$60
	.byte	$F0
	.byte	$04
	.byte	$E8
	.byte	$D8
	.byte	$BC
	.byte	$F8
	.byte	$60
	.byte	$2A
	.byte	$0F
	.byte	$02
	.byte	$05
	.byte	$C0
	.byte	$38
	.byte	$07
	.byte	$09
	.byte	$1D
	.byte	$01
	.byte	$81
	.byte	$89
	.byte	$7E
	.byte	$1C
	.byte	$1E
	.byte	$88
	.byte	$09
	.byte	$25
	.byte	$41
	.byte	$85
	.byte	$89
	.byte	$11
	.byte	$B1
	.byte	$11
	.byte	$08
	.byte	$09
	.byte	$00
	.byte	$11
	.byte	$3E
	.byte	$2C
	.byte	$F8
	.byte	$F8
	.byte	$11
	.byte	$0B
	.byte	$4B
	.byte	$10
	.byte	$37
	.byte	$3F
	.byte	$BF
	.byte	$09
	.byte	$FC
	.byte	$9A
	.byte	$C8
	.byte	$F2
	.byte	$E3
	.byte	$00
	.byte	$C1
	.byte	$83
	.byte	$8E
	.byte	$CF
	.byte	$FD
	.byte	$FF
	.byte	$FD
	.byte	$FC
	.byte	$A0
	.byte	$09
	.byte	$42
	.byte	$F1
	.byte	$08
	.byte	$CA
	.byte	$18
	.byte	$A5
	.byte	$80
	.byte	$C6
	.byte	$F3
	.byte	$21
	.byte	$71
	.byte	$91
	.byte	$87
	.byte	$A6
	.byte	$9F
	.byte	$F9
	.byte	$FC
	.byte	$09
	.byte	$74
	.byte	$04
	.byte	$41
	.byte	$12
	.byte	$0A
	.byte	$9E
	.byte	$07
	.byte	$09
	.byte	$62
	.byte	$26
	.byte	$C0
	.byte	$0A
	.byte	$24
	.byte	$34
	.byte	$E1
	.byte	$F8
	.byte	$09
	.byte	$A4
	.byte	$D9
	.byte	$0A
	.byte	$5C
	.byte	$D0
	.byte	$00
	.byte	$F0
	.byte	$98
	.byte	$0F
	.byte	$0C
	.byte	$10
	.byte	$E3
	.byte	$FF
	.byte	$2F
	.byte	$02
	.byte	$0F
	.byte	$67
	.byte	$F0
	.byte	$F3
	.byte	$EF
	.byte	$00
	.byte	$8A
	.byte	$11
	.byte	$08
	.byte	$20
	.byte	$72
	.byte	$24
	.byte	$27
	.byte	$18
	.byte	$DE
	.byte	$47
	.byte	$8C
	.byte	$D8
	.byte	$4F
	.byte	$D8
	.byte	$12
	.byte	$8F
	.byte	$80
	.byte	$40
	.byte	$08
	.byte	$FF
	.byte	$0A
	.byte	$29
	.byte	$C8
	.byte	$10
	.byte	$B6
	.byte	$00
	.byte	$88
	.byte	$80
	.byte	$08
	.byte	$44
	.byte	$2D
	.byte	$3D
	.byte	$7F
	.byte	$E3
	.byte	$05
	.byte	$50
	.byte	$00
	.byte	$C0
	.byte	$A0
	.byte	$D0
	.byte	$0A
	.byte	$82
	.byte	$1C
	.byte	$11
	.byte	$37
	.byte	$E3
	.byte	$61
	.byte	$3F
	.byte	$11
	.byte	$37
	.byte	$61
	.byte	$3F
	.byte	$6F
	.byte	$70
	.byte	$DE
	.byte	$09
	.byte	$5D
	.byte	$12
	.byte	$93
	.byte	$70
	.byte	$1F
	.byte	$0A
	.byte	$20
	.byte	$0A
	.byte	$8A
	.byte	$0A
	.byte	$DC
	.byte	$60
	.byte	$BE
	.byte	$3E
	.byte	$3F
	.byte	$8E
	.byte	$0A
	.byte	$4A
	.byte	$7B
	.byte	$F1
	.byte	$82
	.byte	$11
	.byte	$F2
	.byte	$09
	.byte	$C2
	.byte	$0A
	.byte	$44
	.byte	$7C
	.byte	$09
	.byte	$7D
	.byte	$1E
	.byte	$28
	.byte	$78
	.byte	$09
	.byte	$F4
	.byte	$FB
	.byte	$6E
	.byte	$96
	.byte	$08
	.byte	$1F
	.byte	$07
	.byte	$00
	.byte	$01
	.byte	$09
	.byte	$74
	.byte	$C6
	.byte	$7C
	.byte	$1C
	.byte	$00
	.byte	$74
	.byte	$E4
	.byte	$1C
	.byte	$BE
	.byte	$7E
	.byte	$38
	.byte	$80
	.byte	$E0
	.byte	$20
	.byte	$88
	.byte	$18
	.byte	$12
	.byte	$E3
	.byte	$02
	.byte	$01
	.byte	$21
	.byte	$42
	.byte	$44
	.byte	$60
	.byte	$10
	.byte	$08
	.byte	$95
	.byte	$11
	.byte	$6D
	.byte	$54
	.byte	$58
	.byte	$18
	.byte	$08
	.byte	$18
	.byte	$D8
	.byte	$19
	.byte	$87
	.byte	$11
	.byte	$21
	.byte	$30
	.byte	$21
	.byte	$87
	.byte	$09
	.byte	$91
	.byte	$78
	.byte	$6A
	.byte	$84
	.byte	$8A
	.byte	$09
	.byte	$50
	.byte	$AA
	.byte	$C7
	.byte	$C7
	.byte	$09
	.byte	$B3
	.byte	$F8
	.byte	$08
	.byte	$DD
	.byte	$F4
	.byte	$80
	.byte	$09
	.byte	$06
	.byte	$F0
	.byte	$3F
	.byte	$68
	.byte	$70
	.byte	$7C
	.byte	$5F
	.byte	$57
	.byte	$08
	.byte	$5E
	.byte	$57
	.byte	$00
	.byte	$17
	.byte	$09
	.byte	$CB
	.byte	$20
	.byte	$38
	.byte	$37
	.byte	$10
	.byte	$2F
	.byte	$C0
	.byte	$08
	.byte	$0A
	.byte	$F4
	.byte	$C6
	.byte	$FE
	.byte	$D2
	.byte	$52
	.byte	$3A
	.byte	$00
	.byte	$F0
	.byte	$0A
	.byte	$91
	.byte	$09
	.byte	$B4
	.byte	$0A
	.byte	$50
	.byte	$51
	.byte	$9A
	.byte	$23
	.byte	$54
	.byte	$1F
	.byte	$13
	.byte	$64
	.byte	$3F
	.byte	$9A
	.byte	$1F
	.byte	$1B
	.byte	$6B
	.byte	$D2
	.byte	$D6
	.byte	$3E
	.byte	$4C
	.byte	$70
	.byte	$10
	.byte	$D7
	.byte	$08
	.byte	$8A
	.byte	$08
	.byte	$3A
	.byte	$A6
	.byte	$22
	.byte	$4F
	.byte	$C7
	.byte	$08
	.byte	$CC
	.byte	$CC
	.byte	$DF
	.byte	$DF
	.byte	$52
	.byte	$8F
	.byte	$C3
	.byte	$23
	.byte	$73
	.byte	$20
	.byte	$0B
	.byte	$83
	.byte	$22
	.byte	$4F
	.byte	$8C
	.byte	$F4
	.byte	$FC
	.byte	$DD
	.byte	$D0
	.byte	$B8
	.byte	$80
	.byte	$CF
	.byte	$1A
	.byte	$8F
	.byte	$1A
	.byte	$1D
	.byte	$12
	.byte	$8F
	.byte	$0B
	.byte	$1B
	.byte	$7B
	.byte	$24
	.byte	$FB
	.byte	$F3
	.byte	$12
	.byte	$4F
	.byte	$F4
	.byte	$E4
	.byte	$08
	.byte	$88
	.byte	$0C
	.byte	$FC
	.byte	$B0
	.byte	$28
	.byte	$3F
	.byte	$C8
	.byte	$A0
	.byte	$52
	.byte	$CF
	.byte	$FB
	.byte	$17
	.byte	$1F
	.byte	$13
	.byte	$61
	.byte	$13
	.byte	$0A
	.byte	$CF
	.byte	$08
	.byte	$9E
	.byte	$E8
	.byte	$E0
	.byte	$EC
	.byte	$EC
	.byte	$9B
	.byte	$78
	.byte	$DF
	.byte	$20
	.byte	$3F
	.byte	$22
	.byte	$67
	.byte	$12
	.byte	$CF
	.byte	$99
	.byte	$D3
	.byte	$53
	.byte	$E3
	.byte	$A4
	.byte	$12
	.byte	$8F
	.byte	$EC
	.byte	$9A
	.byte	$AC
	.byte	$1C
	.byte	$28
	.byte	$3F
	.byte	$C3
	.byte	$C5
	.byte	$BB
	.byte	$A0
	.byte	$7F
	.byte	$13
	.byte	$0A
	.byte	$C0
	.byte	$18
	.byte	$7F
	.byte	$A3
	.byte	$A0
	.byte	$13
	.byte	$0F
	.byte	$20
	.byte	$BC
	.byte	$DC
	.byte	$A0
	.byte	$C3
	.byte	$C4
	.byte	$CB
	.byte	$C9
	.byte	$C6
	.byte	$FB
	.byte	$12
	.byte	$CF
	.byte	$0B
	.byte	$E7
	.byte	$0B
	.byte	$81
	.byte	$1B
	.byte	$0F
	.byte	$08
	.byte	$9C
	.byte	$D3
	.byte	$0B
	.byte	$2D
	.byte	$12
	.byte	$CF
	.byte	$88
	.byte	$9C
	.byte	$AC
	.byte	$EC
	.byte	$9C
	.byte	$1A
	.byte	$CF
	.byte	$80
	.byte	$83
	.byte	$84
	.byte	$5F
	.byte	$88
	.byte	$80
	.byte	$84
	.byte	$0C
	.byte	$06
	.byte	$10
	.byte	$D1
	.byte	$80
	.byte	$0A
	.byte	$D5
	.byte	$0A
	.byte	$2E
	.byte	$29
	.byte	$21
	.byte	$11
	.byte	$80
	.byte	$21
	.byte	$12
	.byte	$F1
	.byte	$3E
	.byte	$1E
	.byte	$80
	.byte	$00
	.byte	$3E
	.byte	$82
	.byte	$80
	.byte	$84
	.byte	$80
	.byte	$88
	.byte	$87
	.byte	$80
	.byte	$7A
	.byte	$7F
	.byte	$0B
	.byte	$9F
	.byte	$09
	.byte	$2C
	.byte	$09
	.byte	$97
	.byte	$08
	.byte	$2D
	.byte	$41
	.byte	$09
	.byte	$5F
	.byte	$01
	.byte	$0F
	.byte	$11
	.byte	$F1
	.byte	$01
	.byte	$FF
	.byte	$9D
	.byte	$BE
	.byte	$0B
	.byte	$93
	.byte	$0C
	.byte	$7E
	.byte	$01
	.byte	$06
	.byte	$00
	.byte	$12
	.byte	$02
	.byte	$12
	.byte	$42
	.byte	$12
	.byte	$12
	.byte	$A7
	.byte	$0C
	.byte	$22
	.byte	$12
	.byte	$12
	.byte	$92
	.byte	$09
	.byte	$37
	.byte	$0A
	.byte	$81
	.byte	$26
	.byte	$22
	.byte	$CC
	.byte	$A0
	.byte	$0A
	.byte	$B0
	.byte	$20
	.byte	$24
	.byte	$C7
	.byte	$9B
	.byte	$0B
	.byte	$B2
	.byte	$42
	.byte	$02
	.byte	$10
	.byte	$21
	.byte	$52
	.byte	$52
	.byte	$56
	.byte	$52
	.byte	$C0
	.byte	$23
	.byte	$26
	.byte	$32
	.byte	$22
	.byte	$E0
	.byte	$2E
	.byte	$E2
	.byte	$87
	.byte	$FF
	.byte	$BB
	.byte	$F1
	.byte	$9D
	.byte	$DF
	.byte	$BE
	.byte	$FF
	.byte	$22
	.byte	$33
	.byte	$22
	.byte	$28
	.byte	$20
	.byte	$62
	.byte	$EE
	.byte	$28
	.byte	$1F
	.byte	$10
	.byte	$3B
	.byte	$BA
	.byte	$03
	.byte	$12
	.byte	$0C
	.byte	$87
	.byte	$52
	.byte	$E0
	.byte	$30
	.byte	$40
	.byte	$10
	.byte	$5B
	.byte	$60
	.byte	$22
	.byte	$FF
	.byte	$92
	.byte	$42
	.byte	$02
	.byte	$86
	.byte	$09
	.byte	$CE
	.byte	$FE
	.byte	$81
	.byte	$7E
	.byte	$0A
	.byte	$BF
	.byte	$FD
	.byte	$FB
	.byte	$0B
	.byte	$D1
	.byte	$2F
	.byte	$7E
	.byte	$FE
	.byte	$0B
	.byte	$ED
	.byte	$7F
	.byte	$1D
	.byte	$13
	.byte	$13
	.byte	$DA
	.byte	$31
	.byte	$9F
	.byte	$14
	.byte	$11
	.byte	$C4
	.byte	$54
	.byte	$2F
	.byte	$23
	.byte	$EF
	.byte	$73
	.byte	$EB
	.byte	$CB
	.byte	$29
	.byte	$9F
	.byte	$1C
	.byte	$3C
	.byte	$AE
	.byte	$0C
	.byte	$4A
	.byte	$BE
	.byte	$14
	.byte	$1F
	.byte	$80
	.byte	$0C
	.byte	$4E
	.byte	$0C
	.byte	$27
	.byte	$1C
	.byte	$C2
	.byte	$00
	.byte	$1F
	.byte	$9B
	.byte	$73
	.byte	$03
	.byte	$1B
	.byte	$EF
	.byte	$0A
	.byte	$68
	.byte	$24
	.byte	$90
	.byte	$13
	.byte	$BC
	.byte	$0B
	.byte	$C3
	.byte	$1A
	.byte	$28
	.byte	$D6
	.byte	$28
	.byte	$0B
	.byte	$C8
	.byte	$1B
	.byte	$C6
	.byte	$38
	.byte	$C5
	.byte	$22
	.byte	$08
	.byte	$08
	.byte	$1C
	.byte	$08
	.byte	$22
	.byte	$1D
	.byte	$75
	.byte	$14
	.byte	$08
	.byte	$14
	.byte	$F4
	.byte	$15
	.byte	$7C
	.byte	$23
	.byte	$E7
	.byte	$50
	.byte	$07
	.byte	$0B
	.byte	$47
	.byte	$40
	.byte	$0A
	.byte	$0C
	.byte	$FF
	.byte	$04
	.byte	$33
	.byte	$FD
	.byte	$02
	.byte	$0D
	.byte	$79
	.byte	$15
	.byte	$2E
	.byte	$FB
	.byte	$02
	.byte	$AF
	.byte	$14
	.byte	$AD
	.byte	$34
	.byte	$04
	.byte	$FC
	.byte	$0D
	.byte	$49
	.byte	$1A
	.byte	$35
	.byte	$F8
	.byte	$DF
	.byte	$5F
	.byte	$5F
	.byte	$0C
	.byte	$7F
	.byte	$04
	.byte	$05
	.byte	$02
	.byte	$0C
	.byte	$99
	.byte	$0D
	.byte	$50
	.byte	$40
	.byte	$07
	.byte	$7F
	.byte	$06
	.byte	$0C
	.byte	$F7
	.byte	$DF
	.byte	$08
	.byte	$2F
	.byte	$23
	.byte	$2D
	.byte	$10
	.byte	$2F
	.byte	$0D
	.byte	$7A
	.byte	$DF
	.byte	$9C
	.byte	$08
	.byte	$3F
	.byte	$06
	.byte	$06
	.byte	$DF
	.byte	$08
	.byte	$3F
	.byte	$28
	.byte	$4F
	.byte	$07
	.byte	$FE
	.byte	$A7
	.byte	$30
	.byte	$4F
	.byte	$03
	.byte	$28
	.byte	$5F
	.byte	$FA
	.byte	$03
	.byte	$28
	.byte	$5F
	.byte	$0B
	.byte	$B3
	.byte	$15
	.byte	$11
	.byte	$4B
	.byte	$E0
	.byte	$80
	.byte	$3F
	.byte	$E0
	.byte	$0D
	.byte	$05
	.byte	$BF
	.byte	$15
	.byte	$52
	.byte	$0C
	.byte	$EF
	.byte	$81
	.byte	$0D
	.byte	$B2
	.byte	$BE
	.byte	$20
	.byte	$2F
	.byte	$2F
	.byte	$E4
	.byte	$0D
	.byte	$2D
	.byte	$09
	.byte	$41
	.byte	$0B
	.byte	$18
	.byte	$7F
	.byte	$E0
	.byte	$C7
	.byte	$EF
	.byte	$20
	.byte	$C0
	.byte	$10
	.byte	$8F
	.byte	$48
	.byte	$00
	.byte	$0A
	.byte	$C7
	.byte	$CF
	.byte	$1F
	.byte	$10
	.byte	$9F
	.byte	$03
	.byte	$43
	.byte	$F3
	.byte	$38
	.byte	$31
	.byte	$19
	.byte	$AF
	.byte	$10
	.byte	$8D
	.byte	$0E
	.byte	$15
	.byte	$C3
	.byte	$87
	.byte	$8F
	.byte	$88
	.byte	$A0
	.byte	$47
	.byte	$E0
	.byte	$1F
	.byte	$25
	.byte	$90
	.byte	$9F
	.byte	$0F
	.byte	$18
	.byte	$21
	.byte	$8C
	.byte	$CC
	.byte	$A0
	.byte	$98
	.byte	$31
	.byte	$E0
	.byte	$F0
	.byte	$C0
	.byte	$C4
	.byte	$0E
	.byte	$34
	.byte	$26
	.byte	$5F
	.byte	$88
	.byte	$55
	.byte	$22
	.byte	$2D
	.byte	$6E
	.byte	$77
	.byte	$22
	.byte	$11
	.byte	$44
	.byte	$AA
	.byte	$11
	.byte	$2E
	.byte	$72
	.byte	$44
	.byte	$EE
	.byte	$FF
	.byte	$58
	.byte	$00
	.byte	$F7
	.byte	$3E
	.byte	$87
	.byte	$38
	.byte	$0F
	.byte	$24
	.byte	$FE
	.byte	$0C
	.byte	$F0
	.byte	$80
	.byte	$38
	.byte	$37
	.byte	$38
	.byte	$47
	.byte	$38
	.byte	$37
	.byte	$CE
	.byte	$10
	.byte	$47
	.byte	$60
	.byte	$2F
	.byte	$01
	.byte	$02
	.byte	$0C
	.byte	$F5
	.byte	$0E
	.byte	$63
	.byte	$40
	.byte	$3F
	.byte	$BB
	.byte	$DE
	.byte	$28
	.byte	$64
	.byte	$08
	.byte	$6D
	.byte	$55
	.byte	$30
	.byte	$66
	.byte	$18
	.byte	$75
	.byte	$31
	.byte	$CF
	.byte	$13
	.byte	$30
	.byte	$D3
	.byte	$6C
	.byte	$D6
	.byte	$1D
	.byte	$FF
	.byte	$12
	.byte	$B3
	.byte	$F9
	.byte	$15
	.byte	$FF
	.byte	$0A
	.byte	$D1
	.byte	$0B
	.byte	$D3
	.byte	$60
	.byte	$23
	.byte	$0D
	.byte	$BF
	.byte	$1E
	.byte	$41
	.byte	$2C
	.byte	$DC
	.byte	$D4
	.byte	$D3
	.byte	$C8
	.byte	$4E
	.byte	$C7
	.byte	$1D
	.byte	$FF
	.byte	$FB
	.byte	$FC
	.byte	$0A
	.byte	$F0
	.byte	$1D
	.byte	$FF
	.byte	$08
	.byte	$EC
	.byte	$03
	.byte	$66
	.byte	$A3
	.byte	$15
	.byte	$BF
	.byte	$13
	.byte	$0D
	.byte	$FC
	.byte	$5C
	.byte	$1D
	.byte	$BF
	.byte	$00
_main_ss_patterns_c:
	.byte	$00
	.byte	$00
	.byte	$04
	.byte	$08
	.byte	$08
	.byte	$10
	.byte	$11
	.byte	$75
	.byte	$97
	.byte	$04
	.byte	$00
	.byte	$03
	.byte	$07
	.byte	$07
	.byte	$0F
	.byte	$80
	.byte	$6F
	.byte	$00
	.byte	$82
	.byte	$A0
	.byte	$80
	.byte	$F0
	.byte	$F8
	.byte	$68
	.byte	$00
	.byte	$83
	.byte	$FC
	.byte	$00
	.byte	$FC
	.byte	$6C
	.byte	$6C
	.byte	$F8
	.byte	$B3
	.byte	$A7
	.byte	$8F
	.byte	$5D
	.byte	$00
	.byte	$3D
	.byte	$3A
	.byte	$37
	.byte	$3F
	.byte	$4D
	.byte	$58
	.byte	$77
	.byte	$2F
	.byte	$00
	.byte	$0B
	.byte	$11
	.byte	$13
	.byte	$17
	.byte	$F0
	.byte	$E0
	.byte	$F0
	.byte	$B0
	.byte	$01
	.byte	$B0
	.byte	$40
	.byte	$F8
	.byte	$F8
	.byte	$F0
	.byte	$D0
	.byte	$E0
	.byte	$A4
	.byte	$02
	.byte	$E8
	.byte	$E8
	.byte	$3B
	.byte	$3B
	.byte	$1F
	.byte	$07
	.byte	$C0
	.byte	$1F
	.byte	$21
	.byte	$1F
	.byte	$03
	.byte	$E0
	.byte	$BC
	.byte	$7C
	.byte	$78
	.byte	$70
	.byte	$80
	.byte	$89
	.byte	$08
	.byte	$40
	.byte	$EC
	.byte	$EC
	.byte	$E0
	.byte	$A0
	.byte	$60
	.byte	$B0
	.byte	$08
	.byte	$4F
	.byte	$01
	.byte	$01
	.byte	$02
	.byte	$02
	.byte	$04
	.byte	$04
	.byte	$65
	.byte	$00
	.byte	$A8
	.byte	$51
	.byte	$01
	.byte	$10
	.byte	$22
	.byte	$00
	.byte	$18
	.byte	$60
	.byte	$10
	.byte	$3E
	.byte	$BE
	.byte	$08
	.byte	$67
	.byte	$00
	.byte	$FC
	.byte	$FE
	.byte	$FF
	.byte	$FF
	.byte	$ED
	.byte	$ED
	.byte	$8D
	.byte	$B1
	.byte	$08
	.byte	$83
	.byte	$7F
	.byte	$02
	.byte	$05
	.byte	$08
	.byte	$79
	.byte	$63
	.byte	$4E
	.byte	$7D
	.byte	$C0
	.byte	$BF
	.byte	$08
	.byte	$82
	.byte	$EC
	.byte	$FE
	.byte	$AC
	.byte	$B8
	.byte	$C6
	.byte	$7E
	.byte	$04
	.byte	$B0
	.byte	$C0
	.byte	$FE
	.byte	$7C
	.byte	$F0
	.byte	$08
	.byte	$20
	.byte	$FE
	.byte	$C0
	.byte	$01
	.byte	$F0
	.byte	$1F
	.byte	$7F
	.byte	$DE
	.byte	$FC
	.byte	$F8
	.byte	$80
	.byte	$08
	.byte	$95
	.byte	$88
	.byte	$08
	.byte	$9B
	.byte	$6E
	.byte	$FC
	.byte	$98
	.byte	$18
	.byte	$9B
	.byte	$80
	.byte	$60
	.byte	$11
	.byte	$20
	.byte	$0B
	.byte	$07
	.byte	$08
	.byte	$A5
	.byte	$F8
	.byte	$78
	.byte	$1C
	.byte	$0D
	.byte	$07
	.byte	$E3
	.byte	$18
	.byte	$4D
	.byte	$08
	.byte	$5C
	.byte	$10
	.byte	$C1
	.byte	$0B
	.byte	$3B
	.byte	$00
	.byte	$10
	.byte	$5C
	.byte	$18
	.byte	$88
	.byte	$86
	.byte	$18
	.byte	$BF
	.byte	$20
	.byte	$7C
	.byte	$7C
	.byte	$D8
	.byte	$08
	.byte	$20
	.byte	$10
	.byte	$3E
	.byte	$DA
	.byte	$00
	.byte	$DA
	.byte	$FC
	.byte	$4B
	.byte	$57
	.byte	$47
	.byte	$26
	.byte	$1E
	.byte	$0B
	.byte	$80
	.byte	$08
	.byte	$9D
	.byte	$34
	.byte	$2B
	.byte	$3B
	.byte	$1B
	.byte	$03
	.byte	$05
	.byte	$0E
	.byte	$00
	.byte	$0F
	.byte	$FC
	.byte	$58
	.byte	$E0
	.byte	$C0
	.byte	$30
	.byte	$F0
	.byte	$10
	.byte	$FA
	.byte	$08
	.byte	$E1
	.byte	$08
	.byte	$C7
	.byte	$80
	.byte	$08
	.byte	$CC
	.byte	$08
	.byte	$5F
	.byte	$0E
	.byte	$08
	.byte	$F7
	.byte	$06
	.byte	$54
	.byte	$06
	.byte	$08
	.byte	$A2
	.byte	$0F
	.byte	$18
	.byte	$9C
	.byte	$01
	.byte	$08
	.byte	$A2
	.byte	$F0
	.byte	$30
	.byte	$3D
	.byte	$E0
	.byte	$80
	.byte	$19
	.byte	$03
	.byte	$BC
	.byte	$88
	.byte	$08
	.byte	$6C
	.byte	$C0
	.byte	$30
	.byte	$BF
	.byte	$64
	.byte	$64
	.byte	$58
	.byte	$BF
	.byte	$09
	.byte	$33
	.byte	$0E
	.byte	$DE
	.byte	$28
	.byte	$BF
	.byte	$FB
	.byte	$FA
	.byte	$04
	.byte	$88
	.byte	$BF
	.byte	$9F
	.byte	$7D
	.byte	$33
	.byte	$09
	.byte	$04
	.byte	$17
	.byte	$67
	.byte	$00
	.byte	$40
	.byte	$6F
	.byte	$13
	.byte	$11
	.byte	$19
	.byte	$1F
	.byte	$0F
	.byte	$FA
	.byte	$02
	.byte	$FE
	.byte	$CC
	.byte	$E8
	.byte	$68
	.byte	$90
	.byte	$00
	.byte	$08
	.byte	$BF
	.byte	$3C
	.byte	$80
	.byte	$09
	.byte	$44
	.byte	$FB
	.byte	$EF
	.byte	$C0
	.byte	$E0
	.byte	$1F
	.byte	$77
	.byte	$91
	.byte	$1B
	.byte	$01
	.byte	$62
	.byte	$9C
	.byte	$08
	.byte	$BF
	.byte	$11
	.byte	$5A
	.byte	$FE
	.byte	$A6
	.byte	$19
	.byte	$56
	.byte	$39
	.byte	$FD
	.byte	$0F
	.byte	$18
	.byte	$BF
	.byte	$09
	.byte	$5E
	.byte	$50
	.byte	$BF
	.byte	$09
	.byte	$39
	.byte	$58
	.byte	$BF
	.byte	$09
	.byte	$08
	.byte	$1C
	.byte	$BC
	.byte	$F4
	.byte	$20
	.byte	$BF
	.byte	$F6
	.byte	$F4
	.byte	$28
	.byte	$BF
	.byte	$19
	.byte	$07
	.byte	$0B
	.byte	$0B
	.byte	$18
	.byte	$BF
	.byte	$08
	.byte	$9F
	.byte	$06
	.byte	$07
	.byte	$20
	.byte	$BF
	.byte	$90
	.byte	$08
	.byte	$A4
	.byte	$C0
	.byte	$78
	.byte	$20
	.byte	$BF
	.byte	$C0
	.byte	$F8
	.byte	$0B
	.byte	$05
	.byte	$34
	.byte	$0B
	.byte	$09
	.byte	$83
	.byte	$09
	.byte	$5A
	.byte	$07
	.byte	$08
	.byte	$DC
	.byte	$06
	.byte	$04
	.byte	$CF
	.byte	$09
	.byte	$BC
	.byte	$08
	.byte	$78
	.byte	$C0
	.byte	$D8
	.byte	$08
	.byte	$E0
	.byte	$84
	.byte	$11
	.byte	$9C
	.byte	$86
	.byte	$80
	.byte	$C7
	.byte	$02
	.byte	$74
	.byte	$84
	.byte	$A4
	.byte	$B8
	.byte	$9F
	.byte	$7F
	.byte	$40
	.byte	$63
	.byte	$09
	.byte	$7B
	.byte	$73
	.byte	$53
	.byte	$47
	.byte	$60
	.byte	$1F
	.byte	$3F
	.byte	$A7
	.byte	$11
	.byte	$DF
	.byte	$30
	.byte	$11
	.byte	$1E
	.byte	$7C
	.byte	$F8
	.byte	$09
	.byte	$7D
	.byte	$09
	.byte	$1E
	.byte	$A6
	.byte	$02
	.byte	$61
	.byte	$73
	.byte	$77
	.byte	$3A
	.byte	$17
	.byte	$1F
	.byte	$09
	.byte	$BD
	.byte	$33
	.byte	$31
	.byte	$31
	.byte	$31
	.byte	$09
	.byte	$FF
	.byte	$12
	.byte	$00
	.byte	$D8
	.byte	$F0
	.byte	$08
	.byte	$09
	.byte	$FD
	.byte	$1E
	.byte	$D8
	.byte	$B0
	.byte	$60
	.byte	$09
	.byte	$DD
	.byte	$0A
	.byte	$04
	.byte	$09
	.byte	$E5
	.byte	$09
	.byte	$23
	.byte	$0E
	.byte	$FD
	.byte	$09
	.byte	$51
	.byte	$21
	.byte	$B2
	.byte	$86
	.byte	$28
	.byte	$07
	.byte	$18
	.byte	$5C
	.byte	$11
	.byte	$17
	.byte	$40
	.byte	$19
	.byte	$DC
	.byte	$A2
	.byte	$A0
	.byte	$20
	.byte	$20
	.byte	$5F
	.byte	$83
	.byte	$47
	.byte	$2F
	.byte	$20
	.byte	$5F
	.byte	$7C
	.byte	$82
	.byte	$0A
	.byte	$0C
	.byte	$31
	.byte	$33
	.byte	$3A
	.byte	$3F
	.byte	$0A
	.byte	$18
	.byte	$50
	.byte	$19
	.byte	$10
	.byte	$19
	.byte	$1B
	.byte	$07
	.byte	$18
	.byte	$4F
	.byte	$D0
	.byte	$D0
	.byte	$20
	.byte	$F0
	.byte	$C8
	.byte	$10
	.byte	$4A
	.byte	$12
	.byte	$2D
	.byte	$D0
	.byte	$00
	.byte	$10
	.byte	$51
	.byte	$18
	.byte	$F8
	.byte	$B8
	.byte	$18
	.byte	$B8
	.byte	$7C
	.byte	$0C
	.byte	$09
	.byte	$BF
	.byte	$88
	.byte	$58
	.byte	$58
	.byte	$0C
	.byte	$D0
	.byte	$11
	.byte	$BE
	.byte	$30
	.byte	$3F
	.byte	$3F
	.byte	$30
	.byte	$3F
	.byte	$07
	.byte	$09
	.byte	$33
	.byte	$32
	.byte	$38
	.byte	$3B
	.byte	$3A
	.byte	$28
	.byte	$3F
	.byte	$0A
	.byte	$52
	.byte	$28
	.byte	$3F
	.byte	$38
	.byte	$E4
	.byte	$24
	.byte	$62
	.byte	$F4
	.byte	$18
	.byte	$3F
	.byte	$08
	.byte	$D9
	.byte	$D8
	.byte	$C8
	.byte	$F0
	.byte	$09
	.byte	$3B
	.byte	$01
	.byte	$E0
	.byte	$20
	.byte	$8F
	.byte	$28
	.byte	$06
	.byte	$19
	.byte	$47
	.byte	$98
	.byte	$78
	.byte	$78
	.byte	$38
	.byte	$38
	.byte	$2A
	.byte	$1C
	.byte	$F8
	.byte	$0A
	.byte	$10
	.byte	$18
	.byte	$A0
	.byte	$0C
	.byte	$1A
	.byte	$CF
	.byte	$30
	.byte	$11
	.byte	$40
	.byte	$5B
	.byte	$53
	.byte	$22
	.byte	$CF
	.byte	$3F
	.byte	$27
	.byte	$2F
	.byte	$22
	.byte	$6E
	.byte	$11
	.byte	$38
	.byte	$78
	.byte	$E8
	.byte	$22
	.byte	$CF
	.byte	$EC
	.byte	$E8
	.byte	$F8
	.byte	$08
	.byte	$69
	.byte	$00
	.byte	$1F
	.byte	$32
	.byte	$33
	.byte	$3F
	.byte	$3D
	.byte	$1B
	.byte	$38
	.byte	$03
	.byte	$00
	.byte	$0F
	.byte	$11
	.byte	$11
	.byte	$1B
	.byte	$1F
	.byte	$05
	.byte	$70
	.byte	$90
	.byte	$FC
	.byte	$0A
	.byte	$C9
	.byte	$09
	.byte	$2E
	.byte	$12
	.byte	$0C
	.byte	$12
	.byte	$CE
	.byte	$0A
	.byte	$DB
	.byte	$0A
	.byte	$F8
	.byte	$0A
	.byte	$05
	.byte	$F8
	.byte	$0A
	.byte	$AE
	.byte	$1A
	.byte	$B0
	.byte	$86
	.byte	$0A
	.byte	$0C
	.byte	$1A
	.byte	$B0
	.byte	$F8
	.byte	$BC
	.byte	$6C
	.byte	$40
	.byte	$38
	.byte	$08
	.byte	$5E
	.byte	$B8
	.byte	$3C
	.byte	$FC
	.byte	$7C
	.byte	$9C
	.byte	$98
	.byte	$A8
	.byte	$80
	.byte	$18
	.byte	$09
	.byte	$C9
	.byte	$0C
	.byte	$08
	.byte	$66
	.byte	$38
	.byte	$60
	.byte	$C0
	.byte	$EA
	.byte	$0A
	.byte	$17
	.byte	$1A
	.byte	$6D
	.byte	$09
	.byte	$4E
	.byte	$3F
	.byte	$0A
	.byte	$CB
	.byte	$08
	.byte	$0B
	.byte	$40
	.byte	$0E
	.byte	$A0
	.byte	$0B
	.byte	$43
	.byte	$00
	.byte	$22
	.byte	$4F
	.byte	$F6
	.byte	$F6
	.byte	$C0
	.byte	$68
	.byte	$7C
	.byte	$00
	.byte	$BA
	.byte	$F3
	.byte	$A7
	.byte	$AE
	.byte	$66
	.byte	$3F
	.byte	$17
	.byte	$23
	.byte	$06
	.byte	$67
	.byte	$4F
	.byte	$5F
	.byte	$5F
	.byte	$1F
	.byte	$0A
	.byte	$A9
	.byte	$12
	.byte	$06
	.byte	$EE
	.byte	$00
	.byte	$F6
	.byte	$F0
	.byte	$FE
	.byte	$F8
	.byte	$E8
	.byte	$E3
	.byte	$FB
	.byte	$FE
	.byte	$84
	.byte	$0B
	.byte	$37
	.byte	$21
	.byte	$07
	.byte	$17
	.byte	$17
	.byte	$13
	.byte	$67
	.byte	$1F
	.byte	$1E
	.byte	$08
	.byte	$1E
	.byte	$0E
	.byte	$0E
	.byte	$06
	.byte	$0A
	.byte	$78
	.byte	$0E
	.byte	$38
	.byte	$F8
	.byte	$01
	.byte	$B0
	.byte	$44
	.byte	$3C
	.byte	$1C
	.byte	$1C
	.byte	$1E
	.byte	$F8
	.byte	$08
	.byte	$C5
	.byte	$82
	.byte	$86
	.byte	$0C
	.byte	$0C
	.byte	$0E
	.byte	$00
	.byte	$06
	.byte	$84
	.byte	$1C
	.byte	$7F
	.byte	$30
	.byte	$09
	.byte	$5A
	.byte	$1A
	.byte	$CF
	.byte	$08
	.byte	$A2
	.byte	$0B
	.byte	$55
	.byte	$23
	.byte	$2F
	.byte	$09
	.byte	$D9
	.byte	$09
	.byte	$DA
	.byte	$C0
	.byte	$19
	.byte	$8E
	.byte	$0A
	.byte	$51
	.byte	$FB
	.byte	$60
	.byte	$30
	.byte	$3E
	.byte	$5D
	.byte	$79
	.byte	$0A
	.byte	$53
	.byte	$57
	.byte	$33
	.byte	$1F
	.byte	$08
	.byte	$BE
	.byte	$23
	.byte	$08
	.byte	$DD
	.byte	$2F
	.byte	$42
	.byte	$0F
	.byte	$0B
	.byte	$AF
	.byte	$68
	.byte	$68
	.byte	$E8
	.byte	$F4
	.byte	$09
	.byte	$02
	.byte	$FF
	.byte	$61
	.byte	$FC
	.byte	$80
	.byte	$13
	.byte	$30
	.byte	$FC
	.byte	$10
	.byte	$03
	.byte	$0B
	.byte	$0B
	.byte	$1E
	.byte	$F7
	.byte	$1B
	.byte	$CA
	.byte	$0A
	.byte	$64
	.byte	$0B
	.byte	$1E
	.byte	$13
	.byte	$12
	.byte	$98
	.byte	$12
	.byte	$E5
	.byte	$0B
	.byte	$89
	.byte	$0B
	.byte	$B4
	.byte	$D9
	.byte	$23
	.byte	$96
	.byte	$09
	.byte	$B1
	.byte	$78
	.byte	$08
	.byte	$4D
	.byte	$18
	.byte	$61
	.byte	$32
	.byte	$60
	.byte	$0B
	.byte	$8F
	.byte	$9E
	.byte	$1B
	.byte	$31
	.byte	$0D
	.byte	$1F
	.byte	$29
	.byte	$DC
	.byte	$08
	.byte	$5F
	.byte	$1A
	.byte	$9A
	.byte	$20
	.byte	$5F
	.byte	$70
	.byte	$02
	.byte	$3E
	.byte	$3D
	.byte	$59
	.byte	$73
	.byte	$57
	.byte	$97
	.byte	$0A
	.byte	$C9
	.byte	$19
	.byte	$30
	.byte	$13
	.byte	$37
	.byte	$08
	.byte	$5F
	.byte	$0C
	.byte	$0F
	.byte	$40
	.byte	$68
	.byte	$58
	.byte	$EC
	.byte	$52
	.byte	$F0
	.byte	$10
	.byte	$5F
	.byte	$BE
	.byte	$09
	.byte	$3D
	.byte	$F6
	.byte	$FE
	.byte	$0A
	.byte	$DD
	.byte	$80
	.byte	$77
	.byte	$63
	.byte	$20
	.byte	$5F
	.byte	$0C
	.byte	$28
	.byte	$30
	.byte	$5F
	.byte	$B8
	.byte	$70
	.byte	$5F
	.byte	$28
	.byte	$AF
	.byte	$08
	.byte	$C7
	.byte	$FD
	.byte	$0B
	.byte	$E7
	.byte	$20
	.byte	$61
	.byte	$11
	.byte	$A5
	.byte	$28
	.byte	$C1
	.byte	$0B
	.byte	$F7
	.byte	$28
	.byte	$61
	.byte	$31
	.byte	$08
	.byte	$60
	.byte	$01
	.byte	$3F
	.byte	$1B
	.byte	$37
	.byte	$57
	.byte	$52
	.byte	$0E
	.byte	$1F
	.byte	$08
	.byte	$BA
	.byte	$D0
	.byte	$0C
	.byte	$70
	.byte	$08
	.byte	$C0
	.byte	$09
	.byte	$0C
	.byte	$70
	.byte	$60
	.byte	$F8
	.byte	$7C
	.byte	$38
	.byte	$22
	.byte	$98
	.byte	$F6
	.byte	$0C
	.byte	$0C
	.byte	$9E
	.byte	$74
	.byte	$F8
	.byte	$09
	.byte	$65
	.byte	$57
	.byte	$19
	.byte	$8F
	.byte	$8F
	.byte	$6B
	.byte	$08
	.byte	$BF
	.byte	$B9
	.byte	$67
	.byte	$67
	.byte	$20
	.byte	$BF
	.byte	$53
	.byte	$F8
	.byte	$08
	.byte	$74
	.byte	$E0
	.byte	$20
	.byte	$BF
	.byte	$7E
	.byte	$76
	.byte	$10
	.byte	$BE
	.byte	$08
	.byte	$9D
	.byte	$60
	.byte	$00
	.byte	$48
	.byte	$00
	.byte	$32
	.byte	$98
	.byte	$0E
	.byte	$39
	.byte	$70
	.byte	$78
	.byte	$7F
	.byte	$7C
	.byte	$37
	.byte	$0C
	.byte	$67
	.byte	$0B
	.byte	$1C
	.byte	$0B
	.byte	$57
	.byte	$0C
	.byte	$26
	.byte	$23
	.byte	$9D
	.byte	$01
	.byte	$78
	.byte	$60
	.byte	$F4
	.byte	$19
	.byte	$2F
	.byte	$09
	.byte	$74
	.byte	$87
	.byte	$7B
	.byte	$5F
	.byte	$9F
	.byte	$BE
	.byte	$18
	.byte	$A8
	.byte	$84
	.byte	$47
	.byte	$0A
	.byte	$5F
	.byte	$08
	.byte	$C9
	.byte	$4F
	.byte	$47
	.byte	$63
	.byte	$00
	.byte	$33
	.byte	$33
	.byte	$07
	.byte	$FA
	.byte	$7A
	.byte	$BA
	.byte	$8E
	.byte	$92
	.byte	$C3
	.byte	$0C
	.byte	$9C
	.byte	$09
	.byte	$0F
	.byte	$FE
	.byte	$7E
	.byte	$72
	.byte	$66
	.byte	$0C
	.byte	$DF
	.byte	$08
	.byte	$4F
	.byte	$83
	.byte	$0C
	.byte	$FD
	.byte	$20
	.byte	$21
	.byte	$47
	.byte	$57
	.byte	$55
	.byte	$08
	.byte	$8C
	.byte	$11
	.byte	$6C
	.byte	$31
	.byte	$3D
	.byte	$3D
	.byte	$1B
	.byte	$1F
	.byte	$0C
	.byte	$C8
	.byte	$E7
	.byte	$FA
	.byte	$D2
	.byte	$11
	.byte	$CF
	.byte	$80
	.byte	$09
	.byte	$6C
	.byte	$DF
	.byte	$D2
	.byte	$FA
	.byte	$47
	.byte	$4F
	.byte	$3F
	.byte	$77
	.byte	$03
	.byte	$EF
	.byte	$CB
	.byte	$3C
	.byte	$7F
	.byte	$3B
	.byte	$31
	.byte	$0B
	.byte	$3B
	.byte	$08
	.byte	$92
	.byte	$05
	.byte	$73
	.byte	$37
	.byte	$E2
	.byte	$9E
	.byte	$EC
	.byte	$0C
	.byte	$DF
	.byte	$80
	.byte	$0C
	.byte	$DB
	.byte	$6D
	.byte	$FA
	.byte	$0C
	.byte	$9C
	.byte	$0C
	.byte	$40
	.byte	$60
	.byte	$0C
	.byte	$3F
	.byte	$09
	.byte	$C8
	.byte	$3E
	.byte	$09
	.byte	$BE
	.byte	$11
	.byte	$08
	.byte	$04
	.byte	$10
	.byte	$0D
	.byte	$3B
	.byte	$1E
	.byte	$1C
	.byte	$0E
	.byte	$0C
	.byte	$47
	.byte	$3F
	.byte	$0E
	.byte	$70
	.byte	$21
	.byte	$6E
	.byte	$15
	.byte	$24
	.byte	$09
	.byte	$6E
	.byte	$20
	.byte	$AF
	.byte	$0C
	.byte	$9F
	.byte	$1D
	.byte	$60
	.byte	$38
	.byte	$13
	.byte	$1F
	.byte	$0C
	.byte	$9F
	.byte	$1D
	.byte	$60
	.byte	$0C
	.byte	$65
	.byte	$3E
	.byte	$69
	.byte	$7B
	.byte	$67
	.byte	$7E
	.byte	$08
	.byte	$4C
	.byte	$13
	.byte	$71
	.byte	$37
	.byte	$27
	.byte	$08
	.byte	$8D
	.byte	$15
	.byte	$71
	.byte	$09
	.byte	$FE
	.byte	$C9
	.byte	$13
	.byte	$20
	.byte	$15
	.byte	$6C
	.byte	$70
	.byte	$C0
	.byte	$0A
	.byte	$3B
	.byte	$D8
	.byte	$C0
	.byte	$0D
	.byte	$73
	.byte	$02
	.byte	$37
	.byte	$4B
	.byte	$01
	.byte	$31
	.byte	$4E
	.byte	$00
	.byte	$14
	.byte	$EF
	.byte	$37
	.byte	$32
	.byte	$7E
	.byte	$4E
	.byte	$1D
	.byte	$8B
	.byte	$0C
	.byte	$2D
	.byte	$CF
	.byte	$07
	.byte	$E7
	.byte	$CD
	.byte	$60
	.byte	$07
	.byte	$2D
	.byte	$3B
	.byte	$08
	.byte	$AE
	.byte	$20
	.byte	$42
	.byte	$4F
	.byte	$6F
	.byte	$6B
	.byte	$7C
	.byte	$00
	.byte	$0A
	.byte	$1B
	.byte	$0B
	.byte	$CC
	.byte	$0D
	.byte	$7C
	.byte	$13
	.byte	$CF
	.byte	$1B
	.byte	$F4
	.byte	$E8
	.byte	$A8
	.byte	$60
	.byte	$00
	.byte	$12
	.byte	$BB
	.byte	$13
	.byte	$5A
	.byte	$F8
	.byte	$CF
	.byte	$4D
	.byte	$9F
	.byte	$76
	.byte	$01
	.byte	$56
	.byte	$6D
	.byte	$F7
	.byte	$EF
	.byte	$37
	.byte	$B3
	.byte	$6F
	.byte	$0B
	.byte	$EC
	.byte	$02
	.byte	$23
	.byte	$6F
	.byte	$7F
	.byte	$C0
	.byte	$64
	.byte	$E4
	.byte	$0B
	.byte	$81
	.byte	$68
	.byte	$44
	.byte	$D8
	.byte	$0D
	.byte	$43
	.byte	$9A
	.byte	$FA
	.byte	$FC
	.byte	$0B
	.byte	$2A
	.byte	$E8
	.byte	$EC
	.byte	$1C
	.byte	$2D
	.byte	$2E
	.byte	$17
	.byte	$1D
	.byte	$E7
	.byte	$13
	.byte	$F1
	.byte	$2A
	.byte	$7F
	.byte	$7C
	.byte	$E0
	.byte	$E8
	.byte	$2C
	.byte	$27
	.byte	$15
	.byte	$AE
	.byte	$24
	.byte	$37
	.byte	$08
	.byte	$0D
	.byte	$1A
	.byte	$E1
	.byte	$A7
	.byte	$F7
	.byte	$30
	.byte	$F5
	.byte	$E7
	.byte	$09
	.byte	$E1
	.byte	$08
	.byte	$3B
	.byte	$5D
	.byte	$5D
	.byte	$5F
	.byte	$7B
	.byte	$86
	.byte	$19
	.byte	$0E
	.byte	$E3
	.byte	$F7
	.byte	$D7
	.byte	$E2
	.byte	$0E
	.byte	$12
	.byte	$0D
	.byte	$AD
	.byte	$DD
	.byte	$21
	.byte	$DD
	.byte	$FF
	.byte	$0D
	.byte	$92
	.byte	$73
	.byte	$3B
	.byte	$04
	.byte	$07
	.byte	$14
	.byte	$2F
	.byte	$30
	.byte	$39
	.byte	$0F
	.byte	$0D
	.byte	$7D
	.byte	$0E
	.byte	$2F
	.byte	$0C
	.byte	$0F
	.byte	$BE
	.byte	$6C
	.byte	$EF
	.byte	$0D
	.byte	$E3
	.byte	$0C
	.byte	$E5
	.byte	$0D
	.byte	$51
	.byte	$CE
	.byte	$0E
	.byte	$33
	.byte	$13
	.byte	$45
	.byte	$0D
	.byte	$95
	.byte	$0D
	.byte	$01
	.byte	$8E
	.byte	$0C
	.byte	$8F
	.byte	$13
	.byte	$0A
	.byte	$06
	.byte	$0D
	.byte	$4F
	.byte	$0A
	.byte	$53
	.byte	$0A
	.byte	$C9
	.byte	$05
	.byte	$FD
	.byte	$15
	.byte	$4F
	.byte	$18
	.byte	$5F
	.byte	$16
	.byte	$54
	.byte	$0E
	.byte	$15
	.byte	$10
	.byte	$68
	.byte	$15
	.byte	$4F
	.byte	$04
	.byte	$0B
	.byte	$2C
	.byte	$84
	.byte	$09
	.byte	$28
	.byte	$7D
	.byte	$9D
	.byte	$BF
	.byte	$03
	.byte	$26
	.byte	$35
	.byte	$67
	.byte	$46
	.byte	$F1
	.byte	$2B
	.byte	$9E
	.byte	$0B
	.byte	$97
	.byte	$2B
	.byte	$9E
	.byte	$09
	.byte	$06
	.byte	$87
	.byte	$44
	.byte	$3E
	.byte	$26
	.byte	$88
	.byte	$3B
	.byte	$7B
	.byte	$3B
	.byte	$0E
	.byte	$0E
	.byte	$1D
	.byte	$D0
	.byte	$15
	.byte	$A5
	.byte	$90
	.byte	$10
	.byte	$DA
	.byte	$0E
	.byte	$02
	.byte	$D2
	.byte	$1C
	.byte	$D0
	.byte	$14
	.byte	$92
	.byte	$07
	.byte	$0C
	.byte	$EF
	.byte	$0A
	.byte	$04
	.byte	$0E
	.byte	$4F
	.byte	$02
	.byte	$F1
	.byte	$1E
	.byte	$AF
	.byte	$1D
	.byte	$B1
	.byte	$0B
	.byte	$B4
	.byte	$2D
	.byte	$AF
	.byte	$18
	.byte	$F0
	.byte	$80
	.byte	$26
	.byte	$BA
	.byte	$AC
	.byte	$0B
	.byte	$3E
	.byte	$EC
	.byte	$0E
	.byte	$B7
	.byte	$F0
	.byte	$0E
	.byte	$78
	.byte	$0E
	.byte	$6B
	.byte	$63
	.byte	$63
	.byte	$7F
	.byte	$43
	.byte	$23
	.byte	$3F
	.byte	$0E
	.byte	$9E
	.byte	$0A
	.byte	$DE
	.byte	$15
	.byte	$77
	.byte	$13
	.byte	$3B
	.byte	$0D
	.byte	$90
	.byte	$0E
	.byte	$71
	.byte	$81
	.byte	$0B
	.byte	$3F
	.byte	$1B
	.byte	$13
	.byte	$27
	.byte	$2E
	.byte	$2F
	.byte	$21
	.byte	$0D
	.byte	$A9
	.byte	$ED
	.byte	$11
	.byte	$F0
	.byte	$13
	.byte	$85
	.byte	$0E
	.byte	$EF
	.byte	$38
	.byte	$0E
	.byte	$C8
	.byte	$0B
	.byte	$9B
	.byte	$08
	.byte	$0B
	.byte	$39
	.byte	$CF
	.byte	$0E
	.byte	$6B
	.byte	$1E
	.byte	$11
	.byte	$17
	.byte	$16
	.byte	$0B
	.byte	$3F
	.byte	$13
	.byte	$38
	.byte	$0A
	.byte	$55
	.byte	$1B
	.byte	$3F
	.byte	$BA
	.byte	$16
	.byte	$B1
	.byte	$D0
	.byte	$0C
	.byte	$1F
	.byte	$11
	.byte	$9C
	.byte	$0E
	.byte	$33
	.byte	$20
	.byte	$1A
	.byte	$7C
	.byte	$A0
	.byte	$99
	.byte	$0E
	.byte	$7D
	.byte	$20
	.byte	$10
	.byte	$0A
	.byte	$6D
	.byte	$0C
	.byte	$0E
	.byte	$BE
	.byte	$F9
	.byte	$0D
	.byte	$D9
	.byte	$AB
	.byte	$E0
	.byte	$66
	.byte	$17
	.byte	$33
	.byte	$09
	.byte	$20
	.byte	$88
	.byte	$1F
	.byte	$0F
	.byte	$07
	.byte	$1B
	.byte	$AF
	.byte	$08
	.byte	$F5
	.byte	$E1
	.byte	$E2
	.byte	$FC
	.byte	$1E
	.byte	$5A
	.byte	$CA
	.byte	$DE
	.byte	$9C
	.byte	$7B
	.byte	$80
	.byte	$18
	.byte	$23
	.byte	$0C
	.byte	$AE
	.byte	$0C
	.byte	$B0
	.byte	$1E
	.byte	$FB
	.byte	$1B
	.byte	$0E
	.byte	$60
	.byte	$23
	.byte	$11
	.byte	$3A
	.byte	$E0
	.byte	$A0
	.byte	$0D
	.byte	$10
	.byte	$31
	.byte	$6A
	.byte	$25
	.byte	$4A
	.byte	$08
	.byte	$0C
	.byte	$80
	.byte	$90
	.byte	$00
	.byte	$A2
	.byte	$A2
	.byte	$A0
	.byte	$84
	.byte	$0F
	.byte	$7F
	.byte	$9F
	.byte	$9E
	.byte	$0C
	.byte	$FA
	.byte	$AA
	.byte	$AA
	.byte	$9C
	.byte	$0C
	.byte	$D8
	.byte	$0F
	.byte	$26
	.byte	$21
	.byte	$21
	.byte	$80
	.byte	$16
	.byte	$87
	.byte	$FF
	.byte	$FD
	.byte	$FD
	.byte	$3F
	.byte	$29
	.byte	$29
	.byte	$1D
	.byte	$19
	.byte	$46
	.byte	$30
	.byte	$08
	.byte	$0D
	.byte	$D6
	.byte	$0A
	.byte	$3F
	.byte	$10
	.byte	$47
	.byte	$0C
	.byte	$24
	.byte	$26
	.byte	$07
	.byte	$08
	.byte	$A7
	.byte	$32
	.byte	$0C
	.byte	$0D
	.byte	$BF
	.byte	$1F
	.byte	$A2
	.byte	$72
	.byte	$A7
	.byte	$0C
	.byte	$8E
	.byte	$70
	.byte	$08
	.byte	$8B
	.byte	$C8
	.byte	$88
	.byte	$0C
	.byte	$7E
	.byte	$29
	.byte	$6F
	.byte	$0C
	.byte	$86
	.byte	$F9
	.byte	$14
	.byte	$54
	.byte	$11
	.byte	$93
	.byte	$10
	.byte	$A1
	.byte	$0B
	.byte	$B2
	.byte	$17
	.byte	$C4
	.byte	$88
	.byte	$90
	.byte	$0A
	.byte	$27
	.byte	$7B
	.byte	$40
	.byte	$16
	.byte	$BF
	.byte	$35
	.byte	$B6
	.byte	$3B
	.byte	$87
	.byte	$11
	.byte	$B3
	.byte	$0E
	.byte	$0C
	.byte	$6D
	.byte	$0F
	.byte	$06
	.byte	$FF
	.byte	$18
	.byte	$FD
	.byte	$15
	.byte	$F5
	.byte	$1E
	.byte	$89
	.byte	$1F
	.byte	$B7
	.byte	$23
	.byte	$AC
	.byte	$16
	.byte	$FF
	.byte	$1F
	.byte	$4E
	.byte	$C0
	.byte	$19
	.byte	$1C
	.byte	$32
	.byte	$01
	.byte	$1F
	.byte	$CE
	.byte	$14
	.byte	$20
	.byte	$18
	.byte	$7C
	.byte	$0D
	.byte	$36
	.byte	$00
	.byte	$BC
	.byte	$74
	.byte	$04
	.byte	$4C
	.byte	$F0
	.byte	$88
	.byte	$70
	.byte	$50
	.byte	$28
	.byte	$70
	.byte	$88
	.byte	$0C
	.byte	$AC
	.byte	$61
	.byte	$0D
	.byte	$F5
	.byte	$40
	.byte	$44
	.byte	$23
	.byte	$12
	.byte	$19
	.byte	$21
	.byte	$1E
	.byte	$1A
	.byte	$7E
	.byte	$1C
	.byte	$06
	.byte	$0C
	.byte	$C6
	.byte	$E7
	.byte	$A0
	.byte	$14
	.byte	$C7
	.byte	$F0
	.byte	$0C
	.byte	$86
	.byte	$EC
	.byte	$1C
	.byte	$F9
	.byte	$F9
	.byte	$FF
	.byte	$70
	.byte	$0F
	.byte	$17
	.byte	$1A
	.byte	$0E
	.byte	$CB
	.byte	$80
	.byte	$08
	.byte	$18
	.byte	$34
	.byte	$03
	.byte	$EC
	.byte	$17
	.byte	$55
	.byte	$0E
	.byte	$AD
	.byte	$0E
	.byte	$B8
	.byte	$30
	.byte	$0C
	.byte	$B6
	.byte	$19
	.byte	$5E
	.byte	$9C
	.byte	$E0
	.byte	$51
	.byte	$10
	.byte	$08
	.byte	$F9
	.byte	$E0
	.byte	$0F
	.byte	$76
	.byte	$68
	.byte	$62
	.byte	$E1
	.byte	$0C
	.byte	$DB
	.byte	$80
	.byte	$0F
	.byte	$CC
	.byte	$F0
	.byte	$00
	.byte	$1D
	.byte	$1E
	.byte	$9F
	.byte	$9F
	.byte	$FF
	.byte	$48
	.byte	$F0
	.byte	$08
	.byte	$2F
	.byte	$3E
	.byte	$C6
	.byte	$0F
	.byte	$7D
	.byte	$26
	.byte	$C4
	.byte	$98
	.byte	$13
	.byte	$84
	.byte	$DC
	.byte	$3C
	.byte	$08
	.byte	$67
	.byte	$DC
	.byte	$38
	.byte	$1C
	.byte	$9F
	.byte	$21
	.byte	$97
	.byte	$61
	.byte	$7E
	.byte	$10
	.byte	$49
	.byte	$08
	.byte	$45
	.byte	$11
	.byte	$13
	.byte	$43
	.byte	$00
	.byte	$12
	.byte	$D8
	.byte	$AA
	.byte	$0E
	.byte	$34
	.byte	$A8
	.byte	$1E
	.byte	$2A
	.byte	$A0
	.byte	$0E
	.byte	$7C
	.byte	$50
	.byte	$09
	.byte	$16
	.byte	$DF
	.byte	$40
	.byte	$DF
	.byte	$16
	.byte	$AD
	.byte	$3E
	.byte	$22
	.byte	$80
	.byte	$91
	.byte	$90
	.byte	$10
	.byte	$41
	.byte	$10
	.byte	$0B
	.byte	$BA
	.byte	$3C
	.byte	$FE
	.byte	$1A
	.byte	$FA
	.byte	$F8
	.byte	$0C
	.byte	$3F
	.byte	$39
	.byte	$3E
	.byte	$30
	.byte	$0E
	.byte	$98
	.byte	$08
	.byte	$21
	.byte	$0C
	.byte	$AB
	.byte	$20
	.byte	$2E
	.byte	$18
	.byte	$3E
	.byte	$A4
	.byte	$13
	.byte	$93
	.byte	$7F
	.byte	$28
	.byte	$3E
	.byte	$23
	.byte	$40
	.byte	$28
	.byte	$3E
	.byte	$08
	.byte	$FC
	.byte	$D8
	.byte	$28
	.byte	$3E
	.byte	$08
	.byte	$77
	.byte	$7F
	.byte	$80
	.byte	$1E
	.byte	$56
	.byte	$08
	.byte	$51
	.byte	$50
	.byte	$4F
	.byte	$50
	.byte	$1D
	.byte	$B9
	.byte	$07
	.byte	$1C
	.byte	$08
	.byte	$DE
	.byte	$16
	.byte	$E5
	.byte	$0A
	.byte	$3C
	.byte	$18
	.byte	$3E
	.byte	$D0
	.byte	$17
	.byte	$EF
	.byte	$0C
	.byte	$5F
	.byte	$3C
	.byte	$08
	.byte	$C1
	.byte	$0A
	.byte	$01
	.byte	$04
	.byte	$0A
	.byte	$A3
	.byte	$87
	.byte	$7C
	.byte	$08
	.byte	$B9
	.byte	$FA
	.byte	$FB
	.byte	$F5
	.byte	$8F
	.byte	$0E
	.byte	$08
	.byte	$14
	.byte	$41
	.byte	$C1
	.byte	$61
	.byte	$B7
	.byte	$3E
	.byte	$08
	.byte	$96
	.byte	$5F
	.byte	$DF
	.byte	$01
	.byte	$AF
	.byte	$08
	.byte	$01
	.byte	$0A
	.byte	$48
	.byte	$04
	.byte	$13
	.byte	$08
	.byte	$E7
	.byte	$04
	.byte	$F7
	.byte	$FE
	.byte	$75
	.byte	$37
	.byte	$13
	.byte	$10
	.byte	$94
	.byte	$31
	.byte	$A0
	.byte	$08
	.byte	$70
	.byte	$72
	.byte	$E0
	.byte	$C8
	.byte	$08
	.byte	$F7
	.byte	$EF
	.byte	$7F
	.byte	$AE
	.byte	$21
	.byte	$EC
	.byte	$C8
	.byte	$27
	.byte	$2A
	.byte	$22
	.byte	$41
	.byte	$44
	.byte	$2A
	.byte	$08
	.byte	$7A
	.byte	$CC
	.byte	$09
	.byte	$09
	.byte	$0B
	.byte	$A6
	.byte	$43
	.byte	$65
	.byte	$08
	.byte	$25
	.byte	$09
	.byte	$11
	.byte	$44
	.byte	$C2
	.byte	$08
	.byte	$62
	.byte	$76
	.byte	$33
	.byte	$A1
	.byte	$11
	.byte	$19
	.byte	$42
	.byte	$C2
	.byte	$A6
	.byte	$98
	.byte	$08
	.byte	$25
	.byte	$0A
	.byte	$08
	.byte	$0A
	.byte	$BB
	.byte	$19
	.byte	$A0
	.byte	$F5
	.byte	$F7
	.byte	$FB
	.byte	$80
	.byte	$0E
	.byte	$52
	.byte	$3C
	.byte	$1E
	.byte	$06
	.byte	$71
	.byte	$70
	.byte	$E1
	.byte	$40
	.byte	$C2
	.byte	$0F
	.byte	$04
	.byte	$09
	.byte	$37
	.byte	$AF
	.byte	$EF
	.byte	$DF
	.byte	$3F
	.byte	$0C
	.byte	$49
	.byte	$78
	.byte	$5F
	.byte	$60
	.byte	$0D
	.byte	$06
	.byte	$00
	.byte	$81
	.byte	$15
	.byte	$BA
	.byte	$87
	.byte	$C6
	.byte	$1C
	.byte	$8D
	.byte	$FF
	.byte	$11
	.byte	$53
	.byte	$0E
	.byte	$8B
	.byte	$86
	.byte	$0E
	.byte	$D0
	.byte	$12
	.byte	$F5
	.byte	$16
	.byte	$FB
	.byte	$13
	.byte	$4C
	.byte	$11
	.byte	$D8
	.byte	$FF
	.byte	$86
	.byte	$88
	.byte	$11
	.byte	$E0
	.byte	$19
	.byte	$D9
	.byte	$09
	.byte	$DB
	.byte	$21
	.byte	$D8
	.byte	$88
	.byte	$2F
	.byte	$18
	.byte	$F8
	.byte	$9A
	.byte	$9D
	.byte	$1C
	.byte	$12
	.byte	$A8
	.byte	$23
	.byte	$18
	.byte	$1C
	.byte	$26
	.byte	$44
	.byte	$08
	.byte	$43
	.byte	$42
	.byte	$42
	.byte	$39
	.byte	$0B
	.byte	$20
	.byte	$3A
	.byte	$78
	.byte	$7D
	.byte	$60
	.byte	$7C
	.byte	$09
	.byte	$28
	.byte	$0A
	.byte	$EE
	.byte	$64
	.byte	$22
	.byte	$72
	.byte	$72
	.byte	$C2
	.byte	$60
	.byte	$84
	.byte	$08
	.byte	$9E
	.byte	$0E
	.byte	$6F
	.byte	$4C
	.byte	$4C
	.byte	$FC
	.byte	$78
	.byte	$24
	.byte	$11
	.byte	$1B
	.byte	$09
	.byte	$16
	.byte	$0F
	.byte	$BB
	.byte	$0E
	.byte	$1A
	.byte	$3F
	.byte	$0E
	.byte	$CA
	.byte	$C0
	.byte	$0C
	.byte	$11
	.byte	$14
	.byte	$54
	.byte	$94
	.byte	$68
	.byte	$24
	.byte	$D8
	.byte	$F0
	.byte	$C0
	.byte	$7F
	.byte	$A0
	.byte	$09
	.byte	$E9
	.byte	$11
	.byte	$16
	.byte	$10
	.byte	$6C
	.byte	$09
	.byte	$A8
	.byte	$0F
	.byte	$91
	.byte	$0F
	.byte	$27
	.byte	$0A
	.byte	$90
	.byte	$73
	.byte	$38
	.byte	$0E
	.byte	$97
	.byte	$0B
	.byte	$B7
	.byte	$0C
	.byte	$EA
	.byte	$3E
	.byte	$3F
	.byte	$0D
	.byte	$AD
	.byte	$0E
	.byte	$F0
	.byte	$3B
	.byte	$68
	.byte	$64
	.byte	$16
	.byte	$8F
	.byte	$0D
	.byte	$03
	.byte	$0B
	.byte	$98
	.byte	$98
	.byte	$0F
	.byte	$94
	.byte	$0C
	.byte	$B2
	.byte	$3F
	.byte	$FE
	.byte	$FF
	.byte	$C0
	.byte	$45
	.byte	$8F
	.byte	$0F
	.byte	$14
	.byte	$58
	.byte	$0F
	.byte	$08
	.byte	$CC
	.byte	$30
	.byte	$00
	.byte	$8C
	.byte	$55
	.byte	$B0
	.byte	$3F
	.byte	$7F
	.byte	$F7
	.byte	$09
	.byte	$57
	.byte	$0A
	.byte	$29
	.byte	$1F
	.byte	$7F
	.byte	$0D
	.byte	$FF
	.byte	$EE
	.byte	$E6
	.byte	$EA
	.byte	$11
	.byte	$DF
	.byte	$0E
	.byte	$B6
	.byte	$B7
	.byte	$18
	.byte	$3F
	.byte	$80
	.byte	$10
	.byte	$48
	.byte	$CF
	.byte	$B7
	.byte	$B7
	.byte	$FB
	.byte	$FD
	.byte	$7F
	.byte	$3F
	.byte	$86
	.byte	$16
	.byte	$B8
	.byte	$06
	.byte	$EC
	.byte	$EE
	.byte	$FF
	.byte	$09
	.byte	$A8
	.byte	$16
	.byte	$BF
	.byte	$FF
	.byte	$63
	.byte	$B7
	.byte	$0E
	.byte	$D3
	.byte	$1B
	.byte	$E1
	.byte	$B7
	.byte	$CF
	.byte	$FF
	.byte	$0F
	.byte	$42
	.byte	$09
	.byte	$A0
	.byte	$B9
	.byte	$0A
	.byte	$5F
	.byte	$3E
	.byte	$29
	.byte	$9F
	.byte	$87
	.byte	$29
	.byte	$9F
	.byte	$20
	.byte	$7C
	.byte	$29
	.byte	$9F
	.byte	$D1
	.byte	$87
	.byte	$29
	.byte	$9F
	.byte	$1A
	.byte	$0C
	.byte	$09
	.byte	$4B
	.byte	$04
	.byte	$14
	.byte	$0D
	.byte	$51
	.byte	$05
	.byte	$E5
	.byte	$FF
	.byte	$67
	.byte	$34
	.byte	$10
	.byte	$16
	.byte	$D5
	.byte	$79
	.byte	$0F
	.byte	$BD
	.byte	$10
	.byte	$F2
	.byte	$20
	.byte	$28
	.byte	$08
	.byte	$AE
	.byte	$A7
	.byte	$FF
	.byte	$E6
	.byte	$2C
	.byte	$24
	.byte	$08
	.byte	$20
	.byte	$1D
	.byte	$3F
	.byte	$22
	.byte	$51
	.byte	$09
	.byte	$9F
	.byte	$1A
	.byte	$10
	.byte	$A4
	.byte	$15
	.byte	$47
	.byte	$52
	.byte	$09
	.byte	$9F
	.byte	$F5
	.byte	$EF
	.byte	$0D
	.byte	$FF
	.byte	$44
	.byte	$CA
	.byte	$B4
	.byte	$09
	.byte	$9F
	.byte	$73
	.byte	$09
	.byte	$1F
	.byte	$0D
	.byte	$C3
	.byte	$4A
	.byte	$09
	.byte	$9F
	.byte	$AF
	.byte	$F7
	.byte	$34
	.byte	$08
	.byte	$1B
	.byte	$08
	.byte	$DB
	.byte	$0E
	.byte	$F3
	.byte	$01
	.byte	$09
	.byte	$DF
	.byte	$E4
	.byte	$FA
	.byte	$B4
	.byte	$21
	.byte	$9F
	.byte	$39
	.byte	$0F
	.byte	$B1
	.byte	$0D
	.byte	$9E
	.byte	$82
	.byte	$11
	.byte	$DF
	.byte	$27
	.byte	$5F
	.byte	$FD
	.byte	$21
	.byte	$9F
	.byte	$11
	.byte	$50
	.byte	$0A
	.byte	$5C
	.byte	$A0
	.byte	$09
	.byte	$57
	.byte	$09
	.byte	$E7
	.byte	$88
	.byte	$0B
	.byte	$BA
	.byte	$9F
	.byte	$14
	.byte	$7B
	.byte	$70
	.byte	$F8
	.byte	$17
	.byte	$7A
	.byte	$0A
	.byte	$5F
	.byte	$0B
	.byte	$1C
	.byte	$0C
	.byte	$94
	.byte	$A0
	.byte	$FF
	.byte	$09
	.byte	$46
	.byte	$0B
	.byte	$85
	.byte	$14
	.byte	$38
	.byte	$0F
	.byte	$36
	.byte	$0A
	.byte	$8B
	.byte	$0B
	.byte	$9A
	.byte	$11
	.byte	$B8
	.byte	$16
	.byte	$85
	.byte	$FE
	.byte	$0C
	.byte	$F7
	.byte	$14
	.byte	$A1
	.byte	$09
	.byte	$BC
	.byte	$0E
	.byte	$68
	.byte	$11
	.byte	$B7
	.byte	$1D
	.byte	$D9
	.byte	$0E
	.byte	$48
	.byte	$70
	.byte	$26
	.byte	$6C
	.byte	$5E
	.byte	$28
	.byte	$08
	.byte	$33
	.byte	$21
	.byte	$1A
	.byte	$DF
	.byte	$0A
	.byte	$50
	.byte	$64
	.byte	$E1
	.byte	$0E
	.byte	$AF
	.byte	$1A
	.byte	$E8
	.byte	$0D
	.byte	$A0
	.byte	$08
	.byte	$5E
	.byte	$2D
	.byte	$1D
	.byte	$08
	.byte	$DF
	.byte	$8C
	.byte	$17
	.byte	$D5
	.byte	$21
	.byte	$12
	.byte	$06
	.byte	$0C
	.byte	$EA
	.byte	$12
	.byte	$F4
	.byte	$F4
	.byte	$68
	.byte	$1B
	.byte	$30
	.byte	$20
	.byte	$A0
	.byte	$0A
	.byte	$DB
	.byte	$08
	.byte	$A6
	.byte	$90
	.byte	$0D
	.byte	$A6
	.byte	$1B
	.byte	$D7
	.byte	$7C
	.byte	$66
	.byte	$09
	.byte	$03
	.byte	$1A
	.byte	$A8
	.byte	$30
	.byte	$07
	.byte	$1C
	.byte	$FA
	.byte	$0F
	.byte	$F0
	.byte	$16
	.byte	$11
	.byte	$3E
	.byte	$17
	.byte	$20
	.byte	$12
	.byte	$28
	.byte	$1D
	.byte	$D7
	.byte	$17
	.byte	$CF
	.byte	$0D
	.byte	$8F
	.byte	$15
	.byte	$86
	.byte	$FC
	.byte	$E0
	.byte	$12
	.byte	$CD
	.byte	$0D
	.byte	$6E
	.byte	$11
	.byte	$2F
	.byte	$7B
	.byte	$69
	.byte	$E9
	.byte	$E9
	.byte	$89
	.byte	$4A
	.byte	$33
	.byte	$0E
	.byte	$FF
	.byte	$3C
	.byte	$7E
	.byte	$A0
	.byte	$7C
	.byte	$09
	.byte	$C6
	.byte	$E4
	.byte	$05
	.byte	$E3
	.byte	$E3
	.byte	$A3
	.byte	$07
	.byte	$8F
	.byte	$0C
	.byte	$ED
	.byte	$18
	.byte	$0A
	.byte	$DF
	.byte	$FE
	.byte	$09
	.byte	$40
	.byte	$17
	.byte	$4D
	.byte	$18
	.byte	$90
	.byte	$0C
	.byte	$BB
	.byte	$1D
	.byte	$27
	.byte	$2C
	.byte	$11
	.byte	$14
	.byte	$01
	.byte	$FF
	.byte	$7E
	.byte	$87
	.byte	$0B
	.byte	$10
	.byte	$13
	.byte	$99
	.byte	$0B
	.byte	$17
	.byte	$1B
	.byte	$BA
	.byte	$D3
	.byte	$09
	.byte	$87
	.byte	$02
	.byte	$6F
	.byte	$7F
	.byte	$E7
	.byte	$0C
	.byte	$92
	.byte	$00
	.byte	$15
	.byte	$24
	.byte	$FD
	.byte	$DC
	.byte	$18
	.byte	$DB
	.byte	$FB
	.byte	$15
	.byte	$87
	.byte	$E0
	.byte	$0E
	.byte	$DF
	.byte	$28
	.byte	$08
	.byte	$13
	.byte	$83
	.byte	$80
	.byte	$1A
	.byte	$7A
	.byte	$10
	.byte	$7E
	.byte	$FA
	.byte	$0F
	.byte	$1D
	.byte	$A1
	.byte	$12
	.byte	$CA
	.byte	$09
	.byte	$04
	.byte	$0E
	.byte	$07
	.byte	$02
	.byte	$1D
	.byte	$4C
	.byte	$0E
	.byte	$14
	.byte	$12
	.byte	$12
	.byte	$1C
	.byte	$0B
	.byte	$C5
	.byte	$40
	.byte	$0A
	.byte	$54
	.byte	$E8
	.byte	$C8
	.byte	$A3
	.byte	$0E
	.byte	$0D
	.byte	$40
	.byte	$13
	.byte	$6C
	.byte	$48
	.byte	$48
	.byte	$30
	.byte	$0A
	.byte	$72
	.byte	$0E
	.byte	$D0
	.byte	$A1
	.byte	$A0
	.byte	$17
	.byte	$12
	.byte	$7A
	.byte	$38
	.byte	$30
	.byte	$30
	.byte	$38
	.byte	$08
	.byte	$BF
	.byte	$F0
	.byte	$0C
	.byte	$1A
	.byte	$13
	.byte	$97
	.byte	$0C
	.byte	$2C
	.byte	$17
	.byte	$BF
	.byte	$1C
	.byte	$0C
	.byte	$0C
	.byte	$1C
	.byte	$4E
	.byte	$F8
	.byte	$0B
	.byte	$6F
	.byte	$1D
	.byte	$12
	.byte	$0B
	.byte	$1F
	.byte	$10
	.byte	$A4
	.byte	$87
	.byte	$15
	.byte	$1F
	.byte	$1D
	.byte	$05
	.byte	$1D
	.byte	$32
	.byte	$66
	.byte	$15
	.byte	$CF
	.byte	$13
	.byte	$AC
	.byte	$18
	.byte	$DF
	.byte	$00
_mypal_game_bg0:
	.byte	$0C
	.byte	$08
	.byte	$18
	.byte	$38
	.byte	$0C
	.byte	$04
	.byte	$09
	.byte	$19
	.byte	$0C
	.byte	$00
	.byte	$28
	.byte	$37
	.byte	$0C
	.byte	$06
	.byte	$16
	.byte	$26
_mypal_game_bg1:
	.byte	$03
	.byte	$1D
	.byte	$2D
	.byte	$3D
	.byte	$03
	.byte	$15
	.byte	$18
	.byte	$38
	.byte	$03
	.byte	$12
	.byte	$23
	.byte	$33
	.byte	$03
	.byte	$0B
	.byte	$09
	.byte	$2A
_mypal_game_bg2:
	.byte	$08
	.byte	$07
	.byte	$00
	.byte	$39
	.byte	$08
	.byte	$12
	.byte	$11
	.byte	$34
	.byte	$08
	.byte	$2D
	.byte	$18
	.byte	$34
	.byte	$08
	.byte	$0B
	.byte	$1B
	.byte	$3A
_mypal_game_bg3:
	.byte	$0F
	.byte	$0C
	.byte	$04
	.byte	$24
	.byte	$0F
	.byte	$23
	.byte	$18
	.byte	$28
	.byte	$0F
	.byte	$17
	.byte	$27
	.byte	$34
	.byte	$0F
	.byte	$02
	.byte	$11
	.byte	$21
_mypal_game_fg0:
	.byte	$0C
	.byte	$04
	.byte	$25
	.byte	$37
	.byte	$0C
	.byte	$08
	.byte	$29
	.byte	$34
	.byte	$0C
	.byte	$0F
	.byte	$18
	.byte	$03
	.byte	$0C
	.byte	$07
	.byte	$2D
	.byte	$36
_mypal_game_fg1:
	.byte	$0C
	.byte	$0F
	.byte	$11
	.byte	$31
	.byte	$0C
	.byte	$2D
	.byte	$10
	.byte	$3D
	.byte	$0C
	.byte	$2D
	.byte	$10
	.byte	$3D
	.byte	$0C
	.byte	$2D
	.byte	$10
	.byte	$3D
_mypal_light_bg:
	.byte	$3D
	.byte	$3D
	.byte	$2D
	.byte	$0F
	.byte	$3D
	.byte	$3D
	.byte	$2D
	.byte	$0F
	.byte	$3D
	.byte	$3D
	.byte	$2D
	.byte	$0F
	.byte	$3D
	.byte	$3D
	.byte	$2D
	.byte	$0F
_mypal_light_fg:
	.byte	$3D
	.byte	$2D
	.byte	$0F
	.byte	$0F
	.byte	$3D
	.byte	$2D
	.byte	$0F
	.byte	$0F
	.byte	$3D
	.byte	$2D
	.byte	$0F
	.byte	$0F
	.byte	$3D
	.byte	$2D
	.byte	$0F
	.byte	$0F
_mypal_cuts:
	.byte	$0F
	.byte	$FF
	.byte	$FF
	.byte	$FF
	.byte	$0F
	.byte	$0F
	.byte	$0F
	.byte	$0F
	.byte	$0F
	.byte	$0F
	.byte	$0F
	.byte	$0F
	.byte	$0F
	.byte	$01
	.byte	$27
	.byte	$39
_mypal_reds:
	.byte	$05
	.byte	$15
	.byte	$16
	.byte	$35
	.byte	$05
	.byte	$15
	.byte	$16
	.byte	$35
	.byte	$05
	.byte	$15
	.byte	$16
	.byte	$35
	.byte	$05
	.byte	$15
	.byte	$16
	.byte	$35
.segment	"ROM2"
.segment	"CODE"

.segment	"BSS"

.segment	"ZEROPAGE"
_rda:
	.res	1,$00
_rdb:
	.res	1,$00
_rdc:
	.res	1,$00
_rdd:
	.res	1,$00
_rdct:
	.res	1,$00
_rdt:
	.res	1,$00
_rdx:
	.res	1,$00
_rdy:
	.res	1,$00
_gpit:
	.res	1,$00
_gpjt:
	.res	1,$00
_gpint:
	.res	2,$00
_gp_gen:
	.res	2,$00
_gp_aux:
	.res	2,$00
_gp_ul:
	.res	2,$00
_gp_addr:
	.res	2,$00
_pad0:
	.res	1,$00
_pad:
	.res	1,$00
_half_life:
	.res	1,$00
_frame_counter:
	.res	1,$00
_col_idx:
	.res	1,$00
_col_ptr:
	.res	2,$00
_map_ptr:
	.res	2,$00
_state_ctr:
	.res	1,$00
_col_v_offset:
	.res	2,$00
_cam_pos:
	.res	2,$00
_cam_pos_old:
	.res	2,$00
_cx1:
	.res	1,$00
_cx2:
	.res	1,$00
.segment	"BSS"
_ticks:
	.res	1,$00
_halfticks:
	.res	1,$00
_update_list:
	.res	96,$00

; ---------------------------------------------------------------
; void __near__ scroll_paint_chunk (void)
; ---------------------------------------------------------------

.segment	"CODE"

.proc	_scroll_paint_chunk: near

.segment	"CODE"

;
; gpint = col_idx << 2;
;
	ldx     #$00
	lda     _col_idx
	jsr     aslax2
	sta     _gpint
	stx     _gpint+1
;
; col_ptr = map_ptr + ((gpint + gpint + gpint) << 1);
;
	lda     _map_ptr
	ldx     _map_ptr+1
	jsr     pushax
	lda     _gpint
	clc
	adc     _gpint
	pha
	lda     _gpint+1
	adc     _gpint+1
	tax
	pla
	clc
	adc     _gpint
	pha
	txa
	adc     _gpint+1
	sta     tmp1
	pla
	asl     a
	rol     tmp1
	ldx     tmp1
	jsr     tosaddax
	sta     _col_ptr
	stx     _col_ptr+1
;
; rdc = gpint & 31;
;
	lda     _gpint
	and     #$1F
	sta     _rdc
;
; if (!state_ctr) {
;
	lda     _state_ctr
	jne     L50D5
;
; gp_addr = ((col_idx & 8) ? NAMETABLE_B : NAMETABLE_A) + 0x03c0 + (col_idx & 0x7);
;
	lda     _col_idx
	and     #$08
	beq     L4F64
	ldx     #$24
	jmp     L50D1
L4F64:	ldx     #$20
L50D1:	lda     #$00
	clc
	adc     #$C0
	sta     ptr1
	txa
	adc     #$03
	sta     ptr1+1
	lda     _col_idx
	and     #$07
	clc
	adc     ptr1
	ldx     ptr1+1
	bcc     L50D7
	inx
L50D7:	sta     _gp_addr
	stx     _gp_addr+1
;
; gp_gen = (unsigned char *) col_ptr;
;
	lda     _col_ptr
	sta     _gp_gen
	lda     _col_ptr+1
	sta     _gp_gen+1
;
; gpit = 6; while (gpit --) {
;
	lda     #$06
	sta     _gpit
	jmp     L50D4
;
; rda = *gp_gen ++;
;
L4F6D:	lda     _gp_gen
	ldx     _gp_gen+1
	sta     regsave
	stx     regsave+1
	clc
	adc     #$01
	bcc     L4F73
	inx
L4F73:	sta     _gp_gen
	stx     _gp_gen+1
	ldy     #$00
	lda     (regsave),y
	sta     _rda
;
; rdt = attr_lookup_0_0 [rda];
;
	ldy     _rda
	lda     _attr_lookup_0_0,y
	sta     _rdt
;
; rda = *gp_gen ++;
;
	lda     _gp_gen
	ldx     _gp_gen+1
	sta     regsave
	stx     regsave+1
	clc
	adc     #$01
	bcc     L4F7A
	inx
L4F7A:	sta     _gp_gen
	stx     _gp_gen+1
	ldy     #$00
	lda     (regsave),y
	sta     _rda
;
; rdt += attr_lookup_0_1 [rda];
;
	ldy     _rda
	lda     _attr_lookup_0_1,y
	clc
	adc     _rdt
	sta     _rdt
;
; rda = *gp_gen ++;
;
	lda     _gp_gen
	ldx     _gp_gen+1
	sta     regsave
	stx     regsave+1
	clc
	adc     #$01
	bcc     L4F81
	inx
L4F81:	sta     _gp_gen
	stx     _gp_gen+1
	ldy     #$00
	lda     (regsave),y
	sta     _rda
;
; rdt += attr_lookup_0_2 [rda];
;
	ldy     _rda
	lda     _attr_lookup_0_2,y
	clc
	adc     _rdt
	sta     _rdt
;
; rda = *gp_gen ++;
;
	lda     _gp_gen
	ldx     _gp_gen+1
	sta     regsave
	stx     regsave+1
	clc
	adc     #$01
	bcc     L4F88
	inx
L4F88:	sta     _gp_gen
	stx     _gp_gen+1
	ldy     #$00
	lda     (regsave),y
	sta     _rda
;
; rdt += attr_lookup_0_3 [rda];
;
	ldy     _rda
	lda     _attr_lookup_0_3,y
	clc
	adc     _rdt
	sta     _rdt
;
; *gp_ul ++ = MSB (gp_addr);
;
	lda     _gp_ul
	ldx     _gp_ul+1
	sta     regsave
	stx     regsave+1
	clc
	adc     #$01
	bcc     L4F8E
	inx
L4F8E:	sta     _gp_ul
	stx     _gp_ul+1
	lda     _gp_addr+1
	ldy     #$00
	sta     (regsave),y
;
; *gp_ul ++ = LSB (gp_addr);
;
	lda     _gp_ul
	ldx     _gp_ul+1
	sta     regsave
	stx     regsave+1
	clc
	adc     #$01
	bcc     L4F93
	inx
L4F93:	sta     _gp_ul
	stx     _gp_ul+1
	lda     _gp_addr
	sta     (regsave),y
;
; *gp_ul ++= rdt;
;
	lda     _gp_ul
	ldx     _gp_ul+1
	sta     regsave
	stx     regsave+1
	clc
	adc     #$01
	bcc     L4F98
	inx
L4F98:	sta     _gp_ul
	stx     _gp_ul+1
	lda     _rdt
	sta     (regsave),y
;
; gp_addr += 8;
;
	lda     #$08
	clc
	adc     _gp_addr
	sta     _gp_addr
	bcc     L50D4
	inc     _gp_addr+1
;
; gpit = 6; while (gpit --) {
;
L50D4:	lda     _gpit
	pha
	sec
	sbc     #$01
	sta     _gpit
	pla
	tax
	jne     L4F6D
;
; col_v_offset = 0;
;
	sta     _col_v_offset
	sta     _col_v_offset+1
;
; } else if (state_ctr < 7) {
;
	jmp     L50D6
L50D5:	lda     _state_ctr
	cmp     #$07
	jcs     L50D6
;
; gp_addr = ((col_idx & 8) ? NAMETABLE_B : NAMETABLE_A) + rdc + col_v_offset;
;
	lda     _col_idx
	and     #$08
	beq     L4FA6
	ldx     #$24
	jmp     L50D2
L4FA6:	ldx     #$20
L50D2:	lda     #$00
	clc
	adc     _rdc
	bcc     L50D3
	inx
	clc
L50D3:	adc     _col_v_offset
	sta     _gp_addr
	txa
	adc     _col_v_offset+1
	sta     _gp_addr+1
;
; gp_gen = (unsigned char *) (col_ptr + (state_ctr << 2) - 4);
;
	ldx     #$00
	lda     _state_ctr
	jsr     aslax2
	clc
	adc     _col_ptr
	pha
	txa
	adc     _col_ptr+1
	tax
	pla
	sec
	sbc     #$04
	bcs     L4FAE
	dex
L4FAE:	sta     _gp_gen
	stx     _gp_gen+1
;
; rda = *gp_gen ++; rdb = *gp_gen ++;
;
	sta     regsave
	stx     regsave+1
	clc
	adc     #$01
	bcc     L4FB1
	inx
L4FB1:	sta     _gp_gen
	stx     _gp_gen+1
	ldy     #$00
	lda     (regsave),y
	sta     _rda
	lda     _gp_gen
	ldx     _gp_gen+1
	sta     regsave
	stx     regsave+1
	clc
	adc     #$01
	bcc     L4FB4
	inx
L4FB4:	sta     _gp_gen
	stx     _gp_gen+1
	lda     (regsave),y
	sta     _rdb
;
; *gp_ul ++ = MSB (gp_addr) | NT_UPD_HORZ;
;
	lda     _gp_ul
	ldx     _gp_ul+1
	sta     regsave
	stx     regsave+1
	clc
	adc     #$01
	bcc     L4FB6
	inx
L4FB6:	sta     _gp_ul
	stx     _gp_ul+1
	lda     _gp_addr+1
	ora     #$40
	sta     (regsave),y
;
; *gp_ul ++ = LSB (gp_addr);
;
	lda     _gp_ul
	ldx     _gp_ul+1
	sta     regsave
	stx     regsave+1
	clc
	adc     #$01
	bcc     L4FBB
	inx
L4FBB:	sta     _gp_ul
	stx     _gp_ul+1
	lda     _gp_addr
	sta     (regsave),y
;
; *gp_ul ++ = 4;
;
	lda     _gp_ul
	ldx     _gp_ul+1
	sta     regsave
	stx     regsave+1
	clc
	adc     #$01
	bcc     L4FC0
	inx
L4FC0:	sta     _gp_ul
	stx     _gp_ul+1
	lda     #$04
	sta     (regsave),y
;
; *gp_ul ++ = main_ts_tmaps_0 [rda];
;
	lda     _gp_ul
	ldx     _gp_ul+1
	sta     regsave
	stx     regsave+1
	clc
	adc     #$01
	bcc     L4FC3
	inx
L4FC3:	sta     _gp_ul
	stx     _gp_ul+1
	ldy     _rda
	lda     _main_ts_tmaps_0,y
	ldy     #$00
	sta     (regsave),y
;
; *gp_ul ++ = main_ts_tmaps_1 [rda];
;
	lda     _gp_ul
	ldx     _gp_ul+1
	sta     regsave
	stx     regsave+1
	clc
	adc     #$01
	bcc     L4FC8
	inx
L4FC8:	sta     _gp_ul
	stx     _gp_ul+1
	ldy     _rda
	lda     _main_ts_tmaps_1,y
	ldy     #$00
	sta     (regsave),y
;
; *gp_ul ++ = main_ts_tmaps_0 [rdb];
;
	lda     _gp_ul
	ldx     _gp_ul+1
	sta     regsave
	stx     regsave+1
	clc
	adc     #$01
	bcc     L4FCD
	inx
L4FCD:	sta     _gp_ul
	stx     _gp_ul+1
	ldy     _rdb
	lda     _main_ts_tmaps_0,y
	ldy     #$00
	sta     (regsave),y
;
; *gp_ul ++ = main_ts_tmaps_1 [rdb];
;
	lda     _gp_ul
	ldx     _gp_ul+1
	sta     regsave
	stx     regsave+1
	clc
	adc     #$01
	bcc     L4FD2
	inx
L4FD2:	sta     _gp_ul
	stx     _gp_ul+1
	ldy     _rdb
	lda     _main_ts_tmaps_1,y
	ldy     #$00
	sta     (regsave),y
;
; gp_addr += 32;
;
	lda     #$20
	clc
	adc     _gp_addr
	sta     _gp_addr
	bcc     L4FD8
	inc     _gp_addr+1
;
; *gp_ul ++ = MSB (gp_addr) | NT_UPD_HORZ;
;
L4FD8:	lda     _gp_ul
	ldx     _gp_ul+1
	sta     regsave
	stx     regsave+1
	clc
	adc     #$01
	bcc     L4FDA
	inx
L4FDA:	sta     _gp_ul
	stx     _gp_ul+1
	lda     _gp_addr+1
	ora     #$40
	sta     (regsave),y
;
; *gp_ul ++ = LSB (gp_addr);
;
	lda     _gp_ul
	ldx     _gp_ul+1
	sta     regsave
	stx     regsave+1
	clc
	adc     #$01
	bcc     L4FDF
	inx
L4FDF:	sta     _gp_ul
	stx     _gp_ul+1
	lda     _gp_addr
	sta     (regsave),y
;
; *gp_ul ++ = 4;
;
	lda     _gp_ul
	ldx     _gp_ul+1
	sta     regsave
	stx     regsave+1
	clc
	adc     #$01
	bcc     L4FE4
	inx
L4FE4:	sta     _gp_ul
	stx     _gp_ul+1
	lda     #$04
	sta     (regsave),y
;
; *gp_ul ++ = main_ts_tmaps_2 [rda];
;
	lda     _gp_ul
	ldx     _gp_ul+1
	sta     regsave
	stx     regsave+1
	clc
	adc     #$01
	bcc     L4FE7
	inx
L4FE7:	sta     _gp_ul
	stx     _gp_ul+1
	ldy     _rda
	lda     _main_ts_tmaps_2,y
	ldy     #$00
	sta     (regsave),y
;
; *gp_ul ++ = main_ts_tmaps_3 [rda];
;
	lda     _gp_ul
	ldx     _gp_ul+1
	sta     regsave
	stx     regsave+1
	clc
	adc     #$01
	bcc     L4FEC
	inx
L4FEC:	sta     _gp_ul
	stx     _gp_ul+1
	ldy     _rda
	lda     _main_ts_tmaps_3,y
	ldy     #$00
	sta     (regsave),y
;
; *gp_ul ++ = main_ts_tmaps_2 [rdb];
;
	lda     _gp_ul
	ldx     _gp_ul+1
	sta     regsave
	stx     regsave+1
	clc
	adc     #$01
	bcc     L4FF1
	inx
L4FF1:	sta     _gp_ul
	stx     _gp_ul+1
	ldy     _rdb
	lda     _main_ts_tmaps_2,y
	ldy     #$00
	sta     (regsave),y
;
; *gp_ul ++ = main_ts_tmaps_3 [rdb];
;
	lda     _gp_ul
	ldx     _gp_ul+1
	sta     regsave
	stx     regsave+1
	clc
	adc     #$01
	bcc     L4FF6
	inx
L4FF6:	sta     _gp_ul
	stx     _gp_ul+1
	ldy     _rdb
	lda     _main_ts_tmaps_3,y
	ldy     #$00
	sta     (regsave),y
;
; gp_addr += 32;
;
	lda     #$20
	clc
	adc     _gp_addr
	sta     _gp_addr
	bcc     L4FFC
	inc     _gp_addr+1
;
; rda = *gp_gen ++; rdb = *gp_gen ++;
;
L4FFC:	lda     _gp_gen
	ldx     _gp_gen+1
	sta     regsave
	stx     regsave+1
	clc
	adc     #$01
	bcc     L4FFF
	inx
L4FFF:	sta     _gp_gen
	stx     _gp_gen+1
	lda     (regsave),y
	sta     _rda
	lda     _gp_gen
	ldx     _gp_gen+1
	sta     regsave
	stx     regsave+1
	clc
	adc     #$01
	bcc     L5002
	inx
L5002:	sta     _gp_gen
	stx     _gp_gen+1
	lda     (regsave),y
	sta     _rdb
;
; *gp_ul ++ = MSB (gp_addr) | NT_UPD_HORZ;
;
	lda     _gp_ul
	ldx     _gp_ul+1
	sta     regsave
	stx     regsave+1
	clc
	adc     #$01
	bcc     L5004
	inx
L5004:	sta     _gp_ul
	stx     _gp_ul+1
	lda     _gp_addr+1
	ora     #$40
	sta     (regsave),y
;
; *gp_ul ++ = LSB (gp_addr);
;
	lda     _gp_ul
	ldx     _gp_ul+1
	sta     regsave
	stx     regsave+1
	clc
	adc     #$01
	bcc     L5009
	inx
L5009:	sta     _gp_ul
	stx     _gp_ul+1
	lda     _gp_addr
	sta     (regsave),y
;
; *gp_ul ++ = 4;
;
	lda     _gp_ul
	ldx     _gp_ul+1
	sta     regsave
	stx     regsave+1
	clc
	adc     #$01
	bcc     L500E
	inx
L500E:	sta     _gp_ul
	stx     _gp_ul+1
	lda     #$04
	sta     (regsave),y
;
; *gp_ul ++ = main_ts_tmaps_0 [rda];
;
	lda     _gp_ul
	ldx     _gp_ul+1
	sta     regsave
	stx     regsave+1
	clc
	adc     #$01
	bcc     L5011
	inx
L5011:	sta     _gp_ul
	stx     _gp_ul+1
	ldy     _rda
	lda     _main_ts_tmaps_0,y
	ldy     #$00
	sta     (regsave),y
;
; *gp_ul ++ = main_ts_tmaps_1 [rda];
;
	lda     _gp_ul
	ldx     _gp_ul+1
	sta     regsave
	stx     regsave+1
	clc
	adc     #$01
	bcc     L5016
	inx
L5016:	sta     _gp_ul
	stx     _gp_ul+1
	ldy     _rda
	lda     _main_ts_tmaps_1,y
	ldy     #$00
	sta     (regsave),y
;
; *gp_ul ++ = main_ts_tmaps_0 [rdb];
;
	lda     _gp_ul
	ldx     _gp_ul+1
	sta     regsave
	stx     regsave+1
	clc
	adc     #$01
	bcc     L501B
	inx
L501B:	sta     _gp_ul
	stx     _gp_ul+1
	ldy     _rdb
	lda     _main_ts_tmaps_0,y
	ldy     #$00
	sta     (regsave),y
;
; *gp_ul ++ = main_ts_tmaps_1 [rdb];
;
	lda     _gp_ul
	ldx     _gp_ul+1
	sta     regsave
	stx     regsave+1
	clc
	adc     #$01
	bcc     L5020
	inx
L5020:	sta     _gp_ul
	stx     _gp_ul+1
	ldy     _rdb
	lda     _main_ts_tmaps_1,y
	ldy     #$00
	sta     (regsave),y
;
; gp_addr += 32;
;
	lda     #$20
	clc
	adc     _gp_addr
	sta     _gp_addr
	bcc     L5026
	inc     _gp_addr+1
;
; *gp_ul ++ = MSB (gp_addr) | NT_UPD_HORZ;
;
L5026:	lda     _gp_ul
	ldx     _gp_ul+1
	sta     regsave
	stx     regsave+1
	clc
	adc     #$01
	bcc     L5028
	inx
L5028:	sta     _gp_ul
	stx     _gp_ul+1
	lda     _gp_addr+1
	ora     #$40
	sta     (regsave),y
;
; *gp_ul ++ = LSB (gp_addr);
;
	lda     _gp_ul
	ldx     _gp_ul+1
	sta     regsave
	stx     regsave+1
	clc
	adc     #$01
	bcc     L502D
	inx
L502D:	sta     _gp_ul
	stx     _gp_ul+1
	lda     _gp_addr
	sta     (regsave),y
;
; *gp_ul ++ = 4;
;
	lda     _gp_ul
	ldx     _gp_ul+1
	sta     regsave
	stx     regsave+1
	clc
	adc     #$01
	bcc     L5032
	inx
L5032:	sta     _gp_ul
	stx     _gp_ul+1
	lda     #$04
	sta     (regsave),y
;
; *gp_ul ++ = main_ts_tmaps_2 [rda];
;
	lda     _gp_ul
	ldx     _gp_ul+1
	sta     regsave
	stx     regsave+1
	clc
	adc     #$01
	bcc     L5035
	inx
L5035:	sta     _gp_ul
	stx     _gp_ul+1
	ldy     _rda
	lda     _main_ts_tmaps_2,y
	ldy     #$00
	sta     (regsave),y
;
; *gp_ul ++ = main_ts_tmaps_3 [rda];
;
	lda     _gp_ul
	ldx     _gp_ul+1
	sta     regsave
	stx     regsave+1
	clc
	adc     #$01
	bcc     L503A
	inx
L503A:	sta     _gp_ul
	stx     _gp_ul+1
	ldy     _rda
	lda     _main_ts_tmaps_3,y
	ldy     #$00
	sta     (regsave),y
;
; *gp_ul ++ = main_ts_tmaps_2 [rdb];
;
	lda     _gp_ul
	ldx     _gp_ul+1
	sta     regsave
	stx     regsave+1
	clc
	adc     #$01
	bcc     L503F
	inx
L503F:	sta     _gp_ul
	stx     _gp_ul+1
	ldy     _rdb
	lda     _main_ts_tmaps_2,y
	ldy     #$00
	sta     (regsave),y
;
; *gp_ul ++ = main_ts_tmaps_3 [rdb];
;
	lda     _gp_ul
	ldx     _gp_ul+1
	sta     regsave
	stx     regsave+1
	clc
	adc     #$01
	bcc     L5044
	inx
L5044:	sta     _gp_ul
	stx     _gp_ul+1
	ldy     _rdb
	lda     _main_ts_tmaps_3,y
	ldy     #$00
	sta     (regsave),y
;
; col_v_offset += 128;  
;
	lda     #$80
	clc
	adc     _col_v_offset
	sta     _col_v_offset
	bcc     L50D6
	inc     _col_v_offset+1
;
; state_ctr = (state_ctr + 1) & 7;
;
L50D6:	lda     _state_ctr
	clc
	adc     #$01
	and     #$07
	sta     _state_ctr
;
; }
;
	rts

.endproc

; ---------------------------------------------------------------
; void __near__ scroll_draw_one_chunk_completely (void)
; ---------------------------------------------------------------

.segment	"CODE"

.proc	_scroll_draw_one_chunk_completely: near

.segment	"CODE"

;
; state_ctr = 0;
;
	lda     #$00
	sta     _state_ctr
;
; gp_ul = update_list;
;
	lda     #<(_update_list)
	sta     _gp_ul
	lda     #>(_update_list)
	sta     _gp_ul+1
;
; scroll_paint_chunk ();
;
	jsr     _scroll_paint_chunk
;
; scroll_paint_chunk ();
;
	jsr     _scroll_paint_chunk
;
; scroll_paint_chunk ();
;
	jsr     _scroll_paint_chunk
;
; *gp_ul = NT_UPD_EOF;
;
	lda     _gp_ul
	sta     ptr1
	lda     _gp_ul+1
	sta     ptr1+1
	lda     #$FF
	ldy     #$00
	sta     (ptr1),y
;
; ppu_wait_nmi ();
;
	jsr     _ppu_wait_nmi
;
; gp_ul = update_list;
;
	lda     #<(_update_list)
	sta     _gp_ul
	lda     #>(_update_list)
	sta     _gp_ul+1
;
; scroll_paint_chunk ();
;
	jsr     _scroll_paint_chunk
;
; scroll_paint_chunk ();
;
	jsr     _scroll_paint_chunk
;
; scroll_paint_chunk ();
;
	jsr     _scroll_paint_chunk
;
; *gp_ul = NT_UPD_EOF;
;
	lda     _gp_ul
	sta     ptr1
	lda     _gp_ul+1
	sta     ptr1+1
	lda     #$FF
	ldy     #$00
	sta     (ptr1),y
;
; ppu_wait_nmi ();
;
	jsr     _ppu_wait_nmi
;
; gp_ul = update_list;
;
	lda     #<(_update_list)
	sta     _gp_ul
	lda     #>(_update_list)
	sta     _gp_ul+1
;
; scroll_paint_chunk ();
;
	jsr     _scroll_paint_chunk
;
; scroll_paint_chunk ();
;
	jsr     _scroll_paint_chunk
;
; *gp_ul = NT_UPD_EOF;
;
	lda     _gp_ul
	sta     ptr1
	lda     _gp_ul+1
	sta     ptr1+1
	lda     #$FF
	ldy     #$00
	sta     (ptr1),y
;
; ppu_wait_nmi ();
;
	jmp     _ppu_wait_nmi

.endproc

; ---------------------------------------------------------------
; void __near__ scroll_to (void)
; ---------------------------------------------------------------

.segment	"CODE"

.proc	_scroll_to: near

.segment	"CODE"

;
; if (cam_pos > cam_pos_old) {
;
	lda     _cam_pos
	ldx     _cam_pos+1
	jsr     pushax
	lda     _cam_pos_old
	ldx     _cam_pos_old+1
	jsr     tosicmp
	bmi     L506B
	beq     L506B
;
; col_idx = (cam_pos >> 5) + 9;
;
	lda     _cam_pos
	ldx     _cam_pos+1
	jsr     asrax4
	jsr     asrax1
	clc
	adc     #$09
;
; } else if (cam_pos < cam_pos_old) {
;
	jmp     L50DA
L506B:	lda     _cam_pos
	cmp     _cam_pos_old
	lda     _cam_pos+1
	sbc     _cam_pos_old+1
	bvc     L50D8
	eor     #$80
L50D8:	bpl     L5073
;
; col_idx = (cam_pos >> 5) - 1;
;
	lda     _cam_pos
	ldx     _cam_pos+1
	jsr     asrax4
	jsr     asrax1
	sec
	sbc     #$01
L50DA:	sta     _col_idx
;
; scroll_paint_chunk ();
;
	jsr     _scroll_paint_chunk
;
; cam_pos_old = cam_pos;
;
L5073:	lda     _cam_pos
	sta     _cam_pos_old
	lda     _cam_pos+1
	sta     _cam_pos_old+1
;
; }
;
	rts

.endproc

; ---------------------------------------------------------------
; void __near__ scroll_draw_screen (void)
; ---------------------------------------------------------------

.segment	"CODE"

.proc	_scroll_draw_screen: near

.segment	"CODE"

;
; cx1 = (cam_pos >> 5); if (cx1) cx1 --;
;
	lda     _cam_pos
	ldx     _cam_pos+1
	jsr     asrax4
	jsr     asrax1
	sta     _cx1
	lda     _cx1
	beq     L50DB
	sec
	sbc     #$01
	sta     _cx1
;
; cx2 = cx1 + 10;
;
L50DB:	lda     _cx1
	clc
	adc     #$0A
	sta     _cx2
;
; for (col_idx = cx1; col_idx <= cx2; col_idx ++) {
;
	lda     _cx1
L50DD:	sta     _col_idx
	sec
	sbc     _cx2
	bcc     L5089
	bne     L5087
;
; scroll_draw_one_chunk_completely ();
;
L5089:	jsr     _scroll_draw_one_chunk_completely
;
; for (col_idx = cx1; col_idx <= cx2; col_idx ++) {
;
	lda     _col_idx
	clc
	adc     #$01
	jmp     L50DD
;
; }
;
L5087:	rts

.endproc

; ---------------------------------------------------------------
; void __near__ test_scroller (void)
; ---------------------------------------------------------------

.segment	"CODE"

.proc	_test_scroller: near

.segment	"CODE"

;
; bankswitch (1);
;
	lda     #$01
	jsr     _bankswitch
;
; tokumaru_lzss (main_ts_patterns_c, 0);
;
	lda     #<(_main_ts_patterns_c)
	ldx     #>(_main_ts_patterns_c)
	jsr     pushax
	ldx     #$00
	txa
	jsr     _tokumaru_lzss
;
; pal_bg (mypal_game_bg0);
;
	lda     #<(_mypal_game_bg0)
	ldx     #>(_mypal_game_bg0)
	jsr     _pal_bg
;
; bankswitch (0);
;
	lda     #$00
	jsr     _bankswitch
;
; pal_bright (4);
;
	lda     #$04
	jsr     _pal_bright
;
; ppu_on_all ();
;
	jsr     _ppu_on_all
;
; cam_pos = 0;
;
	lda     #$00
	sta     _cam_pos
	sta     _cam_pos+1
;
; scroll (0, 464);
;
	jsr     push0
	ldx     #$01
	lda     #$D0
	jsr     _scroll
;
; set_vram_update (update_list);
;
	lda     #<(_update_list)
	ldx     #>(_update_list)
	jsr     _set_vram_update
;
; scroll_draw_screen ();
;
	jsr     _scroll_draw_screen
;
; cam_pos ++;
;
L50A4:	lda     _cam_pos
	ldx     _cam_pos+1
	clc
	adc     #$01
	bcc     L50A9
	inx
L50A9:	sta     _cam_pos
	stx     _cam_pos+1
;
; gp_ul = update_list;
;
	lda     #<(_update_list)
	sta     _gp_ul
	lda     #>(_update_list)
	sta     _gp_ul+1
;
; scroll_to ();
;
	jsr     _scroll_to
;
; scroll (cam_pos & 0x1ff, 464);
;
	lda     _cam_pos+1
	and     #$01
	tax
	lda     _cam_pos
	jsr     pushax
	ldx     #$01
	lda     #$D0
	jsr     _scroll
;
; *((unsigned char*)0x2001) = 0x1e;
;
	lda     #$1E
	sta     $2001
;
; *gp_ul = NT_UPD_EOF;
;
	lda     _gp_ul
	sta     ptr1
	lda     _gp_ul+1
	sta     ptr1+1
	lda     #$FF
	ldy     #$00
	sta     (ptr1),y
;
; ppu_wait_nmi ();
;
	jsr     _ppu_wait_nmi
;
; *((unsigned char*)0x2001) = 0x1f;
;
	lda     #$1F
	sta     $2001
;
; while (1) {
;
	jmp     L50A4

.endproc

; ---------------------------------------------------------------
; void __near__ main (void)
; ---------------------------------------------------------------

.segment	"CODE"

.proc	_main: near

.segment	"CODE"

;
; ticks = ppu_system () ? 60 : 50;
;
	jsr     _ppu_system
	stx     tmp1
	ora     tmp1
	beq     L50BC
	lda     #$3C
	jmp     L50DE
L50BC:	lda     #$32
L50DE:	sta     _ticks
;
; halfticks = ticks >> 1;
;
	lsr     a
	sta     _halfticks
;
; famitone_init (1, music_ROM1);
;
	lda     #$01
	jsr     pusha
	lda     #<(_music_ROM1)
	ldx     #>(_music_ROM1)
	jsr     _famitone_init
;
; bank_bg (0);
;
	lda     #$00
	jsr     _bank_bg
;
; bank_spr (1);
;
	lda     #$01
	jsr     _bank_spr
;
; oam_size (0);
;
	lda     #$00
	jsr     _oam_size
;
; pal_bright (0);
;
	lda     #$00
	jsr     _pal_bright
;
; map_ptr = map_0;
;
	lda     #<(_map_0)
	sta     _map_ptr
	lda     #>(_map_0)
	sta     _map_ptr+1
;
; test_scroller ();
;
	jmp     _test_scroller

.endproc

